
kernel:     file format elf32-i386


Disassembly of section .text:

00100000 <multiboot_header>:
  100000:	02 b0 ad 1b 03 00    	add    0x31bad(%eax),%dh
  100006:	00 00                	add    %al,(%eax)
  100008:	fb                   	sti    
  100009:	4f                   	dec    %edi
  10000a:	52                   	push   %edx
  10000b:	e4 e8                	in     $0xe8,%al

0010000c <_start>:
  10000c:	e8 cf 42 00 00       	call   1042e0 <kernel_main>
  100011:	b8 18 00 00 00       	mov    $0x18,%eax
  100016:	8e e8                	mov    %eax,%gs
  100018:	66 b8 20 00          	mov    $0x20,%ax
  10001c:	0f 00 d0             	lldt   %ax
  10001f:	66 b8 28 00          	mov    $0x28,%ax
  100023:	0f 00 d8             	ltr    %ax
  100026:	66 b8 10 00          	mov    $0x10,%ax
  10002a:	8e d8                	mov    %eax,%ds
  10002c:	8e c0                	mov    %eax,%es
  10002e:	8e d0                	mov    %eax,%ss
  100030:	66 b8 18 00          	mov    $0x18,%ax
  100034:	8e e8                	mov    %eax,%gs
  100036:	b8 d6 30 10 00       	mov    $0x1030d6,%eax
  10003b:	89 c4                	mov    %eax,%esp
  10003d:	9c                   	pushf  
  10003e:	81 24 24 ff bf ff ff 	andl   $0xffffbfff,(%esp)
  100045:	9d                   	popf   
  100046:	6a 17                	push   $0x17
  100048:	68 d6 20 10 00       	push   $0x1020d6
  10004d:	9c                   	pushf  
  10004e:	6a 0f                	push   $0xf
  100050:	68 40 43 10 00       	push   $0x104340
  100055:	cf                   	iret   
  100056:	90                   	nop
  100057:	90                   	nop
  100058:	90                   	nop
  100059:	90                   	nop
  10005a:	90                   	nop
  10005b:	90                   	nop
  10005c:	90                   	nop
  10005d:	90                   	nop
  10005e:	90                   	nop
  10005f:	90                   	nop
  100060:	90                   	nop
  100061:	90                   	nop
  100062:	90                   	nop
  100063:	90                   	nop
  100064:	90                   	nop
  100065:	90                   	nop
  100066:	90                   	nop
  100067:	90                   	nop
  100068:	90                   	nop
  100069:	90                   	nop
  10006a:	90                   	nop
  10006b:	90                   	nop
  10006c:	90                   	nop
  10006d:	90                   	nop
  10006e:	90                   	nop
  10006f:	90                   	nop
  100070:	90                   	nop
  100071:	90                   	nop
  100072:	90                   	nop
  100073:	90                   	nop
  100074:	90                   	nop
  100075:	90                   	nop
  100076:	90                   	nop
  100077:	90                   	nop
  100078:	90                   	nop
  100079:	90                   	nop
  10007a:	90                   	nop
  10007b:	90                   	nop
  10007c:	90                   	nop
  10007d:	90                   	nop
  10007e:	90                   	nop
  10007f:	90                   	nop

00100080 <idt>:
  100080:	00 00                	add    %al,(%eax)
  100082:	08 00                	or     %al,(%eax)
  100084:	00 8e 00 00 00 00    	add    %cl,0x0(%esi)
  10008a:	08 00                	or     %al,(%eax)
  10008c:	00 8e 00 00 00 00    	add    %cl,0x0(%esi)
  100092:	08 00                	or     %al,(%eax)
  100094:	00 8e 00 00 00 00    	add    %cl,0x0(%esi)
  10009a:	08 00                	or     %al,(%eax)
  10009c:	00 8e 00 00 00 00    	add    %cl,0x0(%esi)
  1000a2:	08 00                	or     %al,(%eax)
  1000a4:	00 8e 00 00 00 00    	add    %cl,0x0(%esi)
  1000aa:	08 00                	or     %al,(%eax)
  1000ac:	00 8e 00 00 00 00    	add    %cl,0x0(%esi)
  1000b2:	08 00                	or     %al,(%eax)
  1000b4:	00 8e 00 00 00 00    	add    %cl,0x0(%esi)
  1000ba:	08 00                	or     %al,(%eax)
  1000bc:	00 8e 00 00 00 00    	add    %cl,0x0(%esi)
  1000c2:	08 00                	or     %al,(%eax)
  1000c4:	00 8e 00 00 00 00    	add    %cl,0x0(%esi)
  1000ca:	08 00                	or     %al,(%eax)
  1000cc:	00 8e 00 00 00 00    	add    %cl,0x0(%esi)
  1000d2:	08 00                	or     %al,(%eax)
  1000d4:	00 8e 00 00 00 00    	add    %cl,0x0(%esi)
  1000da:	08 00                	or     %al,(%eax)
  1000dc:	00 8e 00 00 00 00    	add    %cl,0x0(%esi)
  1000e2:	08 00                	or     %al,(%eax)
  1000e4:	00 8e 00 00 00 00    	add    %cl,0x0(%esi)
  1000ea:	08 00                	or     %al,(%eax)
  1000ec:	00 8e 00 00 00 00    	add    %cl,0x0(%esi)
  1000f2:	08 00                	or     %al,(%eax)
  1000f4:	00 8e 00 00 00 00    	add    %cl,0x0(%esi)
  1000fa:	08 00                	or     %al,(%eax)
  1000fc:	00 8e 00 00 00 00    	add    %cl,0x0(%esi)
  100102:	08 00                	or     %al,(%eax)
  100104:	00 8e 00 00 00 00    	add    %cl,0x0(%esi)
  10010a:	08 00                	or     %al,(%eax)
  10010c:	00 8e 00 00 00 00    	add    %cl,0x0(%esi)
  100112:	08 00                	or     %al,(%eax)
  100114:	00 8e 00 00 00 00    	add    %cl,0x0(%esi)
  10011a:	08 00                	or     %al,(%eax)
  10011c:	00 8e 00 00 00 00    	add    %cl,0x0(%esi)
  100122:	08 00                	or     %al,(%eax)
  100124:	00 8e 00 00 00 00    	add    %cl,0x0(%esi)
  10012a:	08 00                	or     %al,(%eax)
  10012c:	00 8e 00 00 00 00    	add    %cl,0x0(%esi)
  100132:	08 00                	or     %al,(%eax)
  100134:	00 8e 00 00 00 00    	add    %cl,0x0(%esi)
  10013a:	08 00                	or     %al,(%eax)
  10013c:	00 8e 00 00 00 00    	add    %cl,0x0(%esi)
  100142:	08 00                	or     %al,(%eax)
  100144:	00 8e 00 00 00 00    	add    %cl,0x0(%esi)
  10014a:	08 00                	or     %al,(%eax)
  10014c:	00 8e 00 00 00 00    	add    %cl,0x0(%esi)
  100152:	08 00                	or     %al,(%eax)
  100154:	00 8e 00 00 00 00    	add    %cl,0x0(%esi)
  10015a:	08 00                	or     %al,(%eax)
  10015c:	00 8e 00 00 00 00    	add    %cl,0x0(%esi)
  100162:	08 00                	or     %al,(%eax)
  100164:	00 8e 00 00 00 00    	add    %cl,0x0(%esi)
  10016a:	08 00                	or     %al,(%eax)
  10016c:	00 8e 00 00 00 00    	add    %cl,0x0(%esi)
  100172:	08 00                	or     %al,(%eax)
  100174:	00 8e 00 00 00 00    	add    %cl,0x0(%esi)
  10017a:	08 00                	or     %al,(%eax)
  10017c:	00 8e 00 00 00 00    	add    %cl,0x0(%esi)
  100182:	08 00                	or     %al,(%eax)
  100184:	00 8e 00 00 00 00    	add    %cl,0x0(%esi)
  10018a:	08 00                	or     %al,(%eax)
  10018c:	00 8e 00 00 00 00    	add    %cl,0x0(%esi)
  100192:	08 00                	or     %al,(%eax)
  100194:	00 8e 00 00 00 00    	add    %cl,0x0(%esi)
  10019a:	08 00                	or     %al,(%eax)
  10019c:	00 8e 00 00 00 00    	add    %cl,0x0(%esi)
  1001a2:	08 00                	or     %al,(%eax)
  1001a4:	00 8e 00 00 00 00    	add    %cl,0x0(%esi)
  1001aa:	08 00                	or     %al,(%eax)
  1001ac:	00 8e 00 00 00 00    	add    %cl,0x0(%esi)
  1001b2:	08 00                	or     %al,(%eax)
  1001b4:	00 8e 00 00 00 00    	add    %cl,0x0(%esi)
  1001ba:	08 00                	or     %al,(%eax)
  1001bc:	00 8e 00 00 00 00    	add    %cl,0x0(%esi)
  1001c2:	08 00                	or     %al,(%eax)
  1001c4:	00 8e 00 00 00 00    	add    %cl,0x0(%esi)
  1001ca:	08 00                	or     %al,(%eax)
  1001cc:	00 8e 00 00 00 00    	add    %cl,0x0(%esi)
  1001d2:	08 00                	or     %al,(%eax)
  1001d4:	00 8e 00 00 00 00    	add    %cl,0x0(%esi)
  1001da:	08 00                	or     %al,(%eax)
  1001dc:	00 8e 00 00 00 00    	add    %cl,0x0(%esi)
  1001e2:	08 00                	or     %al,(%eax)
  1001e4:	00 8e 00 00 00 00    	add    %cl,0x0(%esi)
  1001ea:	08 00                	or     %al,(%eax)
  1001ec:	00 8e 00 00 00 00    	add    %cl,0x0(%esi)
  1001f2:	08 00                	or     %al,(%eax)
  1001f4:	00 8e 00 00 00 00    	add    %cl,0x0(%esi)
  1001fa:	08 00                	or     %al,(%eax)
  1001fc:	00 8e 00 00 00 00    	add    %cl,0x0(%esi)
  100202:	08 00                	or     %al,(%eax)
  100204:	00 8e 00 00 00 00    	add    %cl,0x0(%esi)
  10020a:	08 00                	or     %al,(%eax)
  10020c:	00 8e 00 00 00 00    	add    %cl,0x0(%esi)
  100212:	08 00                	or     %al,(%eax)
  100214:	00 8e 00 00 00 00    	add    %cl,0x0(%esi)
  10021a:	08 00                	or     %al,(%eax)
  10021c:	00 8e 00 00 00 00    	add    %cl,0x0(%esi)
  100222:	08 00                	or     %al,(%eax)
  100224:	00 8e 00 00 00 00    	add    %cl,0x0(%esi)
  10022a:	08 00                	or     %al,(%eax)
  10022c:	00 8e 00 00 00 00    	add    %cl,0x0(%esi)
  100232:	08 00                	or     %al,(%eax)
  100234:	00 8e 00 00 00 00    	add    %cl,0x0(%esi)
  10023a:	08 00                	or     %al,(%eax)
  10023c:	00 8e 00 00 00 00    	add    %cl,0x0(%esi)
  100242:	08 00                	or     %al,(%eax)
  100244:	00 8e 00 00 00 00    	add    %cl,0x0(%esi)
  10024a:	08 00                	or     %al,(%eax)
  10024c:	00 8e 00 00 00 00    	add    %cl,0x0(%esi)
  100252:	08 00                	or     %al,(%eax)
  100254:	00 8e 00 00 00 00    	add    %cl,0x0(%esi)
  10025a:	08 00                	or     %al,(%eax)
  10025c:	00 8e 00 00 00 00    	add    %cl,0x0(%esi)
  100262:	08 00                	or     %al,(%eax)
  100264:	00 8e 00 00 00 00    	add    %cl,0x0(%esi)
  10026a:	08 00                	or     %al,(%eax)
  10026c:	00 8e 00 00 00 00    	add    %cl,0x0(%esi)
  100272:	08 00                	or     %al,(%eax)
  100274:	00 8e 00 00 00 00    	add    %cl,0x0(%esi)
  10027a:	08 00                	or     %al,(%eax)
  10027c:	00 8e 00 00 00 00    	add    %cl,0x0(%esi)
  100282:	08 00                	or     %al,(%eax)
  100284:	00 8e 00 00 00 00    	add    %cl,0x0(%esi)
  10028a:	08 00                	or     %al,(%eax)
  10028c:	00 8e 00 00 00 00    	add    %cl,0x0(%esi)
  100292:	08 00                	or     %al,(%eax)
  100294:	00 8e 00 00 00 00    	add    %cl,0x0(%esi)
  10029a:	08 00                	or     %al,(%eax)
  10029c:	00 8e 00 00 00 00    	add    %cl,0x0(%esi)
  1002a2:	08 00                	or     %al,(%eax)
  1002a4:	00 8e 00 00 00 00    	add    %cl,0x0(%esi)
  1002aa:	08 00                	or     %al,(%eax)
  1002ac:	00 8e 00 00 00 00    	add    %cl,0x0(%esi)
  1002b2:	08 00                	or     %al,(%eax)
  1002b4:	00 8e 00 00 00 00    	add    %cl,0x0(%esi)
  1002ba:	08 00                	or     %al,(%eax)
  1002bc:	00 8e 00 00 00 00    	add    %cl,0x0(%esi)
  1002c2:	08 00                	or     %al,(%eax)
  1002c4:	00 8e 00 00 00 00    	add    %cl,0x0(%esi)
  1002ca:	08 00                	or     %al,(%eax)
  1002cc:	00 8e 00 00 00 00    	add    %cl,0x0(%esi)
  1002d2:	08 00                	or     %al,(%eax)
  1002d4:	00 8e 00 00 00 00    	add    %cl,0x0(%esi)
  1002da:	08 00                	or     %al,(%eax)
  1002dc:	00 8e 00 00 00 00    	add    %cl,0x0(%esi)
  1002e2:	08 00                	or     %al,(%eax)
  1002e4:	00 8e 00 00 00 00    	add    %cl,0x0(%esi)
  1002ea:	08 00                	or     %al,(%eax)
  1002ec:	00 8e 00 00 00 00    	add    %cl,0x0(%esi)
  1002f2:	08 00                	or     %al,(%eax)
  1002f4:	00 8e 00 00 00 00    	add    %cl,0x0(%esi)
  1002fa:	08 00                	or     %al,(%eax)
  1002fc:	00 8e 00 00 00 00    	add    %cl,0x0(%esi)
  100302:	08 00                	or     %al,(%eax)
  100304:	00 8e 00 00 00 00    	add    %cl,0x0(%esi)
  10030a:	08 00                	or     %al,(%eax)
  10030c:	00 8e 00 00 00 00    	add    %cl,0x0(%esi)
  100312:	08 00                	or     %al,(%eax)
  100314:	00 8e 00 00 00 00    	add    %cl,0x0(%esi)
  10031a:	08 00                	or     %al,(%eax)
  10031c:	00 8e 00 00 00 00    	add    %cl,0x0(%esi)
  100322:	08 00                	or     %al,(%eax)
  100324:	00 8e 00 00 00 00    	add    %cl,0x0(%esi)
  10032a:	08 00                	or     %al,(%eax)
  10032c:	00 8e 00 00 00 00    	add    %cl,0x0(%esi)
  100332:	08 00                	or     %al,(%eax)
  100334:	00 8e 00 00 00 00    	add    %cl,0x0(%esi)
  10033a:	08 00                	or     %al,(%eax)
  10033c:	00 8e 00 00 00 00    	add    %cl,0x0(%esi)
  100342:	08 00                	or     %al,(%eax)
  100344:	00 8e 00 00 00 00    	add    %cl,0x0(%esi)
  10034a:	08 00                	or     %al,(%eax)
  10034c:	00 8e 00 00 00 00    	add    %cl,0x0(%esi)
  100352:	08 00                	or     %al,(%eax)
  100354:	00 8e 00 00 00 00    	add    %cl,0x0(%esi)
  10035a:	08 00                	or     %al,(%eax)
  10035c:	00 8e 00 00 00 00    	add    %cl,0x0(%esi)
  100362:	08 00                	or     %al,(%eax)
  100364:	00 8e 00 00 00 00    	add    %cl,0x0(%esi)
  10036a:	08 00                	or     %al,(%eax)
  10036c:	00 8e 00 00 00 00    	add    %cl,0x0(%esi)
  100372:	08 00                	or     %al,(%eax)
  100374:	00 8e 00 00 00 00    	add    %cl,0x0(%esi)
  10037a:	08 00                	or     %al,(%eax)
  10037c:	00 8e 00 00 00 00    	add    %cl,0x0(%esi)
  100382:	08 00                	or     %al,(%eax)
  100384:	00 8e 00 00 00 00    	add    %cl,0x0(%esi)
  10038a:	08 00                	or     %al,(%eax)
  10038c:	00 8e 00 00 00 00    	add    %cl,0x0(%esi)
  100392:	08 00                	or     %al,(%eax)
  100394:	00 8e 00 00 00 00    	add    %cl,0x0(%esi)
  10039a:	08 00                	or     %al,(%eax)
  10039c:	00 8e 00 00 00 00    	add    %cl,0x0(%esi)
  1003a2:	08 00                	or     %al,(%eax)
  1003a4:	00 8e 00 00 00 00    	add    %cl,0x0(%esi)
  1003aa:	08 00                	or     %al,(%eax)
  1003ac:	00 8e 00 00 00 00    	add    %cl,0x0(%esi)
  1003b2:	08 00                	or     %al,(%eax)
  1003b4:	00 8e 00 00 00 00    	add    %cl,0x0(%esi)
  1003ba:	08 00                	or     %al,(%eax)
  1003bc:	00 8e 00 00 00 00    	add    %cl,0x0(%esi)
  1003c2:	08 00                	or     %al,(%eax)
  1003c4:	00 8e 00 00 00 00    	add    %cl,0x0(%esi)
  1003ca:	08 00                	or     %al,(%eax)
  1003cc:	00 8e 00 00 00 00    	add    %cl,0x0(%esi)
  1003d2:	08 00                	or     %al,(%eax)
  1003d4:	00 8e 00 00 00 00    	add    %cl,0x0(%esi)
  1003da:	08 00                	or     %al,(%eax)
  1003dc:	00 8e 00 00 00 00    	add    %cl,0x0(%esi)
  1003e2:	08 00                	or     %al,(%eax)
  1003e4:	00 8e 00 00 00 00    	add    %cl,0x0(%esi)
  1003ea:	08 00                	or     %al,(%eax)
  1003ec:	00 8e 00 00 00 00    	add    %cl,0x0(%esi)
  1003f2:	08 00                	or     %al,(%eax)
  1003f4:	00 8e 00 00 00 00    	add    %cl,0x0(%esi)
  1003fa:	08 00                	or     %al,(%eax)
  1003fc:	00 8e 00 00 00 00    	add    %cl,0x0(%esi)
  100402:	08 00                	or     %al,(%eax)
  100404:	00 8e 00 00 00 00    	add    %cl,0x0(%esi)
  10040a:	08 00                	or     %al,(%eax)
  10040c:	00 8e 00 00 00 00    	add    %cl,0x0(%esi)
  100412:	08 00                	or     %al,(%eax)
  100414:	00 8e 00 00 00 00    	add    %cl,0x0(%esi)
  10041a:	08 00                	or     %al,(%eax)
  10041c:	00 8e 00 00 00 00    	add    %cl,0x0(%esi)
  100422:	08 00                	or     %al,(%eax)
  100424:	00 8e 00 00 00 00    	add    %cl,0x0(%esi)
  10042a:	08 00                	or     %al,(%eax)
  10042c:	00 8e 00 00 00 00    	add    %cl,0x0(%esi)
  100432:	08 00                	or     %al,(%eax)
  100434:	00 8e 00 00 00 00    	add    %cl,0x0(%esi)
  10043a:	08 00                	or     %al,(%eax)
  10043c:	00 8e 00 00 00 00    	add    %cl,0x0(%esi)
  100442:	08 00                	or     %al,(%eax)
  100444:	00 8e 00 00 00 00    	add    %cl,0x0(%esi)
  10044a:	08 00                	or     %al,(%eax)
  10044c:	00 8e 00 00 00 00    	add    %cl,0x0(%esi)
  100452:	08 00                	or     %al,(%eax)
  100454:	00 8e 00 00 00 00    	add    %cl,0x0(%esi)
  10045a:	08 00                	or     %al,(%eax)
  10045c:	00 8e 00 00 00 00    	add    %cl,0x0(%esi)
  100462:	08 00                	or     %al,(%eax)
  100464:	00 8e 00 00 00 00    	add    %cl,0x0(%esi)
  10046a:	08 00                	or     %al,(%eax)
  10046c:	00 8e 00 00 00 00    	add    %cl,0x0(%esi)
  100472:	08 00                	or     %al,(%eax)
  100474:	00 8e 00 00 00 00    	add    %cl,0x0(%esi)
  10047a:	08 00                	or     %al,(%eax)
  10047c:	00 8e 00 00 00 00    	add    %cl,0x0(%esi)
  100482:	08 00                	or     %al,(%eax)
  100484:	00 8e 00 00 00 00    	add    %cl,0x0(%esi)
  10048a:	08 00                	or     %al,(%eax)
  10048c:	00 8e 00 00 00 00    	add    %cl,0x0(%esi)
  100492:	08 00                	or     %al,(%eax)
  100494:	00 8e 00 00 00 00    	add    %cl,0x0(%esi)
  10049a:	08 00                	or     %al,(%eax)
  10049c:	00 8e 00 00 00 00    	add    %cl,0x0(%esi)
  1004a2:	08 00                	or     %al,(%eax)
  1004a4:	00 8e 00 00 00 00    	add    %cl,0x0(%esi)
  1004aa:	08 00                	or     %al,(%eax)
  1004ac:	00 8e 00 00 00 00    	add    %cl,0x0(%esi)
  1004b2:	08 00                	or     %al,(%eax)
  1004b4:	00 8e 00 00 00 00    	add    %cl,0x0(%esi)
  1004ba:	08 00                	or     %al,(%eax)
  1004bc:	00 8e 00 00 00 00    	add    %cl,0x0(%esi)
  1004c2:	08 00                	or     %al,(%eax)
  1004c4:	00 8e 00 00 00 00    	add    %cl,0x0(%esi)
  1004ca:	08 00                	or     %al,(%eax)
  1004cc:	00 8e 00 00 00 00    	add    %cl,0x0(%esi)
  1004d2:	08 00                	or     %al,(%eax)
  1004d4:	00 8e 00 00 00 00    	add    %cl,0x0(%esi)
  1004da:	08 00                	or     %al,(%eax)
  1004dc:	00 8e 00 00 00 00    	add    %cl,0x0(%esi)
  1004e2:	08 00                	or     %al,(%eax)
  1004e4:	00 8e 00 00 00 00    	add    %cl,0x0(%esi)
  1004ea:	08 00                	or     %al,(%eax)
  1004ec:	00 8e 00 00 00 00    	add    %cl,0x0(%esi)
  1004f2:	08 00                	or     %al,(%eax)
  1004f4:	00 8e 00 00 00 00    	add    %cl,0x0(%esi)
  1004fa:	08 00                	or     %al,(%eax)
  1004fc:	00 8e 00 00 00 00    	add    %cl,0x0(%esi)
  100502:	08 00                	or     %al,(%eax)
  100504:	00 8e 00 00 00 00    	add    %cl,0x0(%esi)
  10050a:	08 00                	or     %al,(%eax)
  10050c:	00 8e 00 00 00 00    	add    %cl,0x0(%esi)
  100512:	08 00                	or     %al,(%eax)
  100514:	00 8e 00 00 00 00    	add    %cl,0x0(%esi)
  10051a:	08 00                	or     %al,(%eax)
  10051c:	00 8e 00 00 00 00    	add    %cl,0x0(%esi)
  100522:	08 00                	or     %al,(%eax)
  100524:	00 8e 00 00 00 00    	add    %cl,0x0(%esi)
  10052a:	08 00                	or     %al,(%eax)
  10052c:	00 8e 00 00 00 00    	add    %cl,0x0(%esi)
  100532:	08 00                	or     %al,(%eax)
  100534:	00 8e 00 00 00 00    	add    %cl,0x0(%esi)
  10053a:	08 00                	or     %al,(%eax)
  10053c:	00 8e 00 00 00 00    	add    %cl,0x0(%esi)
  100542:	08 00                	or     %al,(%eax)
  100544:	00 8e 00 00 00 00    	add    %cl,0x0(%esi)
  10054a:	08 00                	or     %al,(%eax)
  10054c:	00 8e 00 00 00 00    	add    %cl,0x0(%esi)
  100552:	08 00                	or     %al,(%eax)
  100554:	00 8e 00 00 00 00    	add    %cl,0x0(%esi)
  10055a:	08 00                	or     %al,(%eax)
  10055c:	00 8e 00 00 00 00    	add    %cl,0x0(%esi)
  100562:	08 00                	or     %al,(%eax)
  100564:	00 8e 00 00 00 00    	add    %cl,0x0(%esi)
  10056a:	08 00                	or     %al,(%eax)
  10056c:	00 8e 00 00 00 00    	add    %cl,0x0(%esi)
  100572:	08 00                	or     %al,(%eax)
  100574:	00 8e 00 00 00 00    	add    %cl,0x0(%esi)
  10057a:	08 00                	or     %al,(%eax)
  10057c:	00 8e 00 00 00 00    	add    %cl,0x0(%esi)
  100582:	08 00                	or     %al,(%eax)
  100584:	00 8e 00 00 00 00    	add    %cl,0x0(%esi)
  10058a:	08 00                	or     %al,(%eax)
  10058c:	00 8e 00 00 00 00    	add    %cl,0x0(%esi)
  100592:	08 00                	or     %al,(%eax)
  100594:	00 8e 00 00 00 00    	add    %cl,0x0(%esi)
  10059a:	08 00                	or     %al,(%eax)
  10059c:	00 8e 00 00 00 00    	add    %cl,0x0(%esi)
  1005a2:	08 00                	or     %al,(%eax)
  1005a4:	00 8e 00 00 00 00    	add    %cl,0x0(%esi)
  1005aa:	08 00                	or     %al,(%eax)
  1005ac:	00 8e 00 00 00 00    	add    %cl,0x0(%esi)
  1005b2:	08 00                	or     %al,(%eax)
  1005b4:	00 8e 00 00 00 00    	add    %cl,0x0(%esi)
  1005ba:	08 00                	or     %al,(%eax)
  1005bc:	00 8e 00 00 00 00    	add    %cl,0x0(%esi)
  1005c2:	08 00                	or     %al,(%eax)
  1005c4:	00 8e 00 00 00 00    	add    %cl,0x0(%esi)
  1005ca:	08 00                	or     %al,(%eax)
  1005cc:	00 8e 00 00 00 00    	add    %cl,0x0(%esi)
  1005d2:	08 00                	or     %al,(%eax)
  1005d4:	00 8e 00 00 00 00    	add    %cl,0x0(%esi)
  1005da:	08 00                	or     %al,(%eax)
  1005dc:	00 8e 00 00 00 00    	add    %cl,0x0(%esi)
  1005e2:	08 00                	or     %al,(%eax)
  1005e4:	00 8e 00 00 00 00    	add    %cl,0x0(%esi)
  1005ea:	08 00                	or     %al,(%eax)
  1005ec:	00 8e 00 00 00 00    	add    %cl,0x0(%esi)
  1005f2:	08 00                	or     %al,(%eax)
  1005f4:	00 8e 00 00 00 00    	add    %cl,0x0(%esi)
  1005fa:	08 00                	or     %al,(%eax)
  1005fc:	00 8e 00 00 00 00    	add    %cl,0x0(%esi)
  100602:	08 00                	or     %al,(%eax)
  100604:	00 8e 00 00 00 00    	add    %cl,0x0(%esi)
  10060a:	08 00                	or     %al,(%eax)
  10060c:	00 8e 00 00 00 00    	add    %cl,0x0(%esi)
  100612:	08 00                	or     %al,(%eax)
  100614:	00 8e 00 00 00 00    	add    %cl,0x0(%esi)
  10061a:	08 00                	or     %al,(%eax)
  10061c:	00 8e 00 00 00 00    	add    %cl,0x0(%esi)
  100622:	08 00                	or     %al,(%eax)
  100624:	00 8e 00 00 00 00    	add    %cl,0x0(%esi)
  10062a:	08 00                	or     %al,(%eax)
  10062c:	00 8e 00 00 00 00    	add    %cl,0x0(%esi)
  100632:	08 00                	or     %al,(%eax)
  100634:	00 8e 00 00 00 00    	add    %cl,0x0(%esi)
  10063a:	08 00                	or     %al,(%eax)
  10063c:	00 8e 00 00 00 00    	add    %cl,0x0(%esi)
  100642:	08 00                	or     %al,(%eax)
  100644:	00 8e 00 00 00 00    	add    %cl,0x0(%esi)
  10064a:	08 00                	or     %al,(%eax)
  10064c:	00 8e 00 00 00 00    	add    %cl,0x0(%esi)
  100652:	08 00                	or     %al,(%eax)
  100654:	00 8e 00 00 00 00    	add    %cl,0x0(%esi)
  10065a:	08 00                	or     %al,(%eax)
  10065c:	00 8e 00 00 00 00    	add    %cl,0x0(%esi)
  100662:	08 00                	or     %al,(%eax)
  100664:	00 8e 00 00 00 00    	add    %cl,0x0(%esi)
  10066a:	08 00                	or     %al,(%eax)
  10066c:	00 8e 00 00 00 00    	add    %cl,0x0(%esi)
  100672:	08 00                	or     %al,(%eax)
  100674:	00 8e 00 00 00 00    	add    %cl,0x0(%esi)
  10067a:	08 00                	or     %al,(%eax)
  10067c:	00 8e 00 00 00 00    	add    %cl,0x0(%esi)
  100682:	08 00                	or     %al,(%eax)
  100684:	00 8e 00 00 00 00    	add    %cl,0x0(%esi)
  10068a:	08 00                	or     %al,(%eax)
  10068c:	00 8e 00 00 00 00    	add    %cl,0x0(%esi)
  100692:	08 00                	or     %al,(%eax)
  100694:	00 8e 00 00 00 00    	add    %cl,0x0(%esi)
  10069a:	08 00                	or     %al,(%eax)
  10069c:	00 8e 00 00 00 00    	add    %cl,0x0(%esi)
  1006a2:	08 00                	or     %al,(%eax)
  1006a4:	00 8e 00 00 00 00    	add    %cl,0x0(%esi)
  1006aa:	08 00                	or     %al,(%eax)
  1006ac:	00 8e 00 00 00 00    	add    %cl,0x0(%esi)
  1006b2:	08 00                	or     %al,(%eax)
  1006b4:	00 8e 00 00 00 00    	add    %cl,0x0(%esi)
  1006ba:	08 00                	or     %al,(%eax)
  1006bc:	00 8e 00 00 00 00    	add    %cl,0x0(%esi)
  1006c2:	08 00                	or     %al,(%eax)
  1006c4:	00 8e 00 00 00 00    	add    %cl,0x0(%esi)
  1006ca:	08 00                	or     %al,(%eax)
  1006cc:	00 8e 00 00 00 00    	add    %cl,0x0(%esi)
  1006d2:	08 00                	or     %al,(%eax)
  1006d4:	00 8e 00 00 00 00    	add    %cl,0x0(%esi)
  1006da:	08 00                	or     %al,(%eax)
  1006dc:	00 8e 00 00 00 00    	add    %cl,0x0(%esi)
  1006e2:	08 00                	or     %al,(%eax)
  1006e4:	00 8e 00 00 00 00    	add    %cl,0x0(%esi)
  1006ea:	08 00                	or     %al,(%eax)
  1006ec:	00 8e 00 00 00 00    	add    %cl,0x0(%esi)
  1006f2:	08 00                	or     %al,(%eax)
  1006f4:	00 8e 00 00 00 00    	add    %cl,0x0(%esi)
  1006fa:	08 00                	or     %al,(%eax)
  1006fc:	00 8e 00 00 00 00    	add    %cl,0x0(%esi)
  100702:	08 00                	or     %al,(%eax)
  100704:	00 8e 00 00 00 00    	add    %cl,0x0(%esi)
  10070a:	08 00                	or     %al,(%eax)
  10070c:	00 8e 00 00 00 00    	add    %cl,0x0(%esi)
  100712:	08 00                	or     %al,(%eax)
  100714:	00 8e 00 00 00 00    	add    %cl,0x0(%esi)
  10071a:	08 00                	or     %al,(%eax)
  10071c:	00 8e 00 00 00 00    	add    %cl,0x0(%esi)
  100722:	08 00                	or     %al,(%eax)
  100724:	00 8e 00 00 00 00    	add    %cl,0x0(%esi)
  10072a:	08 00                	or     %al,(%eax)
  10072c:	00 8e 00 00 00 00    	add    %cl,0x0(%esi)
  100732:	08 00                	or     %al,(%eax)
  100734:	00 8e 00 00 00 00    	add    %cl,0x0(%esi)
  10073a:	08 00                	or     %al,(%eax)
  10073c:	00 8e 00 00 00 00    	add    %cl,0x0(%esi)
  100742:	08 00                	or     %al,(%eax)
  100744:	00 8e 00 00 00 00    	add    %cl,0x0(%esi)
  10074a:	08 00                	or     %al,(%eax)
  10074c:	00 8e 00 00 00 00    	add    %cl,0x0(%esi)
  100752:	08 00                	or     %al,(%eax)
  100754:	00 8e 00 00 00 00    	add    %cl,0x0(%esi)
  10075a:	08 00                	or     %al,(%eax)
  10075c:	00 8e 00 00 00 00    	add    %cl,0x0(%esi)
  100762:	08 00                	or     %al,(%eax)
  100764:	00 8e 00 00 00 00    	add    %cl,0x0(%esi)
  10076a:	08 00                	or     %al,(%eax)
  10076c:	00 8e 00 00 00 00    	add    %cl,0x0(%esi)
  100772:	08 00                	or     %al,(%eax)
  100774:	00 8e 00 00 00 00    	add    %cl,0x0(%esi)
  10077a:	08 00                	or     %al,(%eax)
  10077c:	00 8e 00 00 00 00    	add    %cl,0x0(%esi)
  100782:	08 00                	or     %al,(%eax)
  100784:	00 8e 00 00 00 00    	add    %cl,0x0(%esi)
  10078a:	08 00                	or     %al,(%eax)
  10078c:	00 8e 00 00 00 00    	add    %cl,0x0(%esi)
  100792:	08 00                	or     %al,(%eax)
  100794:	00 8e 00 00 00 00    	add    %cl,0x0(%esi)
  10079a:	08 00                	or     %al,(%eax)
  10079c:	00 8e 00 00 00 00    	add    %cl,0x0(%esi)
  1007a2:	08 00                	or     %al,(%eax)
  1007a4:	00 8e 00 00 00 00    	add    %cl,0x0(%esi)
  1007aa:	08 00                	or     %al,(%eax)
  1007ac:	00 8e 00 00 00 00    	add    %cl,0x0(%esi)
  1007b2:	08 00                	or     %al,(%eax)
  1007b4:	00 8e 00 00 00 00    	add    %cl,0x0(%esi)
  1007ba:	08 00                	or     %al,(%eax)
  1007bc:	00 8e 00 00 00 00    	add    %cl,0x0(%esi)
  1007c2:	08 00                	or     %al,(%eax)
  1007c4:	00 8e 00 00 00 00    	add    %cl,0x0(%esi)
  1007ca:	08 00                	or     %al,(%eax)
  1007cc:	00 8e 00 00 00 00    	add    %cl,0x0(%esi)
  1007d2:	08 00                	or     %al,(%eax)
  1007d4:	00 8e 00 00 00 00    	add    %cl,0x0(%esi)
  1007da:	08 00                	or     %al,(%eax)
  1007dc:	00 8e 00 00 00 00    	add    %cl,0x0(%esi)
  1007e2:	08 00                	or     %al,(%eax)
  1007e4:	00 8e 00 00 00 00    	add    %cl,0x0(%esi)
  1007ea:	08 00                	or     %al,(%eax)
  1007ec:	00 8e 00 00 00 00    	add    %cl,0x0(%esi)
  1007f2:	08 00                	or     %al,(%eax)
  1007f4:	00 8e 00 00 00 00    	add    %cl,0x0(%esi)
  1007fa:	08 00                	or     %al,(%eax)
  1007fc:	00 8e 00 00 00 00    	add    %cl,0x0(%esi)
  100802:	08 00                	or     %al,(%eax)
  100804:	00 8e 00 00 00 00    	add    %cl,0x0(%esi)
  10080a:	08 00                	or     %al,(%eax)
  10080c:	00 8e 00 00 00 00    	add    %cl,0x0(%esi)
  100812:	08 00                	or     %al,(%eax)
  100814:	00 8e 00 00 00 00    	add    %cl,0x0(%esi)
  10081a:	08 00                	or     %al,(%eax)
  10081c:	00 8e 00 00 00 00    	add    %cl,0x0(%esi)
  100822:	08 00                	or     %al,(%eax)
  100824:	00 8e 00 00 00 00    	add    %cl,0x0(%esi)
  10082a:	08 00                	or     %al,(%eax)
  10082c:	00 8e 00 00 00 00    	add    %cl,0x0(%esi)
  100832:	08 00                	or     %al,(%eax)
  100834:	00 8e 00 00 00 00    	add    %cl,0x0(%esi)
  10083a:	08 00                	or     %al,(%eax)
  10083c:	00 8e 00 00 00 00    	add    %cl,0x0(%esi)
  100842:	08 00                	or     %al,(%eax)
  100844:	00 8e 00 00 00 00    	add    %cl,0x0(%esi)
  10084a:	08 00                	or     %al,(%eax)
  10084c:	00 8e 00 00 00 00    	add    %cl,0x0(%esi)
  100852:	08 00                	or     %al,(%eax)
  100854:	00 8e 00 00 00 00    	add    %cl,0x0(%esi)
  10085a:	08 00                	or     %al,(%eax)
  10085c:	00 8e 00 00 00 00    	add    %cl,0x0(%esi)
  100862:	08 00                	or     %al,(%eax)
  100864:	00 8e 00 00 00 00    	add    %cl,0x0(%esi)
  10086a:	08 00                	or     %al,(%eax)
  10086c:	00 8e 00 00 00 00    	add    %cl,0x0(%esi)
  100872:	08 00                	or     %al,(%eax)
  100874:	00 8e 00 00 00 00    	add    %cl,0x0(%esi)
  10087a:	08 00                	or     %al,(%eax)
  10087c:	00 8e 00 00 00 08    	add    %cl,0x8000000(%esi)

00100880 <idt_ptr>:
  100880:	00 08                	add    %cl,(%eax)
  100882:	80 00 10             	addb   $0x10,(%eax)
  100885:	00 90 90 90 90 90    	add    %dl,-0x6f6f6f70(%eax)
  10088b:	90                   	nop
  10088c:	90                   	nop
  10088d:	90                   	nop
  10088e:	90                   	nop
  10088f:	90                   	nop
  100890:	90                   	nop
  100891:	90                   	nop
  100892:	90                   	nop
  100893:	90                   	nop
  100894:	90                   	nop
  100895:	90                   	nop
  100896:	90                   	nop
  100897:	90                   	nop
  100898:	90                   	nop
  100899:	90                   	nop
  10089a:	90                   	nop
  10089b:	90                   	nop
  10089c:	90                   	nop
  10089d:	90                   	nop
  10089e:	90                   	nop
  10089f:	90                   	nop
  1008a0:	90                   	nop
  1008a1:	90                   	nop
  1008a2:	90                   	nop
  1008a3:	90                   	nop
  1008a4:	90                   	nop
  1008a5:	90                   	nop
  1008a6:	90                   	nop
  1008a7:	90                   	nop
  1008a8:	90                   	nop
  1008a9:	90                   	nop
  1008aa:	90                   	nop
  1008ab:	90                   	nop
  1008ac:	90                   	nop
  1008ad:	90                   	nop
  1008ae:	90                   	nop
  1008af:	90                   	nop
  1008b0:	90                   	nop
  1008b1:	90                   	nop
  1008b2:	90                   	nop
  1008b3:	90                   	nop
  1008b4:	90                   	nop
  1008b5:	90                   	nop
  1008b6:	90                   	nop
  1008b7:	90                   	nop
  1008b8:	90                   	nop
  1008b9:	90                   	nop
  1008ba:	90                   	nop
  1008bb:	90                   	nop
  1008bc:	90                   	nop
  1008bd:	90                   	nop
  1008be:	90                   	nop
  1008bf:	90                   	nop

001008c0 <gdt>:
	...
  1008c8:	ff                   	(bad)  
  1008c9:	ff 00                	incl   (%eax)
  1008cb:	00 00                	add    %al,(%eax)
  1008cd:	9a c0 00 ff ff 00 00 	lcall  $0x0,$0xffff00c0
  1008d4:	00 92 c0 00 ff ff    	add    %dl,-0xff40(%edx)
  1008da:	00 80 0b f2 c0 00    	add    %al,0xc0f20b(%eax)

001008e0 <ldt0_seg>:
  1008e0:	ff                   	(bad)  
  1008e1:	ff 00                	incl   (%eax)
  1008e3:	00 00                	add    %al,(%eax)
  1008e5:	e2 00                	loop   1008e7 <ldt0_seg+0x7>
	...

001008e8 <tss0_seg>:
  1008e8:	67 00 00             	add    %al,(%bx,%si)
  1008eb:	00 00                	add    %al,(%eax)
  1008ed:	e9 00 00 ff ff       	jmp    f08f2 <gdt_len+0xf00e2>

001008f0 <ldt1_seg>:
  1008f0:	ff                   	(bad)  
  1008f1:	ff 00                	incl   (%eax)
  1008f3:	00 00                	add    %al,(%eax)
  1008f5:	e2 00                	loop   1008f7 <ldt1_seg+0x7>
	...

001008f8 <tss1_seg>:
  1008f8:	67 00 00             	add    %al,(%bx,%si)
  1008fb:	00 00                	add    %al,(%eax)
  1008fd:	e9 00 00 00 00       	jmp    100902 <tss1_seg+0xa>
	...

001010d0 <gdt_ptr>:
  1010d0:	0f 08                	invd   
  1010d2:	c0 08 10             	rorb   $0x10,(%eax)
	...

001020d6 <task0_user_stack>:
	...

001030d6 <kernel_stack>:
  1030d6:	90                   	nop
  1030d7:	90                   	nop
  1030d8:	90                   	nop
  1030d9:	90                   	nop
  1030da:	90                   	nop
  1030db:	90                   	nop
  1030dc:	90                   	nop
  1030dd:	90                   	nop
  1030de:	90                   	nop
  1030df:	90                   	nop
  1030e0:	90                   	nop
  1030e1:	90                   	nop
  1030e2:	90                   	nop
  1030e3:	90                   	nop
  1030e4:	90                   	nop
  1030e5:	90                   	nop
  1030e6:	90                   	nop
  1030e7:	90                   	nop
  1030e8:	90                   	nop
  1030e9:	90                   	nop
  1030ea:	90                   	nop
  1030eb:	90                   	nop
  1030ec:	90                   	nop
  1030ed:	90                   	nop
  1030ee:	90                   	nop
  1030ef:	90                   	nop
  1030f0:	90                   	nop
  1030f1:	90                   	nop
  1030f2:	90                   	nop
  1030f3:	90                   	nop
  1030f4:	90                   	nop
  1030f5:	90                   	nop
  1030f6:	90                   	nop
  1030f7:	90                   	nop
  1030f8:	90                   	nop
  1030f9:	90                   	nop
  1030fa:	90                   	nop
  1030fb:	90                   	nop
  1030fc:	90                   	nop
  1030fd:	90                   	nop
  1030fe:	90                   	nop
  1030ff:	90                   	nop

00103100 <ldt0>:
	...
  103108:	ff 03                	incl   (%ebx)
  10310a:	00 00                	add    %al,(%eax)
  10310c:	00 fa                	add    %bh,%dl
  10310e:	c0 00 ff             	rolb   $0xff,(%eax)
  103111:	03 00                	add    (%eax),%eax
  103113:	00 00                	add    %al,(%eax)
  103115:	f2 c0 00 00          	repnz rolb $0x0,(%eax)

00103118 <tss0>:
  103118:	00 00                	add    %al,(%eax)
  10311a:	00 00                	add    %al,(%eax)
  10311c:	80 33 10             	xorb   $0x10,(%ebx)
  10311f:	00 10                	add    %dl,(%eax)
	...
  103135:	00 fe                	add    %bh,%dh
  103137:	01 00                	add    %eax,(%eax)
	...
  10315d:	00 00                	add    %al,(%eax)
  10315f:	00 17                	add    %dl,(%edi)
  103161:	00 00                	add    %al,(%eax)
  103163:	00 0f                	add    %cl,(%edi)
  103165:	00 00                	add    %al,(%eax)
  103167:	00 17                	add    %dl,(%edi)
  103169:	00 00                	add    %al,(%eax)
  10316b:	00 17                	add    %dl,(%edi)
  10316d:	00 00                	add    %al,(%eax)
  10316f:	00 17                	add    %dl,(%edi)
  103171:	00 00                	add    %al,(%eax)
  103173:	00 18                	add    %bl,(%eax)
  103175:	00 00                	add    %al,(%eax)
  103177:	00 20                	add    %ah,(%eax)
  103179:	00 00                	add    %al,(%eax)
  10317b:	00 00                	add    %al,(%eax)
  10317d:	00 00                	add    %al,(%eax)
  10317f:	08 00                	or     %al,(%eax)

00103180 <stack_0>:
	...

00103380 <ldt1>:
	...
  103388:	ff 03                	incl   (%ebx)
  10338a:	00 00                	add    %al,(%eax)
  10338c:	00 fa                	add    %bh,%dl
  10338e:	c0 00 ff             	rolb   $0xff,(%eax)
  103391:	03 00                	add    (%eax),%eax
  103393:	00 00                	add    %al,(%eax)
  103395:	f2 c0 00 00          	repnz rolb $0x0,(%eax)

00103398 <tss1>:
  103398:	00 00                	add    %al,(%eax)
  10339a:	00 00                	add    %al,(%eax)
  10339c:	00 36                	add    %dh,(%esi)
  10339e:	10 00                	adc    %al,(%eax)
  1033a0:	10 00                	adc    %al,(%eax)
	...
  1033b6:	fe 01                	incb   (%ecx)
  1033b8:	80 43 10 00          	addb   $0x0,0x10(%ebx)
  1033bc:	00 02                	add    %al,(%edx)
	...
  1033ce:	00 00                	add    %al,(%eax)
  1033d0:	00 38                	add    %bh,(%eax)
  1033d2:	10 00                	adc    %al,(%eax)
	...
  1033e0:	17                   	pop    %ss
  1033e1:	00 00                	add    %al,(%eax)
  1033e3:	00 0f                	add    %cl,(%edi)
  1033e5:	00 00                	add    %al,(%eax)
  1033e7:	00 17                	add    %dl,(%edi)
  1033e9:	00 00                	add    %al,(%eax)
  1033eb:	00 17                	add    %dl,(%edi)
  1033ed:	00 00                	add    %al,(%eax)
  1033ef:	00 17                	add    %dl,(%edi)
  1033f1:	00 00                	add    %al,(%eax)
  1033f3:	00 18                	add    %bl,(%eax)
  1033f5:	00 00                	add    %al,(%eax)
  1033f7:	00 30                	add    %dh,(%eax)
  1033f9:	00 00                	add    %al,(%eax)
  1033fb:	00 00                	add    %al,(%eax)
  1033fd:	00 00                	add    %al,(%eax)
  1033ff:	08 00                	or     %al,(%eax)

00103400 <stack_1>:
	...

00103600 <task1_kernel_stack>:
	...

00103800 <current>:
  103800:	00 00                	add    %al,(%eax)
	...

00103804 <scr_loc>:
  103804:	00 00                	add    %al,(%eax)
	...

00103808 <enable_tss>:
  103808:	8b 3d d2 10 10 00    	mov    0x1010d2,%edi
  10380e:	8d 7c 07 05          	lea    0x5(%edi,%eax,1),%edi
  103812:	80 27 fd             	andb   $0xfd,(%edi)
  103815:	c3                   	ret    

00103816 <memcpy>:
  103816:	55                   	push   %ebp
  103817:	89 e5                	mov    %esp,%ebp
  103819:	8b 45 08             	mov    0x8(%ebp),%eax
  10381c:	8b 5d 0c             	mov    0xc(%ebp),%ebx
  10381f:	8b 4d 10             	mov    0x10(%ebp),%ecx
  103822:	83 f9 00             	cmp    $0x0,%ecx
  103825:	74 08                	je     10382f <nothing_copy>

00103827 <loop_copy>:
  103827:	8a 13                	mov    (%ebx),%dl
  103829:	88 10                	mov    %dl,(%eax)
  10382b:	43                   	inc    %ebx
  10382c:	40                   	inc    %eax
  10382d:	e2 f8                	loop   103827 <loop_copy>

0010382f <nothing_copy>:
  10382f:	8b 45 08             	mov    0x8(%ebp),%eax
  103832:	5d                   	pop    %ebp
  103833:	c3                   	ret    

00103834 <memset>:
  103834:	55                   	push   %ebp
  103835:	89 e5                	mov    %esp,%ebp
  103837:	60                   	pusha  
  103838:	8b 7d 08             	mov    0x8(%ebp),%edi
  10383b:	8b 45 0c             	mov    0xc(%ebp),%eax
  10383e:	8b 4d 10             	mov    0x10(%ebp),%ecx
  103841:	83 f9 00             	cmp    $0x0,%ecx
  103844:	74 05                	je     10384b <memset_size_zero>

00103846 <memset_loop>:
  103846:	88 07                	mov    %al,(%edi)
  103848:	47                   	inc    %edi
  103849:	e2 fb                	loop   103846 <memset_loop>

0010384b <memset_size_zero>:
  10384b:	8b 45 08             	mov    0x8(%ebp),%eax
  10384e:	61                   	popa   
  10384f:	55                   	push   %ebp
  103850:	c3                   	ret    

00103851 <Init8259A>:
  103851:	b0 36                	mov    $0x36,%al
  103853:	66 ba 43 00          	mov    $0x43,%dx
  103857:	ee                   	out    %al,(%dx)
  103858:	b8 9a 2e 00 00       	mov    $0x2e9a,%eax
  10385d:	ba 40 00 00 00       	mov    $0x40,%edx
  103862:	ee                   	out    %al,(%dx)
  103863:	88 e0                	mov    %ah,%al
  103865:	ee                   	out    %al,(%dx)
  103866:	b0 11                	mov    $0x11,%al
  103868:	e6 20                	out    %al,$0x20
  10386a:	e6 a0                	out    %al,$0xa0
  10386c:	b0 20                	mov    $0x20,%al
  10386e:	e6 21                	out    %al,$0x21
  103870:	b0 28                	mov    $0x28,%al
  103872:	e6 a1                	out    %al,$0xa1
  103874:	b0 04                	mov    $0x4,%al
  103876:	e6 21                	out    %al,$0x21
  103878:	b0 02                	mov    $0x2,%al
  10387a:	e6 a1                	out    %al,$0xa1
  10387c:	b0 01                	mov    $0x1,%al
  10387e:	e6 21                	out    %al,$0x21
  103880:	e6 a1                	out    %al,$0xa1
  103882:	c3                   	ret    

00103883 <print_str>:
  103883:	55                   	push   %ebp
  103884:	89 e5                	mov    %esp,%ebp
  103886:	60                   	pusha  
  103887:	8b 75 08             	mov    0x8(%ebp),%esi
  10388a:	8b 4d 0c             	mov    0xc(%ebp),%ecx
  10388d:	8b 55 10             	mov    0x10(%ebp),%edx
  103890:	01 d2                	add    %edx,%edx
  103892:	b4 0c                	mov    $0xc,%ah

00103894 <loop_show>:
  103894:	8a 06                	mov    (%esi),%al
  103896:	65 66 89 02          	mov    %ax,%gs:(%edx)
  10389a:	83 c2 02             	add    $0x2,%edx
  10389d:	83 c6 01             	add    $0x1,%esi
  1038a0:	e2 f2                	loop   103894 <loop_show>
  1038a2:	61                   	popa   
  1038a3:	5d                   	pop    %ebp
  1038a4:	c3                   	ret    

001038a5 <clear>:
  1038a5:	66 b8 00 06          	mov    $0x600,%ax
  1038a9:	b7 07                	mov    $0x7,%bh
  1038ab:	66 b9 00 00          	mov    $0x0,%cx
  1038af:	66 ba 4f 18          	mov    $0x184f,%dx
  1038b3:	cd 10                	int    $0x10
  1038b5:	c3                   	ret    

001038b6 <print_str_stack>:
  1038b6:	55                   	push   %ebp
  1038b7:	89 e5                	mov    %esp,%ebp
  1038b9:	60                   	pusha  
  1038ba:	8b 75 08             	mov    0x8(%ebp),%esi
  1038bd:	8b 4d 0c             	mov    0xc(%ebp),%ecx
  1038c0:	8b 55 10             	mov    0x10(%ebp),%edx
  1038c3:	01 d2                	add    %edx,%edx
  1038c5:	b4 0c                	mov    $0xc,%ah

001038c7 <stack_loop_show>:
  1038c7:	36 8a 06             	mov    %ss:(%esi),%al
  1038ca:	65 66 89 02          	mov    %ax,%gs:(%edx)
  1038ce:	83 c2 02             	add    $0x2,%edx
  1038d1:	83 c6 01             	add    $0x1,%esi
  1038d4:	e2 f1                	loop   1038c7 <stack_loop_show>
  1038d6:	61                   	popa   
  1038d7:	5d                   	pop    %ebp
  1038d8:	c3                   	ret    

001038d9 <stack_clear>:
  1038d9:	66 b8 00 06          	mov    $0x600,%ax
  1038dd:	b7 07                	mov    $0x7,%bh
  1038df:	66 b9 00 00          	mov    $0x0,%cx
  1038e3:	66 ba 4f 18          	mov    $0x184f,%dx
  1038e7:	cd 10                	int    $0x10
  1038e9:	c3                   	ret    

001038ea <error_code>:
	...

001038eb <asm_div_error>:
  1038eb:	60                   	pusha  
  1038ec:	06                   	push   %es
  1038ed:	0f a0                	push   %fs
  1038ef:	0f a8                	push   %gs
  1038f1:	e8 2e 03 00 00       	call   103c24 <do_div_error>
  1038f6:	0f a9                	pop    %gs
  1038f8:	0f a1                	pop    %fs
  1038fa:	07                   	pop    %es
  1038fb:	61                   	popa   
  1038fc:	cf                   	iret   
  1038fd:	cf                   	iret   

001038fe <asm_debug>:
  1038fe:	60                   	pusha  
  1038ff:	06                   	push   %es
  103900:	0f a0                	push   %fs
  103902:	0f a8                	push   %gs
  103904:	e8 70 03 00 00       	call   103c79 <do_debug>
  103909:	0f a9                	pop    %gs
  10390b:	0f a1                	pop    %fs
  10390d:	07                   	pop    %es
  10390e:	61                   	popa   
  10390f:	cf                   	iret   
  103910:	cf                   	iret   

00103911 <asm_mon>:
  103911:	cf                   	iret   

00103912 <asm_breakpoint>:
  103912:	60                   	pusha  
  103913:	06                   	push   %es
  103914:	0f a0                	push   %fs
  103916:	0f a8                	push   %gs
  103918:	e8 b1 03 00 00       	call   103cce <do_breakpoint>
  10391d:	0f a9                	pop    %gs
  10391f:	0f a1                	pop    %fs
  103921:	07                   	pop    %es
  103922:	61                   	popa   
  103923:	cf                   	iret   
  103924:	cf                   	iret   

00103925 <asm_overflow>:
  103925:	60                   	pusha  
  103926:	06                   	push   %es
  103927:	0f a0                	push   %fs
  103929:	0f a8                	push   %gs
  10392b:	e8 a3 03 00 00       	call   103cd3 <do_overflow>
  103930:	0f a9                	pop    %gs
  103932:	0f a1                	pop    %fs
  103934:	07                   	pop    %es
  103935:	61                   	popa   
  103936:	cf                   	iret   
  103937:	cf                   	iret   

00103938 <asm_overbound>:
  103938:	60                   	pusha  
  103939:	06                   	push   %es
  10393a:	0f a0                	push   %fs
  10393c:	0f a8                	push   %gs
  10393e:	e8 e5 03 00 00       	call   103d28 <do_overbound>
  103943:	0f a9                	pop    %gs
  103945:	0f a1                	pop    %fs
  103947:	07                   	pop    %es
  103948:	61                   	popa   
  103949:	cf                   	iret   
  10394a:	cf                   	iret   

0010394b <asm_undefine>:
  10394b:	60                   	pusha  
  10394c:	06                   	push   %es
  10394d:	0f a0                	push   %fs
  10394f:	0f a8                	push   %gs
  103951:	e8 27 04 00 00       	call   103d7d <do_undefine>
  103956:	0f a9                	pop    %gs
  103958:	0f a1                	pop    %fs
  10395a:	07                   	pop    %es
  10395b:	61                   	popa   
  10395c:	cf                   	iret   
  10395d:	cf                   	iret   

0010395e <asm_nm>:
  10395e:	60                   	pusha  
  10395f:	06                   	push   %es
  103960:	0f a0                	push   %fs
  103962:	0f a8                	push   %gs
  103964:	e8 69 04 00 00       	call   103dd2 <do_nm>
  103969:	0f a9                	pop    %gs
  10396b:	0f a1                	pop    %fs
  10396d:	07                   	pop    %es
  10396e:	61                   	popa   
  10396f:	cf                   	iret   
  103970:	cf                   	iret   

00103971 <asm_doublefault>:
  103971:	8f 05 ea 38 10 00    	popl   0x1038ea
  103977:	60                   	pusha  
  103978:	06                   	push   %es
  103979:	0f a0                	push   %fs
  10397b:	0f a8                	push   %gs
  10397d:	ff 35 ea 38 10 00    	pushl  0x1038ea
  103983:	e8 9f 04 00 00       	call   103e27 <do_doublefault>
  103988:	8f 05 ea 38 10 00    	popl   0x1038ea
  10398e:	0f a9                	pop    %gs
  103990:	0f a1                	pop    %fs
  103992:	07                   	pop    %es
  103993:	61                   	popa   
  103994:	cf                   	iret   
  103995:	cf                   	iret   

00103996 <asm_cop>:
  103996:	60                   	pusha  
  103997:	06                   	push   %es
  103998:	0f a0                	push   %fs
  10399a:	0f a8                	push   %gs
  10399c:	e8 db 04 00 00       	call   103e7c <do_cop>
  1039a1:	0f a9                	pop    %gs
  1039a3:	0f a1                	pop    %fs
  1039a5:	07                   	pop    %es
  1039a6:	61                   	popa   
  1039a7:	cf                   	iret   
  1039a8:	cf                   	iret   

001039a9 <asm_tss>:
  1039a9:	8f 05 ea 38 10 00    	popl   0x1038ea
  1039af:	60                   	pusha  
  1039b0:	06                   	push   %es
  1039b1:	0f a0                	push   %fs
  1039b3:	0f a8                	push   %gs
  1039b5:	ff 35 ea 38 10 00    	pushl  0x1038ea
  1039bb:	e8 11 05 00 00       	call   103ed1 <do_tss>
  1039c0:	8f 05 ea 38 10 00    	popl   0x1038ea
  1039c6:	0f a9                	pop    %gs
  1039c8:	0f a1                	pop    %fs
  1039ca:	07                   	pop    %es
  1039cb:	61                   	popa   
  1039cc:	cf                   	iret   
  1039cd:	cf                   	iret   

001039ce <asm_seg_fault>:
  1039ce:	8f 05 ea 38 10 00    	popl   0x1038ea
  1039d4:	60                   	pusha  
  1039d5:	06                   	push   %es
  1039d6:	0f a0                	push   %fs
  1039d8:	0f a8                	push   %gs
  1039da:	ff 35 ea 38 10 00    	pushl  0x1038ea
  1039e0:	e8 41 05 00 00       	call   103f26 <do_seg_fault>
  1039e5:	8f 05 ea 38 10 00    	popl   0x1038ea
  1039eb:	0f a9                	pop    %gs
  1039ed:	0f a1                	pop    %fs
  1039ef:	07                   	pop    %es
  1039f0:	61                   	popa   
  1039f1:	cf                   	iret   
  1039f2:	cf                   	iret   

001039f3 <asm_stack_fault>:
  1039f3:	8f 05 ea 38 10 00    	popl   0x1038ea
  1039f9:	60                   	pusha  
  1039fa:	06                   	push   %es
  1039fb:	0f a0                	push   %fs
  1039fd:	0f a8                	push   %gs
  1039ff:	ff 35 ea 38 10 00    	pushl  0x1038ea
  103a05:	e8 71 05 00 00       	call   103f7b <do_stack_fault>
  103a0a:	8f 05 ea 38 10 00    	popl   0x1038ea
  103a10:	0f a9                	pop    %gs
  103a12:	0f a1                	pop    %fs
  103a14:	07                   	pop    %es
  103a15:	61                   	popa   
  103a16:	cf                   	iret   
  103a17:	cf                   	iret   

00103a18 <asm_general_protect>:
  103a18:	8f 05 ea 38 10 00    	popl   0x1038ea
  103a1e:	60                   	pusha  
  103a1f:	06                   	push   %es
  103a20:	0f a0                	push   %fs
  103a22:	0f a8                	push   %gs
  103a24:	ff 35 ea 38 10 00    	pushl  0x1038ea
  103a2a:	e8 a1 05 00 00       	call   103fd0 <do_general_protect>
  103a2f:	8f 05 ea 38 10 00    	popl   0x1038ea
  103a35:	0f a9                	pop    %gs
  103a37:	0f a1                	pop    %fs
  103a39:	07                   	pop    %es
  103a3a:	61                   	popa   
  103a3b:	cf                   	iret   
  103a3c:	cf                   	iret   

00103a3d <asm_page_fault>:
  103a3d:	8f 05 ea 38 10 00    	popl   0x1038ea
  103a43:	60                   	pusha  
  103a44:	06                   	push   %es
  103a45:	0f a0                	push   %fs
  103a47:	0f a8                	push   %gs
  103a49:	ff 35 ea 38 10 00    	pushl  0x1038ea
  103a4f:	e8 9a 0d 00 00       	call   1047ee <do_page_fault>
  103a54:	8f 05 ea 38 10 00    	popl   0x1038ea
  103a5a:	0f a9                	pop    %gs
  103a5c:	0f a1                	pop    %fs
  103a5e:	07                   	pop    %es
  103a5f:	61                   	popa   
  103a60:	cf                   	iret   
  103a61:	cf                   	iret   

00103a62 <asm_reserve>:
  103a62:	cf                   	iret   

00103a63 <asm_fpu_error>:
  103a63:	60                   	pusha  
  103a64:	06                   	push   %es
  103a65:	0f a0                	push   %fs
  103a67:	0f a8                	push   %gs
  103a69:	e8 b7 05 00 00       	call   104025 <do_fpu_error>
  103a6e:	0f a9                	pop    %gs
  103a70:	0f a1                	pop    %fs
  103a72:	07                   	pop    %es
  103a73:	61                   	popa   
  103a74:	cf                   	iret   
  103a75:	cf                   	iret   

00103a76 <asm_align_check>:
  103a76:	8f 05 ea 38 10 00    	popl   0x1038ea
  103a7c:	60                   	pusha  
  103a7d:	06                   	push   %es
  103a7e:	0f a0                	push   %fs
  103a80:	0f a8                	push   %gs
  103a82:	ff 35 ea 38 10 00    	pushl  0x1038ea
  103a88:	e8 ed 05 00 00       	call   10407a <do_align_check>
  103a8d:	8f 05 ea 38 10 00    	popl   0x1038ea
  103a93:	0f a9                	pop    %gs
  103a95:	0f a1                	pop    %fs
  103a97:	07                   	pop    %es
  103a98:	61                   	popa   
  103a99:	cf                   	iret   
  103a9a:	cf                   	iret   

00103a9b <asm_machine_check>:
  103a9b:	60                   	pusha  
  103a9c:	06                   	push   %es
  103a9d:	0f a0                	push   %fs
  103a9f:	0f a8                	push   %gs
  103aa1:	e8 29 06 00 00       	call   1040cf <do_machine_check>
  103aa6:	0f a9                	pop    %gs
  103aa8:	0f a1                	pop    %fs
  103aaa:	07                   	pop    %es
  103aab:	61                   	popa   
  103aac:	cf                   	iret   
  103aad:	cf                   	iret   

00103aae <asm_simd_fault>:
  103aae:	60                   	pusha  
  103aaf:	06                   	push   %es
  103ab0:	0f a0                	push   %fs
  103ab2:	0f a8                	push   %gs
  103ab4:	e8 6b 06 00 00       	call   104124 <do_simd_fault>
  103ab9:	0f a9                	pop    %gs
  103abb:	0f a1                	pop    %fs
  103abd:	07                   	pop    %es
  103abe:	61                   	popa   
  103abf:	cf                   	iret   
  103ac0:	cf                   	iret   

00103ac1 <asm_general_handler>:
  103ac1:	cf                   	iret   

00103ac2 <asm_int_timer>:
  103ac2:	1e                   	push   %ds
  103ac3:	60                   	pusha  
  103ac4:	b8 10 00 00 00       	mov    $0x10,%eax
  103ac9:	8e d8                	mov    %eax,%ds
  103acb:	b0 20                	mov    $0x20,%al
  103acd:	e6 20                	out    %al,$0x20
  103acf:	e8 a5 06 00 00       	call   104179 <do_int_timer>
  103ad4:	61                   	popa   
  103ad5:	1f                   	pop    %ds
  103ad6:	cf                   	iret   

00103ad7 <asm_int_keyboard>:
  103ad7:	fa                   	cli    
  103ad8:	60                   	pusha  
  103ad9:	e8 8a 19 00 00       	call   105468 <do_int_keyboard>
  103ade:	61                   	popa   
  103adf:	b0 20                	mov    $0x20,%al
  103ae1:	e6 20                	out    %al,$0x20
  103ae3:	fb                   	sti    
  103ae4:	cf                   	iret   

00103ae5 <asm_int_hd>:
  103ae5:	e8 05 07 00 00       	call   1041ef <do_int_hd>
  103aea:	cf                   	iret   

00103aeb <asm_sys_call>:
  103aeb:	52                   	push   %edx
  103aec:	51                   	push   %ecx
  103aed:	53                   	push   %ebx
  103aee:	50                   	push   %eax
  103aef:	e8 8c 07 00 00       	call   104280 <sys_call>
  103af4:	58                   	pop    %eax
  103af5:	5b                   	pop    %ebx
  103af6:	59                   	pop    %ecx
  103af7:	5a                   	pop    %edx
  103af8:	cf                   	iret   
  103af9:	90                   	nop
  103afa:	90                   	nop
  103afb:	90                   	nop

00103afc <do_nom>:
  103afc:	55                   	push   %ebp
  103afd:	89 e5                	mov    %esp,%ebp
  103aff:	5d                   	pop    %ebp
  103b00:	c3                   	ret    

00103b01 <do_reserve>:
  103b01:	55                   	push   %ebp
  103b02:	89 e5                	mov    %esp,%ebp
  103b04:	5d                   	pop    %ebp
  103b05:	c3                   	ret    

00103b06 <init_idt>:
  103b06:	55                   	push   %ebp
  103b07:	89 e5                	mov    %esp,%ebp
  103b09:	56                   	push   %esi
  103b0a:	53                   	push   %ebx
  103b0b:	83 ec 10             	sub    $0x10,%esp
  103b0e:	b8 c2 3a 10 00       	mov    $0x103ac2,%eax
  103b13:	a3 20 6b 10 00       	mov    %eax,0x106b20
  103b18:	b8 d7 3a 10 00       	mov    $0x103ad7,%eax
  103b1d:	a3 24 6b 10 00       	mov    %eax,0x106b24
  103b22:	b8 e5 3a 10 00       	mov    $0x103ae5,%eax
  103b27:	a3 58 6b 10 00       	mov    %eax,0x106b58
  103b2c:	e8 20 fd ff ff       	call   103851 <Init8259A>
  103b31:	c7 45 f4 30 00 00 00 	movl   $0x30,-0xc(%ebp)
  103b38:	eb 13                	jmp    103b4d <init_idt+0x47>
  103b3a:	83 45 f4 01          	addl   $0x1,-0xc(%ebp)
  103b3e:	ba c1 3a 10 00       	mov    $0x103ac1,%edx
  103b43:	8b 45 f4             	mov    -0xc(%ebp),%eax
  103b46:	89 14 85 a0 6a 10 00 	mov    %edx,0x106aa0(,%eax,4)
  103b4d:	81 7d f4 fe 00 00 00 	cmpl   $0xfe,-0xc(%ebp)
  103b54:	7e e4                	jle    103b3a <init_idt+0x34>
  103b56:	c7 45 f4 00 00 00 00 	movl   $0x0,-0xc(%ebp)
  103b5d:	eb 3e                	jmp    103b9d <init_idt+0x97>
  103b5f:	8b 45 f4             	mov    -0xc(%ebp),%eax
  103b62:	c1 e0 03             	shl    $0x3,%eax
  103b65:	8d b0 80 00 10 00    	lea    0x100080(%eax),%esi
  103b6b:	8b 45 f4             	mov    -0xc(%ebp),%eax
  103b6e:	8b 1c 85 a0 6a 10 00 	mov    0x106aa0(,%eax,4),%ebx
  103b75:	b9 08 00 00 00       	mov    $0x8,%ecx
  103b7a:	ba 00 8e 00 00       	mov    $0x8e00,%edx
  103b7f:	89 f0                	mov    %esi,%eax
  103b81:	66 89 18             	mov    %bx,(%eax)
  103b84:	83 c0 02             	add    $0x2,%eax
  103b87:	66 89 08             	mov    %cx,(%eax)
  103b8a:	83 c0 02             	add    $0x2,%eax
  103b8d:	66 89 10             	mov    %dx,(%eax)
  103b90:	83 c0 02             	add    $0x2,%eax
  103b93:	c1 eb 10             	shr    $0x10,%ebx
  103b96:	66 89 18             	mov    %bx,(%eax)
  103b99:	83 45 f4 01          	addl   $0x1,-0xc(%ebp)
  103b9d:	81 7d f4 ff 00 00 00 	cmpl   $0xff,-0xc(%ebp)
  103ba4:	7e b9                	jle    103b5f <init_idt+0x59>
  103ba6:	b8 80 00 10 00       	mov    $0x100080,%eax
  103bab:	83 c0 1d             	add    $0x1d,%eax
  103bae:	89 45 f0             	mov    %eax,-0x10(%ebp)
  103bb1:	8b 45 f0             	mov    -0x10(%ebp),%eax
  103bb4:	0f b6 00             	movzbl (%eax),%eax
  103bb7:	89 c2                	mov    %eax,%edx
  103bb9:	83 ca 60             	or     $0x60,%edx
  103bbc:	8b 45 f0             	mov    -0x10(%ebp),%eax
  103bbf:	88 10                	mov    %dl,(%eax)
  103bc1:	b8 80 00 10 00       	mov    $0x100080,%eax
  103bc6:	05 5d 05 00 00       	add    $0x55d,%eax
  103bcb:	89 45 ec             	mov    %eax,-0x14(%ebp)
  103bce:	8b 45 ec             	mov    -0x14(%ebp),%eax
  103bd1:	0f b6 00             	movzbl (%eax),%eax
  103bd4:	89 c2                	mov    %eax,%edx
  103bd6:	83 ca 60             	or     $0x60,%edx
  103bd9:	8b 45 ec             	mov    -0x14(%ebp),%eax
  103bdc:	88 10                	mov    %dl,(%eax)
  103bde:	b8 eb 3a 10 00       	mov    $0x103aeb,%eax
  103be3:	66 a3 d8 05 10 00    	mov    %ax,0x1005d8
  103be9:	b8 eb 3a 10 00       	mov    $0x103aeb,%eax
  103bee:	c1 e8 10             	shr    $0x10,%eax
  103bf1:	66 a3 de 05 10 00    	mov    %ax,0x1005de
  103bf7:	b8 80 08 10 00       	mov    $0x100880,%eax
  103bfc:	0f 01 18             	lidtl  (%eax)
  103bff:	ba 21 00 00 00       	mov    $0x21,%edx
  103c04:	b8 ff 00 00 00       	mov    $0xff,%eax
  103c09:	ee                   	out    %al,(%dx)
  103c0a:	90                   	nop
  103c0b:	90                   	nop
  103c0c:	90                   	nop
  103c0d:	90                   	nop
  103c0e:	ba a1 00 00 00       	mov    $0xa1,%edx
  103c13:	b8 ff 00 00 00       	mov    $0xff,%eax
  103c18:	ee                   	out    %al,(%dx)
  103c19:	90                   	nop
  103c1a:	90                   	nop
  103c1b:	90                   	nop
  103c1c:	90                   	nop
  103c1d:	83 c4 10             	add    $0x10,%esp
  103c20:	5b                   	pop    %ebx
  103c21:	5e                   	pop    %esi
  103c22:	5d                   	pop    %ebp
  103c23:	c3                   	ret    

00103c24 <do_div_error>:
  103c24:	55                   	push   %ebp
  103c25:	89 e5                	mov    %esp,%ebp
  103c27:	83 ec 10             	sub    $0x10,%esp
  103c2a:	c7 45 fc b4 58 10 00 	movl   $0x1058b4,-0x4(%ebp)
  103c31:	a1 28 75 10 00       	mov    0x107528,%eax
  103c36:	89 45 f8             	mov    %eax,-0x8(%ebp)
  103c39:	eb 25                	jmp    103c60 <do_div_error+0x3c>
  103c3b:	8b 45 fc             	mov    -0x4(%ebp),%eax
  103c3e:	0f b6 00             	movzbl (%eax),%eax
  103c41:	66 98                	cbtw   
  103c43:	80 cc 0c             	or     $0xc,%ah
  103c46:	66 89 45 f6          	mov    %ax,-0xa(%ebp)
  103c4a:	8b 45 f8             	mov    -0x8(%ebp),%eax
  103c4d:	8d 14 00             	lea    (%eax,%eax,1),%edx
  103c50:	0f b7 45 f6          	movzwl -0xa(%ebp),%eax
  103c54:	65 66 89 02          	mov    %ax,%gs:(%edx)
  103c58:	83 45 fc 01          	addl   $0x1,-0x4(%ebp)
  103c5c:	83 45 f8 01          	addl   $0x1,-0x8(%ebp)
  103c60:	8b 45 fc             	mov    -0x4(%ebp),%eax
  103c63:	0f b6 00             	movzbl (%eax),%eax
  103c66:	84 c0                	test   %al,%al
  103c68:	75 d1                	jne    103c3b <do_div_error+0x17>
  103c6a:	a1 28 75 10 00       	mov    0x107528,%eax
  103c6f:	83 c0 14             	add    $0x14,%eax
  103c72:	a3 28 75 10 00       	mov    %eax,0x107528
  103c77:	c9                   	leave  
  103c78:	c3                   	ret    

00103c79 <do_debug>:
  103c79:	55                   	push   %ebp
  103c7a:	89 e5                	mov    %esp,%ebp
  103c7c:	83 ec 10             	sub    $0x10,%esp
  103c7f:	c7 45 fc c5 58 10 00 	movl   $0x1058c5,-0x4(%ebp)
  103c86:	a1 28 75 10 00       	mov    0x107528,%eax
  103c8b:	89 45 f8             	mov    %eax,-0x8(%ebp)
  103c8e:	eb 25                	jmp    103cb5 <do_debug+0x3c>
  103c90:	8b 45 fc             	mov    -0x4(%ebp),%eax
  103c93:	0f b6 00             	movzbl (%eax),%eax
  103c96:	66 98                	cbtw   
  103c98:	80 cc 0c             	or     $0xc,%ah
  103c9b:	66 89 45 f6          	mov    %ax,-0xa(%ebp)
  103c9f:	8b 45 f8             	mov    -0x8(%ebp),%eax
  103ca2:	8d 14 00             	lea    (%eax,%eax,1),%edx
  103ca5:	0f b7 45 f6          	movzwl -0xa(%ebp),%eax
  103ca9:	65 66 89 02          	mov    %ax,%gs:(%edx)
  103cad:	83 45 fc 01          	addl   $0x1,-0x4(%ebp)
  103cb1:	83 45 f8 01          	addl   $0x1,-0x8(%ebp)
  103cb5:	8b 45 fc             	mov    -0x4(%ebp),%eax
  103cb8:	0f b6 00             	movzbl (%eax),%eax
  103cbb:	84 c0                	test   %al,%al
  103cbd:	75 d1                	jne    103c90 <do_debug+0x17>
  103cbf:	a1 28 75 10 00       	mov    0x107528,%eax
  103cc4:	83 c0 14             	add    $0x14,%eax
  103cc7:	a3 28 75 10 00       	mov    %eax,0x107528
  103ccc:	c9                   	leave  
  103ccd:	c3                   	ret    

00103cce <do_breakpoint>:
  103cce:	55                   	push   %ebp
  103ccf:	89 e5                	mov    %esp,%ebp
  103cd1:	5d                   	pop    %ebp
  103cd2:	c3                   	ret    

00103cd3 <do_overflow>:
  103cd3:	55                   	push   %ebp
  103cd4:	89 e5                	mov    %esp,%ebp
  103cd6:	83 ec 10             	sub    $0x10,%esp
  103cd9:	c7 45 fc d4 58 10 00 	movl   $0x1058d4,-0x4(%ebp)
  103ce0:	a1 28 75 10 00       	mov    0x107528,%eax
  103ce5:	89 45 f8             	mov    %eax,-0x8(%ebp)
  103ce8:	eb 25                	jmp    103d0f <do_overflow+0x3c>
  103cea:	8b 45 fc             	mov    -0x4(%ebp),%eax
  103ced:	0f b6 00             	movzbl (%eax),%eax
  103cf0:	66 98                	cbtw   
  103cf2:	80 cc 0c             	or     $0xc,%ah
  103cf5:	66 89 45 f6          	mov    %ax,-0xa(%ebp)
  103cf9:	8b 45 f8             	mov    -0x8(%ebp),%eax
  103cfc:	8d 14 00             	lea    (%eax,%eax,1),%edx
  103cff:	0f b7 45 f6          	movzwl -0xa(%ebp),%eax
  103d03:	65 66 89 02          	mov    %ax,%gs:(%edx)
  103d07:	83 45 fc 01          	addl   $0x1,-0x4(%ebp)
  103d0b:	83 45 f8 01          	addl   $0x1,-0x8(%ebp)
  103d0f:	8b 45 fc             	mov    -0x4(%ebp),%eax
  103d12:	0f b6 00             	movzbl (%eax),%eax
  103d15:	84 c0                	test   %al,%al
  103d17:	75 d1                	jne    103cea <do_overflow+0x17>
  103d19:	a1 28 75 10 00       	mov    0x107528,%eax
  103d1e:	83 c0 14             	add    $0x14,%eax
  103d21:	a3 28 75 10 00       	mov    %eax,0x107528
  103d26:	c9                   	leave  
  103d27:	c3                   	ret    

00103d28 <do_overbound>:
  103d28:	55                   	push   %ebp
  103d29:	89 e5                	mov    %esp,%ebp
  103d2b:	83 ec 10             	sub    $0x10,%esp
  103d2e:	c7 45 fc e6 58 10 00 	movl   $0x1058e6,-0x4(%ebp)
  103d35:	a1 28 75 10 00       	mov    0x107528,%eax
  103d3a:	89 45 f8             	mov    %eax,-0x8(%ebp)
  103d3d:	eb 25                	jmp    103d64 <do_overbound+0x3c>
  103d3f:	8b 45 fc             	mov    -0x4(%ebp),%eax
  103d42:	0f b6 00             	movzbl (%eax),%eax
  103d45:	66 98                	cbtw   
  103d47:	80 cc 0c             	or     $0xc,%ah
  103d4a:	66 89 45 f6          	mov    %ax,-0xa(%ebp)
  103d4e:	8b 45 f8             	mov    -0x8(%ebp),%eax
  103d51:	8d 14 00             	lea    (%eax,%eax,1),%edx
  103d54:	0f b7 45 f6          	movzwl -0xa(%ebp),%eax
  103d58:	65 66 89 02          	mov    %ax,%gs:(%edx)
  103d5c:	83 45 fc 01          	addl   $0x1,-0x4(%ebp)
  103d60:	83 45 f8 01          	addl   $0x1,-0x8(%ebp)
  103d64:	8b 45 fc             	mov    -0x4(%ebp),%eax
  103d67:	0f b6 00             	movzbl (%eax),%eax
  103d6a:	84 c0                	test   %al,%al
  103d6c:	75 d1                	jne    103d3f <do_overbound+0x17>
  103d6e:	a1 28 75 10 00       	mov    0x107528,%eax
  103d73:	83 c0 14             	add    $0x14,%eax
  103d76:	a3 28 75 10 00       	mov    %eax,0x107528
  103d7b:	c9                   	leave  
  103d7c:	c3                   	ret    

00103d7d <do_undefine>:
  103d7d:	55                   	push   %ebp
  103d7e:	89 e5                	mov    %esp,%ebp
  103d80:	83 ec 10             	sub    $0x10,%esp
  103d83:	c7 45 fc f9 58 10 00 	movl   $0x1058f9,-0x4(%ebp)
  103d8a:	a1 28 75 10 00       	mov    0x107528,%eax
  103d8f:	89 45 f8             	mov    %eax,-0x8(%ebp)
  103d92:	eb 25                	jmp    103db9 <do_undefine+0x3c>
  103d94:	8b 45 fc             	mov    -0x4(%ebp),%eax
  103d97:	0f b6 00             	movzbl (%eax),%eax
  103d9a:	66 98                	cbtw   
  103d9c:	80 cc 0c             	or     $0xc,%ah
  103d9f:	66 89 45 f6          	mov    %ax,-0xa(%ebp)
  103da3:	8b 45 f8             	mov    -0x8(%ebp),%eax
  103da6:	8d 14 00             	lea    (%eax,%eax,1),%edx
  103da9:	0f b7 45 f6          	movzwl -0xa(%ebp),%eax
  103dad:	65 66 89 02          	mov    %ax,%gs:(%edx)
  103db1:	83 45 fc 01          	addl   $0x1,-0x4(%ebp)
  103db5:	83 45 f8 01          	addl   $0x1,-0x8(%ebp)
  103db9:	8b 45 fc             	mov    -0x4(%ebp),%eax
  103dbc:	0f b6 00             	movzbl (%eax),%eax
  103dbf:	84 c0                	test   %al,%al
  103dc1:	75 d1                	jne    103d94 <do_undefine+0x17>
  103dc3:	a1 28 75 10 00       	mov    0x107528,%eax
  103dc8:	83 c0 14             	add    $0x14,%eax
  103dcb:	a3 28 75 10 00       	mov    %eax,0x107528
  103dd0:	c9                   	leave  
  103dd1:	c3                   	ret    

00103dd2 <do_nm>:
  103dd2:	55                   	push   %ebp
  103dd3:	89 e5                	mov    %esp,%ebp
  103dd5:	83 ec 10             	sub    $0x10,%esp
  103dd8:	c7 45 fc 0b 59 10 00 	movl   $0x10590b,-0x4(%ebp)
  103ddf:	a1 28 75 10 00       	mov    0x107528,%eax
  103de4:	89 45 f8             	mov    %eax,-0x8(%ebp)
  103de7:	eb 25                	jmp    103e0e <do_nm+0x3c>
  103de9:	8b 45 fc             	mov    -0x4(%ebp),%eax
  103dec:	0f b6 00             	movzbl (%eax),%eax
  103def:	66 98                	cbtw   
  103df1:	80 cc 0c             	or     $0xc,%ah
  103df4:	66 89 45 f6          	mov    %ax,-0xa(%ebp)
  103df8:	8b 45 f8             	mov    -0x8(%ebp),%eax
  103dfb:	8d 14 00             	lea    (%eax,%eax,1),%edx
  103dfe:	0f b7 45 f6          	movzwl -0xa(%ebp),%eax
  103e02:	65 66 89 02          	mov    %ax,%gs:(%edx)
  103e06:	83 45 fc 01          	addl   $0x1,-0x4(%ebp)
  103e0a:	83 45 f8 01          	addl   $0x1,-0x8(%ebp)
  103e0e:	8b 45 fc             	mov    -0x4(%ebp),%eax
  103e11:	0f b6 00             	movzbl (%eax),%eax
  103e14:	84 c0                	test   %al,%al
  103e16:	75 d1                	jne    103de9 <do_nm+0x17>
  103e18:	a1 28 75 10 00       	mov    0x107528,%eax
  103e1d:	83 c0 14             	add    $0x14,%eax
  103e20:	a3 28 75 10 00       	mov    %eax,0x107528
  103e25:	c9                   	leave  
  103e26:	c3                   	ret    

00103e27 <do_doublefault>:
  103e27:	55                   	push   %ebp
  103e28:	89 e5                	mov    %esp,%ebp
  103e2a:	83 ec 10             	sub    $0x10,%esp
  103e2d:	c7 45 fc 17 59 10 00 	movl   $0x105917,-0x4(%ebp)
  103e34:	a1 28 75 10 00       	mov    0x107528,%eax
  103e39:	89 45 f8             	mov    %eax,-0x8(%ebp)
  103e3c:	eb 25                	jmp    103e63 <do_doublefault+0x3c>
  103e3e:	8b 45 fc             	mov    -0x4(%ebp),%eax
  103e41:	0f b6 00             	movzbl (%eax),%eax
  103e44:	66 98                	cbtw   
  103e46:	80 cc 0c             	or     $0xc,%ah
  103e49:	66 89 45 f6          	mov    %ax,-0xa(%ebp)
  103e4d:	8b 45 f8             	mov    -0x8(%ebp),%eax
  103e50:	8d 14 00             	lea    (%eax,%eax,1),%edx
  103e53:	0f b7 45 f6          	movzwl -0xa(%ebp),%eax
  103e57:	65 66 89 02          	mov    %ax,%gs:(%edx)
  103e5b:	83 45 fc 01          	addl   $0x1,-0x4(%ebp)
  103e5f:	83 45 f8 01          	addl   $0x1,-0x8(%ebp)
  103e63:	8b 45 fc             	mov    -0x4(%ebp),%eax
  103e66:	0f b6 00             	movzbl (%eax),%eax
  103e69:	84 c0                	test   %al,%al
  103e6b:	75 d1                	jne    103e3e <do_doublefault+0x17>
  103e6d:	a1 28 75 10 00       	mov    0x107528,%eax
  103e72:	83 c0 14             	add    $0x14,%eax
  103e75:	a3 28 75 10 00       	mov    %eax,0x107528
  103e7a:	c9                   	leave  
  103e7b:	c3                   	ret    

00103e7c <do_cop>:
  103e7c:	55                   	push   %ebp
  103e7d:	89 e5                	mov    %esp,%ebp
  103e7f:	83 ec 10             	sub    $0x10,%esp
  103e82:	c7 45 fc 2c 59 10 00 	movl   $0x10592c,-0x4(%ebp)
  103e89:	a1 28 75 10 00       	mov    0x107528,%eax
  103e8e:	89 45 f8             	mov    %eax,-0x8(%ebp)
  103e91:	eb 25                	jmp    103eb8 <do_cop+0x3c>
  103e93:	8b 45 fc             	mov    -0x4(%ebp),%eax
  103e96:	0f b6 00             	movzbl (%eax),%eax
  103e99:	66 98                	cbtw   
  103e9b:	80 cc 0c             	or     $0xc,%ah
  103e9e:	66 89 45 f6          	mov    %ax,-0xa(%ebp)
  103ea2:	8b 45 f8             	mov    -0x8(%ebp),%eax
  103ea5:	8d 14 00             	lea    (%eax,%eax,1),%edx
  103ea8:	0f b7 45 f6          	movzwl -0xa(%ebp),%eax
  103eac:	65 66 89 02          	mov    %ax,%gs:(%edx)
  103eb0:	83 45 fc 01          	addl   $0x1,-0x4(%ebp)
  103eb4:	83 45 f8 01          	addl   $0x1,-0x8(%ebp)
  103eb8:	8b 45 fc             	mov    -0x4(%ebp),%eax
  103ebb:	0f b6 00             	movzbl (%eax),%eax
  103ebe:	84 c0                	test   %al,%al
  103ec0:	75 d1                	jne    103e93 <do_cop+0x17>
  103ec2:	a1 28 75 10 00       	mov    0x107528,%eax
  103ec7:	83 c0 14             	add    $0x14,%eax
  103eca:	a3 28 75 10 00       	mov    %eax,0x107528
  103ecf:	c9                   	leave  
  103ed0:	c3                   	ret    

00103ed1 <do_tss>:
  103ed1:	55                   	push   %ebp
  103ed2:	89 e5                	mov    %esp,%ebp
  103ed4:	83 ec 10             	sub    $0x10,%esp
  103ed7:	c7 45 fc 39 59 10 00 	movl   $0x105939,-0x4(%ebp)
  103ede:	a1 28 75 10 00       	mov    0x107528,%eax
  103ee3:	89 45 f8             	mov    %eax,-0x8(%ebp)
  103ee6:	eb 25                	jmp    103f0d <do_tss+0x3c>
  103ee8:	8b 45 fc             	mov    -0x4(%ebp),%eax
  103eeb:	0f b6 00             	movzbl (%eax),%eax
  103eee:	66 98                	cbtw   
  103ef0:	80 cc 0c             	or     $0xc,%ah
  103ef3:	66 89 45 f6          	mov    %ax,-0xa(%ebp)
  103ef7:	8b 45 f8             	mov    -0x8(%ebp),%eax
  103efa:	8d 14 00             	lea    (%eax,%eax,1),%edx
  103efd:	0f b7 45 f6          	movzwl -0xa(%ebp),%eax
  103f01:	65 66 89 02          	mov    %ax,%gs:(%edx)
  103f05:	83 45 fc 01          	addl   $0x1,-0x4(%ebp)
  103f09:	83 45 f8 01          	addl   $0x1,-0x8(%ebp)
  103f0d:	8b 45 fc             	mov    -0x4(%ebp),%eax
  103f10:	0f b6 00             	movzbl (%eax),%eax
  103f13:	84 c0                	test   %al,%al
  103f15:	75 d1                	jne    103ee8 <do_tss+0x17>
  103f17:	a1 28 75 10 00       	mov    0x107528,%eax
  103f1c:	83 c0 14             	add    $0x14,%eax
  103f1f:	a3 28 75 10 00       	mov    %eax,0x107528
  103f24:	c9                   	leave  
  103f25:	c3                   	ret    

00103f26 <do_seg_fault>:
  103f26:	55                   	push   %ebp
  103f27:	89 e5                	mov    %esp,%ebp
  103f29:	83 ec 10             	sub    $0x10,%esp
  103f2c:	c7 45 fc 46 59 10 00 	movl   $0x105946,-0x4(%ebp)
  103f33:	a1 28 75 10 00       	mov    0x107528,%eax
  103f38:	89 45 f8             	mov    %eax,-0x8(%ebp)
  103f3b:	eb 25                	jmp    103f62 <do_seg_fault+0x3c>
  103f3d:	8b 45 fc             	mov    -0x4(%ebp),%eax
  103f40:	0f b6 00             	movzbl (%eax),%eax
  103f43:	66 98                	cbtw   
  103f45:	80 cc 0c             	or     $0xc,%ah
  103f48:	66 89 45 f6          	mov    %ax,-0xa(%ebp)
  103f4c:	8b 45 f8             	mov    -0x8(%ebp),%eax
  103f4f:	8d 14 00             	lea    (%eax,%eax,1),%edx
  103f52:	0f b7 45 f6          	movzwl -0xa(%ebp),%eax
  103f56:	65 66 89 02          	mov    %ax,%gs:(%edx)
  103f5a:	83 45 fc 01          	addl   $0x1,-0x4(%ebp)
  103f5e:	83 45 f8 01          	addl   $0x1,-0x8(%ebp)
  103f62:	8b 45 fc             	mov    -0x4(%ebp),%eax
  103f65:	0f b6 00             	movzbl (%eax),%eax
  103f68:	84 c0                	test   %al,%al
  103f6a:	75 d1                	jne    103f3d <do_seg_fault+0x17>
  103f6c:	a1 28 75 10 00       	mov    0x107528,%eax
  103f71:	83 c0 14             	add    $0x14,%eax
  103f74:	a3 28 75 10 00       	mov    %eax,0x107528
  103f79:	c9                   	leave  
  103f7a:	c3                   	ret    

00103f7b <do_stack_fault>:
  103f7b:	55                   	push   %ebp
  103f7c:	89 e5                	mov    %esp,%ebp
  103f7e:	83 ec 10             	sub    $0x10,%esp
  103f81:	c7 45 fc 59 59 10 00 	movl   $0x105959,-0x4(%ebp)
  103f88:	a1 28 75 10 00       	mov    0x107528,%eax
  103f8d:	89 45 f8             	mov    %eax,-0x8(%ebp)
  103f90:	eb 25                	jmp    103fb7 <do_stack_fault+0x3c>
  103f92:	8b 45 fc             	mov    -0x4(%ebp),%eax
  103f95:	0f b6 00             	movzbl (%eax),%eax
  103f98:	66 98                	cbtw   
  103f9a:	80 cc 0c             	or     $0xc,%ah
  103f9d:	66 89 45 f6          	mov    %ax,-0xa(%ebp)
  103fa1:	8b 45 f8             	mov    -0x8(%ebp),%eax
  103fa4:	8d 14 00             	lea    (%eax,%eax,1),%edx
  103fa7:	0f b7 45 f6          	movzwl -0xa(%ebp),%eax
  103fab:	65 66 89 02          	mov    %ax,%gs:(%edx)
  103faf:	83 45 fc 01          	addl   $0x1,-0x4(%ebp)
  103fb3:	83 45 f8 01          	addl   $0x1,-0x8(%ebp)
  103fb7:	8b 45 fc             	mov    -0x4(%ebp),%eax
  103fba:	0f b6 00             	movzbl (%eax),%eax
  103fbd:	84 c0                	test   %al,%al
  103fbf:	75 d1                	jne    103f92 <do_stack_fault+0x17>
  103fc1:	a1 28 75 10 00       	mov    0x107528,%eax
  103fc6:	83 c0 14             	add    $0x14,%eax
  103fc9:	a3 28 75 10 00       	mov    %eax,0x107528
  103fce:	c9                   	leave  
  103fcf:	c3                   	ret    

00103fd0 <do_general_protect>:
  103fd0:	55                   	push   %ebp
  103fd1:	89 e5                	mov    %esp,%ebp
  103fd3:	83 ec 10             	sub    $0x10,%esp
  103fd6:	c7 45 fc 6e 59 10 00 	movl   $0x10596e,-0x4(%ebp)
  103fdd:	a1 28 75 10 00       	mov    0x107528,%eax
  103fe2:	89 45 f8             	mov    %eax,-0x8(%ebp)
  103fe5:	eb 25                	jmp    10400c <do_general_protect+0x3c>
  103fe7:	8b 45 fc             	mov    -0x4(%ebp),%eax
  103fea:	0f b6 00             	movzbl (%eax),%eax
  103fed:	66 98                	cbtw   
  103fef:	80 cc 0c             	or     $0xc,%ah
  103ff2:	66 89 45 f6          	mov    %ax,-0xa(%ebp)
  103ff6:	8b 45 f8             	mov    -0x8(%ebp),%eax
  103ff9:	8d 14 00             	lea    (%eax,%eax,1),%edx
  103ffc:	0f b7 45 f6          	movzwl -0xa(%ebp),%eax
  104000:	65 66 89 02          	mov    %ax,%gs:(%edx)
  104004:	83 45 fc 01          	addl   $0x1,-0x4(%ebp)
  104008:	83 45 f8 01          	addl   $0x1,-0x8(%ebp)
  10400c:	8b 45 fc             	mov    -0x4(%ebp),%eax
  10400f:	0f b6 00             	movzbl (%eax),%eax
  104012:	84 c0                	test   %al,%al
  104014:	75 d1                	jne    103fe7 <do_general_protect+0x17>
  104016:	a1 28 75 10 00       	mov    0x107528,%eax
  10401b:	83 c0 14             	add    $0x14,%eax
  10401e:	a3 28 75 10 00       	mov    %eax,0x107528
  104023:	c9                   	leave  
  104024:	c3                   	ret    

00104025 <do_fpu_error>:
  104025:	55                   	push   %ebp
  104026:	89 e5                	mov    %esp,%ebp
  104028:	83 ec 10             	sub    $0x10,%esp
  10402b:	c7 45 fc 87 59 10 00 	movl   $0x105987,-0x4(%ebp)
  104032:	a1 28 75 10 00       	mov    0x107528,%eax
  104037:	89 45 f8             	mov    %eax,-0x8(%ebp)
  10403a:	eb 25                	jmp    104061 <do_fpu_error+0x3c>
  10403c:	8b 45 fc             	mov    -0x4(%ebp),%eax
  10403f:	0f b6 00             	movzbl (%eax),%eax
  104042:	66 98                	cbtw   
  104044:	80 cc 0c             	or     $0xc,%ah
  104047:	66 89 45 f6          	mov    %ax,-0xa(%ebp)
  10404b:	8b 45 f8             	mov    -0x8(%ebp),%eax
  10404e:	8d 14 00             	lea    (%eax,%eax,1),%edx
  104051:	0f b7 45 f6          	movzwl -0xa(%ebp),%eax
  104055:	65 66 89 02          	mov    %ax,%gs:(%edx)
  104059:	83 45 fc 01          	addl   $0x1,-0x4(%ebp)
  10405d:	83 45 f8 01          	addl   $0x1,-0x8(%ebp)
  104061:	8b 45 fc             	mov    -0x4(%ebp),%eax
  104064:	0f b6 00             	movzbl (%eax),%eax
  104067:	84 c0                	test   %al,%al
  104069:	75 d1                	jne    10403c <do_fpu_error+0x17>
  10406b:	a1 28 75 10 00       	mov    0x107528,%eax
  104070:	83 c0 14             	add    $0x14,%eax
  104073:	a3 28 75 10 00       	mov    %eax,0x107528
  104078:	c9                   	leave  
  104079:	c3                   	ret    

0010407a <do_align_check>:
  10407a:	55                   	push   %ebp
  10407b:	89 e5                	mov    %esp,%ebp
  10407d:	83 ec 10             	sub    $0x10,%esp
  104080:	c7 45 fc 9a 59 10 00 	movl   $0x10599a,-0x4(%ebp)
  104087:	a1 28 75 10 00       	mov    0x107528,%eax
  10408c:	89 45 f8             	mov    %eax,-0x8(%ebp)
  10408f:	eb 25                	jmp    1040b6 <do_align_check+0x3c>
  104091:	8b 45 fc             	mov    -0x4(%ebp),%eax
  104094:	0f b6 00             	movzbl (%eax),%eax
  104097:	66 98                	cbtw   
  104099:	80 cc 0c             	or     $0xc,%ah
  10409c:	66 89 45 f6          	mov    %ax,-0xa(%ebp)
  1040a0:	8b 45 f8             	mov    -0x8(%ebp),%eax
  1040a3:	8d 14 00             	lea    (%eax,%eax,1),%edx
  1040a6:	0f b7 45 f6          	movzwl -0xa(%ebp),%eax
  1040aa:	65 66 89 02          	mov    %ax,%gs:(%edx)
  1040ae:	83 45 fc 01          	addl   $0x1,-0x4(%ebp)
  1040b2:	83 45 f8 01          	addl   $0x1,-0x8(%ebp)
  1040b6:	8b 45 fc             	mov    -0x4(%ebp),%eax
  1040b9:	0f b6 00             	movzbl (%eax),%eax
  1040bc:	84 c0                	test   %al,%al
  1040be:	75 d1                	jne    104091 <do_align_check+0x17>
  1040c0:	a1 28 75 10 00       	mov    0x107528,%eax
  1040c5:	83 c0 14             	add    $0x14,%eax
  1040c8:	a3 28 75 10 00       	mov    %eax,0x107528
  1040cd:	c9                   	leave  
  1040ce:	c3                   	ret    

001040cf <do_machine_check>:
  1040cf:	55                   	push   %ebp
  1040d0:	89 e5                	mov    %esp,%ebp
  1040d2:	83 ec 10             	sub    $0x10,%esp
  1040d5:	c7 45 fc af 59 10 00 	movl   $0x1059af,-0x4(%ebp)
  1040dc:	a1 28 75 10 00       	mov    0x107528,%eax
  1040e1:	89 45 f8             	mov    %eax,-0x8(%ebp)
  1040e4:	eb 25                	jmp    10410b <do_machine_check+0x3c>
  1040e6:	8b 45 fc             	mov    -0x4(%ebp),%eax
  1040e9:	0f b6 00             	movzbl (%eax),%eax
  1040ec:	66 98                	cbtw   
  1040ee:	80 cc 0c             	or     $0xc,%ah
  1040f1:	66 89 45 f6          	mov    %ax,-0xa(%ebp)
  1040f5:	8b 45 f8             	mov    -0x8(%ebp),%eax
  1040f8:	8d 14 00             	lea    (%eax,%eax,1),%edx
  1040fb:	0f b7 45 f6          	movzwl -0xa(%ebp),%eax
  1040ff:	65 66 89 02          	mov    %ax,%gs:(%edx)
  104103:	83 45 fc 01          	addl   $0x1,-0x4(%ebp)
  104107:	83 45 f8 01          	addl   $0x1,-0x8(%ebp)
  10410b:	8b 45 fc             	mov    -0x4(%ebp),%eax
  10410e:	0f b6 00             	movzbl (%eax),%eax
  104111:	84 c0                	test   %al,%al
  104113:	75 d1                	jne    1040e6 <do_machine_check+0x17>
  104115:	a1 28 75 10 00       	mov    0x107528,%eax
  10411a:	83 c0 14             	add    $0x14,%eax
  10411d:	a3 28 75 10 00       	mov    %eax,0x107528
  104122:	c9                   	leave  
  104123:	c3                   	ret    

00104124 <do_simd_fault>:
  104124:	55                   	push   %ebp
  104125:	89 e5                	mov    %esp,%ebp
  104127:	83 ec 10             	sub    $0x10,%esp
  10412a:	c7 45 fc c6 59 10 00 	movl   $0x1059c6,-0x4(%ebp)
  104131:	a1 28 75 10 00       	mov    0x107528,%eax
  104136:	89 45 f8             	mov    %eax,-0x8(%ebp)
  104139:	eb 25                	jmp    104160 <do_simd_fault+0x3c>
  10413b:	8b 45 fc             	mov    -0x4(%ebp),%eax
  10413e:	0f b6 00             	movzbl (%eax),%eax
  104141:	66 98                	cbtw   
  104143:	80 cc 0c             	or     $0xc,%ah
  104146:	66 89 45 f6          	mov    %ax,-0xa(%ebp)
  10414a:	8b 45 f8             	mov    -0x8(%ebp),%eax
  10414d:	8d 14 00             	lea    (%eax,%eax,1),%edx
  104150:	0f b7 45 f6          	movzwl -0xa(%ebp),%eax
  104154:	65 66 89 02          	mov    %ax,%gs:(%edx)
  104158:	83 45 fc 01          	addl   $0x1,-0x4(%ebp)
  10415c:	83 45 f8 01          	addl   $0x1,-0x8(%ebp)
  104160:	8b 45 fc             	mov    -0x4(%ebp),%eax
  104163:	0f b6 00             	movzbl (%eax),%eax
  104166:	84 c0                	test   %al,%al
  104168:	75 d1                	jne    10413b <do_simd_fault+0x17>
  10416a:	a1 28 75 10 00       	mov    0x107528,%eax
  10416f:	83 c0 14             	add    $0x14,%eax
  104172:	a3 28 75 10 00       	mov    %eax,0x107528
  104177:	c9                   	leave  
  104178:	c3                   	ret    

00104179 <do_int_timer>:
  104179:	55                   	push   %ebp
  10417a:	89 e5                	mov    %esp,%ebp
  10417c:	83 ec 18             	sub    $0x18,%esp
  10417f:	c7 45 f4 da 59 10 00 	movl   $0x1059da,-0xc(%ebp)
  104186:	a1 28 75 10 00       	mov    0x107528,%eax
  10418b:	89 45 f0             	mov    %eax,-0x10(%ebp)
  10418e:	eb 25                	jmp    1041b5 <do_int_timer+0x3c>
  104190:	8b 45 f4             	mov    -0xc(%ebp),%eax
  104193:	0f b6 00             	movzbl (%eax),%eax
  104196:	66 98                	cbtw   
  104198:	80 cc 0c             	or     $0xc,%ah
  10419b:	66 89 45 ee          	mov    %ax,-0x12(%ebp)
  10419f:	8b 45 f0             	mov    -0x10(%ebp),%eax
  1041a2:	8d 14 00             	lea    (%eax,%eax,1),%edx
  1041a5:	0f b7 45 ee          	movzwl -0x12(%ebp),%eax
  1041a9:	65 66 89 02          	mov    %ax,%gs:(%edx)
  1041ad:	83 45 f4 01          	addl   $0x1,-0xc(%ebp)
  1041b1:	83 45 f0 01          	addl   $0x1,-0x10(%ebp)
  1041b5:	8b 45 f4             	mov    -0xc(%ebp),%eax
  1041b8:	0f b6 00             	movzbl (%eax),%eax
  1041bb:	84 c0                	test   %al,%al
  1041bd:	75 d1                	jne    104190 <do_int_timer+0x17>
  1041bf:	a1 28 75 10 00       	mov    0x107528,%eax
  1041c4:	83 c0 14             	add    $0x14,%eax
  1041c7:	a3 28 75 10 00       	mov    %eax,0x107528
  1041cc:	a1 20 75 10 00       	mov    0x107520,%eax
  1041d1:	8b 15 24 75 10 00    	mov    0x107524,%edx
  1041d7:	83 c0 01             	add    $0x1,%eax
  1041da:	83 d2 00             	adc    $0x0,%edx
  1041dd:	a3 20 75 10 00       	mov    %eax,0x107520
  1041e2:	89 15 24 75 10 00    	mov    %edx,0x107524
  1041e8:	e8 07 10 00 00       	call   1051f4 <schedule>
  1041ed:	c9                   	leave  
  1041ee:	c3                   	ret    

001041ef <do_int_hd>:
  1041ef:	55                   	push   %ebp
  1041f0:	89 e5                	mov    %esp,%ebp
  1041f2:	57                   	push   %edi
  1041f3:	53                   	push   %ebx
  1041f4:	83 ec 10             	sub    $0x10,%esp
  1041f7:	c7 45 f4 ed 59 10 00 	movl   $0x1059ed,-0xc(%ebp)
  1041fe:	a1 28 75 10 00       	mov    0x107528,%eax
  104203:	89 45 f0             	mov    %eax,-0x10(%ebp)
  104206:	eb 25                	jmp    10422d <do_int_hd+0x3e>
  104208:	8b 45 f4             	mov    -0xc(%ebp),%eax
  10420b:	0f b6 00             	movzbl (%eax),%eax
  10420e:	66 98                	cbtw   
  104210:	80 cc 0c             	or     $0xc,%ah
  104213:	66 89 45 ee          	mov    %ax,-0x12(%ebp)
  104217:	8b 45 f0             	mov    -0x10(%ebp),%eax
  10421a:	8d 14 00             	lea    (%eax,%eax,1),%edx
  10421d:	0f b7 45 ee          	movzwl -0x12(%ebp),%eax
  104221:	65 66 89 02          	mov    %ax,%gs:(%edx)
  104225:	83 45 f4 01          	addl   $0x1,-0xc(%ebp)
  104229:	83 45 f0 01          	addl   $0x1,-0x10(%ebp)
  10422d:	8b 45 f4             	mov    -0xc(%ebp),%eax
  104230:	0f b6 00             	movzbl (%eax),%eax
  104233:	84 c0                	test   %al,%al
  104235:	75 d1                	jne    104208 <do_int_hd+0x19>
  104237:	b8 f0 01 00 00       	mov    $0x1f0,%eax
  10423c:	bb a0 11 15 00       	mov    $0x1511a0,%ebx
  104241:	b9 00 01 00 00       	mov    $0x100,%ecx
  104246:	89 c2                	mov    %eax,%edx
  104248:	89 df                	mov    %ebx,%edi
  10424a:	fc                   	cld    
  10424b:	f3 66 6d             	rep insw (%dx),%es:(%edi)
  10424e:	ba 20 00 00 00       	mov    $0x20,%edx
  104253:	b8 20 00 00 00       	mov    $0x20,%eax
  104258:	ee                   	out    %al,(%dx)
  104259:	90                   	nop
  10425a:	90                   	nop
  10425b:	90                   	nop
  10425c:	90                   	nop
  10425d:	ba a0 00 00 00       	mov    $0xa0,%edx
  104262:	b8 20 00 00 00       	mov    $0x20,%eax
  104267:	ee                   	out    %al,(%dx)
  104268:	90                   	nop
  104269:	90                   	nop
  10426a:	90                   	nop
  10426b:	90                   	nop
  10426c:	a1 28 75 10 00       	mov    0x107528,%eax
  104271:	83 c0 14             	add    $0x14,%eax
  104274:	a3 28 75 10 00       	mov    %eax,0x107528
  104279:	83 c4 10             	add    $0x10,%esp
  10427c:	5b                   	pop    %ebx
  10427d:	5f                   	pop    %edi
  10427e:	5d                   	pop    %ebp
  10427f:	c3                   	ret    

00104280 <sys_call>:
  104280:	55                   	push   %ebp
  104281:	89 e5                	mov    %esp,%ebp
  104283:	83 ec 10             	sub    $0x10,%esp
  104286:	83 7d 08 01          	cmpl   $0x1,0x8(%ebp)
  10428a:	75 50                	jne    1042dc <sys_call+0x5c>
  10428c:	8b 45 0c             	mov    0xc(%ebp),%eax
  10428f:	66 89 45 fe          	mov    %ax,-0x2(%ebp)
  104293:	ba d4 03 00 00       	mov    $0x3d4,%edx
  104298:	b8 0f 00 00 00       	mov    $0xf,%eax
  10429d:	ee                   	out    %al,(%dx)
  10429e:	90                   	nop
  10429f:	90                   	nop
  1042a0:	90                   	nop
  1042a1:	90                   	nop
  1042a2:	0f b7 45 fe          	movzwl -0x2(%ebp),%eax
  1042a6:	25 ff 00 00 00       	and    $0xff,%eax
  1042ab:	ba d5 03 00 00       	mov    $0x3d5,%edx
  1042b0:	ee                   	out    %al,(%dx)
  1042b1:	90                   	nop
  1042b2:	90                   	nop
  1042b3:	90                   	nop
  1042b4:	90                   	nop
  1042b5:	ba d4 03 00 00       	mov    $0x3d4,%edx
  1042ba:	b8 0e 00 00 00       	mov    $0xe,%eax
  1042bf:	ee                   	out    %al,(%dx)
  1042c0:	90                   	nop
  1042c1:	90                   	nop
  1042c2:	90                   	nop
  1042c3:	90                   	nop
  1042c4:	66 c1 6d fe 08       	shrw   $0x8,-0x2(%ebp)
  1042c9:	0f b7 45 fe          	movzwl -0x2(%ebp),%eax
  1042cd:	25 ff 00 00 00       	and    $0xff,%eax
  1042d2:	ba d5 03 00 00       	mov    $0x3d5,%edx
  1042d7:	ee                   	out    %al,(%dx)
  1042d8:	90                   	nop
  1042d9:	90                   	nop
  1042da:	90                   	nop
  1042db:	90                   	nop
  1042dc:	c9                   	leave  
  1042dd:	c3                   	ret    
  1042de:	90                   	nop
  1042df:	90                   	nop

001042e0 <kernel_main>:
  1042e0:	55                   	push   %ebp
  1042e1:	89 e5                	mov    %esp,%ebp
  1042e3:	53                   	push   %ebx
  1042e4:	83 ec 04             	sub    $0x4,%esp
  1042e7:	e8 4c 01 00 00       	call   104438 <init_gdt>
  1042ec:	e8 15 f8 ff ff       	call   103b06 <init_idt>
  1042f1:	e8 fa 03 00 00       	call   1046f0 <init_page>
  1042f6:	e8 44 14 00 00       	call   10573f <init_shell>
  1042fb:	e8 7c 0a 00 00       	call   104d7c <init_time>
  104300:	ba 21 00 00 00       	mov    $0x21,%edx
  104305:	b8 00 00 00 00       	mov    $0x0,%eax
  10430a:	ee                   	out    %al,(%dx)
  10430b:	90                   	nop
  10430c:	90                   	nop
  10430d:	90                   	nop
  10430e:	90                   	nop
  10430f:	ba a1 00 00 00       	mov    $0xa1,%edx
  104314:	b8 00 00 00 00       	mov    $0x0,%eax
  104319:	ee                   	out    %al,(%dx)
  10431a:	90                   	nop
  10431b:	90                   	nop
  10431c:	90                   	nop
  10431d:	90                   	nop
  10431e:	bb 30 c2 10 00       	mov    $0x10c230,%ebx
  104323:	b8 17 00 00 00       	mov    $0x17,%eax
  104328:	b9 0f 00 00 00       	mov    $0xf,%ecx
  10432d:	ba 40 43 10 00       	mov    $0x104340,%edx
  104332:	0f 06                	clts   
  104334:	50                   	push   %eax
  104335:	53                   	push   %ebx
  104336:	9c                   	pushf  
  104337:	51                   	push   %ecx
  104338:	52                   	push   %edx
  104339:	cf                   	iret   
  10433a:	83 c4 04             	add    $0x4,%esp
  10433d:	5b                   	pop    %ebx
  10433e:	5d                   	pop    %ebp
  10433f:	c3                   	ret    

00104340 <Task0>:
  104340:	55                   	push   %ebp
  104341:	89 e5                	mov    %esp,%ebp
  104343:	50                   	push   %eax
  104344:	b8 17 00 00 00       	mov    $0x17,%eax
  104349:	8e d8                	mov    %eax,%ds
  10434b:	58                   	pop    %eax
  10434c:	eb 01                	jmp    10434f <Task0+0xf>
  10434e:	90                   	nop
  10434f:	a1 9c 6e 10 00       	mov    0x106e9c,%eax
  104354:	8d 14 00             	lea    (%eax,%eax,1),%edx
  104357:	b8 41 fc 00 00       	mov    $0xfc41,%eax
  10435c:	65 66 89 02          	mov    %ax,%gs:(%edx)
  104360:	f0 83 05 9c 6e 10 00 	lock addl $0x1,0x106e9c
  104367:	01 
  104368:	a1 9c 6e 10 00       	mov    0x106e9c,%eax
  10436d:	3d 3f 06 00 00       	cmp    $0x63f,%eax
  104372:	76 da                	jbe    10434e <Task0+0xe>
  104374:	c7 05 9c 6e 10 00 90 	movl   $0x190,0x106e9c
  10437b:	01 00 00 
  10437e:	eb cf                	jmp    10434f <Task0+0xf>

00104380 <Task1>:
  104380:	55                   	push   %ebp
  104381:	89 e5                	mov    %esp,%ebp
  104383:	eb 01                	jmp    104386 <Task1+0x6>
  104385:	90                   	nop
  104386:	a1 9c 6e 10 00       	mov    0x106e9c,%eax
  10438b:	8d 14 00             	lea    (%eax,%eax,1),%edx
  10438e:	b8 42 0a 00 00       	mov    $0xa42,%eax
  104393:	65 66 89 02          	mov    %ax,%gs:(%edx)
  104397:	f0 83 05 9c 6e 10 00 	lock addl $0x1,0x106e9c
  10439e:	01 
  10439f:	a1 9c 6e 10 00       	mov    0x106e9c,%eax
  1043a4:	3d 3f 06 00 00       	cmp    $0x63f,%eax
  1043a9:	76 da                	jbe    104385 <Task1+0x5>
  1043ab:	c7 05 9c 6e 10 00 90 	movl   $0x190,0x106e9c
  1043b2:	01 00 00 
  1043b5:	eb cf                	jmp    104386 <Task1+0x6>

001043b7 <Task2>:
  1043b7:	55                   	push   %ebp
  1043b8:	89 e5                	mov    %esp,%ebp
  1043ba:	eb 01                	jmp    1043bd <Task2+0x6>
  1043bc:	90                   	nop
  1043bd:	a1 9c 6e 10 00       	mov    0x106e9c,%eax
  1043c2:	8d 14 00             	lea    (%eax,%eax,1),%edx
  1043c5:	b8 43 09 00 00       	mov    $0x943,%eax
  1043ca:	65 66 89 02          	mov    %ax,%gs:(%edx)
  1043ce:	f0 83 05 9c 6e 10 00 	lock addl $0x1,0x106e9c
  1043d5:	01 
  1043d6:	a1 9c 6e 10 00       	mov    0x106e9c,%eax
  1043db:	3d 3f 06 00 00       	cmp    $0x63f,%eax
  1043e0:	76 da                	jbe    1043bc <Task2+0x5>
  1043e2:	c7 05 9c 6e 10 00 90 	movl   $0x190,0x106e9c
  1043e9:	01 00 00 
  1043ec:	eb cf                	jmp    1043bd <Task2+0x6>

001043ee <reboot>:
  1043ee:	55                   	push   %ebp
  1043ef:	89 e5                	mov    %esp,%ebp
  1043f1:	53                   	push   %ebx
  1043f2:	83 ec 14             	sub    $0x14,%esp
  1043f5:	c6 45 fb 02          	movb   $0x2,-0x5(%ebp)
  1043f9:	eb 1b                	jmp    104416 <reboot+0x28>
  1043fb:	c7 45 e8 64 00 00 00 	movl   $0x64,-0x18(%ebp)
  104402:	8b 55 e8             	mov    -0x18(%ebp),%edx
  104405:	ec                   	in     (%dx),%al
  104406:	90                   	nop
  104407:	90                   	nop
  104408:	90                   	nop
  104409:	90                   	nop
  10440a:	89 c3                	mov    %eax,%ebx
  10440c:	88 5d fa             	mov    %bl,-0x6(%ebp)
  10440f:	0f b6 45 fa          	movzbl -0x6(%ebp),%eax
  104413:	88 45 fb             	mov    %al,-0x5(%ebp)
  104416:	0f b6 45 fb          	movzbl -0x5(%ebp),%eax
  10441a:	83 e0 02             	and    $0x2,%eax
  10441d:	85 c0                	test   %eax,%eax
  10441f:	75 da                	jne    1043fb <reboot+0xd>
  104421:	ba 64 00 00 00       	mov    $0x64,%edx
  104426:	b8 fe 00 00 00       	mov    $0xfe,%eax
  10442b:	ee                   	out    %al,(%dx)
  10442c:	90                   	nop
  10442d:	90                   	nop
  10442e:	90                   	nop
  10442f:	90                   	nop
  104430:	83 c4 14             	add    $0x14,%esp
  104433:	5b                   	pop    %ebx
  104434:	5d                   	pop    %ebp
  104435:	c3                   	ret    
  104436:	90                   	nop
  104437:	90                   	nop

00104438 <init_gdt>:
  104438:	55                   	push   %ebp
  104439:	89 e5                	mov    %esp,%ebp
  10443b:	57                   	push   %edi
  10443c:	56                   	push   %esi
  10443d:	53                   	push   %ebx
  10443e:	b8 d0 10 10 00       	mov    $0x1010d0,%eax
  104443:	0f 01 10             	lgdtl  (%eax)
  104446:	c7 05 80 b9 10 00 00 	movl   $0x0,0x10b980
  10444d:	00 00 00 
  104450:	c7 05 88 b9 10 00 00 	movl   $0x0,0x10b988
  104457:	00 00 00 
  10445a:	c7 05 84 b9 10 00 04 	movl   $0x4,0x10b984
  104461:	00 00 00 
  104464:	ba a0 b9 10 00       	mov    $0x10b9a0,%edx
  104469:	bb 18 31 10 00       	mov    $0x103118,%ebx
  10446e:	b8 1a 00 00 00       	mov    $0x1a,%eax
  104473:	89 d7                	mov    %edx,%edi
  104475:	89 de                	mov    %ebx,%esi
  104477:	89 c1                	mov    %eax,%ecx
  104479:	f3 a5                	rep movsl %ds:(%esi),%es:(%edi)
  10447b:	a1 08 31 10 00       	mov    0x103108,%eax
  104480:	8b 15 0c 31 10 00    	mov    0x10310c,%edx
  104486:	a3 18 ba 10 00       	mov    %eax,0x10ba18
  10448b:	89 15 1c ba 10 00    	mov    %edx,0x10ba1c
  104491:	a1 10 31 10 00       	mov    0x103110,%eax
  104496:	8b 15 14 31 10 00    	mov    0x103114,%edx
  10449c:	a3 20 ba 10 00       	mov    %eax,0x10ba20
  1044a1:	89 15 24 ba 10 00    	mov    %edx,0x10ba24
  1044a7:	b8 40 43 10 00       	mov    $0x104340,%eax
  1044ac:	a3 c0 b9 10 00       	mov    %eax,0x10b9c0
  1044b1:	b8 30 be 10 00       	mov    $0x10be30,%eax
  1044b6:	a3 a4 b9 10 00       	mov    %eax,0x10b9a4
  1044bb:	bb 10 ba 10 00       	mov    $0x10ba10,%ebx
  1044c0:	b8 e0 08 10 00       	mov    $0x1008e0,%eax
  1044c5:	b9 ff ff 0f 00       	mov    $0xfffff,%ecx
  1044ca:	ba e2 cf 00 00       	mov    $0xcfe2,%edx
  1044cf:	fa                   	cli    
  1044d0:	66 89 08             	mov    %cx,(%eax)
  1044d3:	83 c0 02             	add    $0x2,%eax
  1044d6:	66 89 18             	mov    %bx,(%eax)
  1044d9:	83 c0 02             	add    $0x2,%eax
  1044dc:	c1 eb 10             	shr    $0x10,%ebx
  1044df:	88 18                	mov    %bl,(%eax)
  1044e1:	83 c0 01             	add    $0x1,%eax
  1044e4:	66 89 10             	mov    %dx,(%eax)
  1044e7:	83 c0 02             	add    $0x2,%eax
  1044ea:	88 38                	mov    %bh,(%eax)
  1044ec:	fb                   	sti    
  1044ed:	bb a0 b9 10 00       	mov    $0x10b9a0,%ebx
  1044f2:	b8 e8 08 10 00       	mov    $0x1008e8,%eax
  1044f7:	b9 68 00 00 00       	mov    $0x68,%ecx
  1044fc:	ba e9 00 00 00       	mov    $0xe9,%edx
  104501:	fa                   	cli    
  104502:	66 89 08             	mov    %cx,(%eax)
  104505:	83 c0 02             	add    $0x2,%eax
  104508:	66 89 18             	mov    %bx,(%eax)
  10450b:	83 c0 02             	add    $0x2,%eax
  10450e:	c1 eb 10             	shr    $0x10,%ebx
  104511:	88 18                	mov    %bl,(%eax)
  104513:	83 c0 01             	add    $0x1,%eax
  104516:	66 89 10             	mov    %dx,(%eax)
  104519:	83 c0 02             	add    $0x2,%eax
  10451c:	88 38                	mov    %bh,(%eax)
  10451e:	fb                   	sti    
  10451f:	c7 05 30 c2 10 00 01 	movl   $0x1,0x10c230
  104526:	00 00 00 
  104529:	c7 05 38 c2 10 00 00 	movl   $0x0,0x10c238
  104530:	00 00 00 
  104533:	c7 05 34 c2 10 00 06 	movl   $0x6,0x10c234
  10453a:	00 00 00 
  10453d:	ba 50 c2 10 00       	mov    $0x10c250,%edx
  104542:	bb 98 33 10 00       	mov    $0x103398,%ebx
  104547:	b8 1a 00 00 00       	mov    $0x1a,%eax
  10454c:	89 d7                	mov    %edx,%edi
  10454e:	89 de                	mov    %ebx,%esi
  104550:	89 c1                	mov    %eax,%ecx
  104552:	f3 a5                	rep movsl %ds:(%esi),%es:(%edi)
  104554:	a1 88 33 10 00       	mov    0x103388,%eax
  104559:	8b 15 8c 33 10 00    	mov    0x10338c,%edx
  10455f:	a3 c8 c2 10 00       	mov    %eax,0x10c2c8
  104564:	89 15 cc c2 10 00    	mov    %edx,0x10c2cc
  10456a:	a1 90 33 10 00       	mov    0x103390,%eax
  10456f:	8b 15 94 33 10 00    	mov    0x103394,%edx
  104575:	a3 d0 c2 10 00       	mov    %eax,0x10c2d0
  10457a:	89 15 d4 c2 10 00    	mov    %edx,0x10c2d4
  104580:	b8 80 43 10 00       	mov    $0x104380,%eax
  104585:	a3 70 c2 10 00       	mov    %eax,0x10c270
  10458a:	b8 e0 c6 10 00       	mov    $0x10c6e0,%eax
  10458f:	a3 54 c2 10 00       	mov    %eax,0x10c254
  104594:	bb c0 c2 10 00       	mov    $0x10c2c0,%ebx
  104599:	b8 f0 08 10 00       	mov    $0x1008f0,%eax
  10459e:	b9 ff ff 0f 00       	mov    $0xfffff,%ecx
  1045a3:	ba e2 cf 00 00       	mov    $0xcfe2,%edx
  1045a8:	fa                   	cli    
  1045a9:	66 89 08             	mov    %cx,(%eax)
  1045ac:	83 c0 02             	add    $0x2,%eax
  1045af:	66 89 18             	mov    %bx,(%eax)
  1045b2:	83 c0 02             	add    $0x2,%eax
  1045b5:	c1 eb 10             	shr    $0x10,%ebx
  1045b8:	88 18                	mov    %bl,(%eax)
  1045ba:	83 c0 01             	add    $0x1,%eax
  1045bd:	66 89 10             	mov    %dx,(%eax)
  1045c0:	83 c0 02             	add    $0x2,%eax
  1045c3:	88 38                	mov    %bh,(%eax)
  1045c5:	fb                   	sti    
  1045c6:	bb 50 c2 10 00       	mov    $0x10c250,%ebx
  1045cb:	b8 f8 08 10 00       	mov    $0x1008f8,%eax
  1045d0:	b9 68 00 00 00       	mov    $0x68,%ecx
  1045d5:	ba e9 00 00 00       	mov    $0xe9,%edx
  1045da:	fa                   	cli    
  1045db:	66 89 08             	mov    %cx,(%eax)
  1045de:	83 c0 02             	add    $0x2,%eax
  1045e1:	66 89 18             	mov    %bx,(%eax)
  1045e4:	83 c0 02             	add    $0x2,%eax
  1045e7:	c1 eb 10             	shr    $0x10,%ebx
  1045ea:	88 18                	mov    %bl,(%eax)
  1045ec:	83 c0 01             	add    $0x1,%eax
  1045ef:	66 89 10             	mov    %dx,(%eax)
  1045f2:	83 c0 02             	add    $0x2,%eax
  1045f5:	88 38                	mov    %bh,(%eax)
  1045f7:	fb                   	sti    
  1045f8:	a1 c8 c2 10 00       	mov    0x10c2c8,%eax
  1045fd:	8b 15 cc c2 10 00    	mov    0x10c2cc,%edx
  104603:	a3 78 cb 10 00       	mov    %eax,0x10cb78
  104608:	89 15 7c cb 10 00    	mov    %edx,0x10cb7c
  10460e:	a1 d0 c2 10 00       	mov    0x10c2d0,%eax
  104613:	8b 15 d4 c2 10 00    	mov    0x10c2d4,%edx
  104619:	a3 80 cb 10 00       	mov    %eax,0x10cb80
  10461e:	89 15 84 cb 10 00    	mov    %edx,0x10cb84
  104624:	ba 00 cb 10 00       	mov    $0x10cb00,%edx
  104629:	bb 50 c2 10 00       	mov    $0x10c250,%ebx
  10462e:	b8 1a 00 00 00       	mov    $0x1a,%eax
  104633:	89 d7                	mov    %edx,%edi
  104635:	89 de                	mov    %ebx,%esi
  104637:	89 c1                	mov    %eax,%ecx
  104639:	f3 a5                	rep movsl %ds:(%esi),%es:(%edi)
  10463b:	b8 ec 54 10 00       	mov    $0x1054ec,%eax
  104640:	a3 20 cb 10 00       	mov    %eax,0x10cb20
  104645:	b8 90 cf 10 00       	mov    $0x10cf90,%eax
  10464a:	a3 04 cb 10 00       	mov    %eax,0x10cb04
  10464f:	b8 90 d3 10 00       	mov    $0x10d390,%eax
  104654:	a3 38 cb 10 00       	mov    %eax,0x10cb38
  104659:	bb 70 cb 10 00       	mov    $0x10cb70,%ebx
  10465e:	b8 00 09 10 00       	mov    $0x100900,%eax
  104663:	b9 ff ff 0f 00       	mov    $0xfffff,%ecx
  104668:	ba e2 cf 00 00       	mov    $0xcfe2,%edx
  10466d:	fa                   	cli    
  10466e:	66 89 08             	mov    %cx,(%eax)
  104671:	83 c0 02             	add    $0x2,%eax
  104674:	66 89 18             	mov    %bx,(%eax)
  104677:	83 c0 02             	add    $0x2,%eax
  10467a:	c1 eb 10             	shr    $0x10,%ebx
  10467d:	88 18                	mov    %bl,(%eax)
  10467f:	83 c0 01             	add    $0x1,%eax
  104682:	66 89 10             	mov    %dx,(%eax)
  104685:	83 c0 02             	add    $0x2,%eax
  104688:	88 38                	mov    %bh,(%eax)
  10468a:	fb                   	sti    
  10468b:	bb 00 cb 10 00       	mov    $0x10cb00,%ebx
  104690:	b8 08 09 10 00       	mov    $0x100908,%eax
  104695:	b9 68 00 00 00       	mov    $0x68,%ecx
  10469a:	ba e9 00 00 00       	mov    $0xe9,%edx
  10469f:	fa                   	cli    
  1046a0:	66 89 08             	mov    %cx,(%eax)
  1046a3:	83 c0 02             	add    $0x2,%eax
  1046a6:	66 89 18             	mov    %bx,(%eax)
  1046a9:	83 c0 02             	add    $0x2,%eax
  1046ac:	c1 eb 10             	shr    $0x10,%ebx
  1046af:	88 18                	mov    %bl,(%eax)
  1046b1:	83 c0 01             	add    $0x1,%eax
  1046b4:	66 89 10             	mov    %dx,(%eax)
  1046b7:	83 c0 02             	add    $0x2,%eax
  1046ba:	88 38                	mov    %bh,(%eax)
  1046bc:	fb                   	sti    
  1046bd:	c7 05 e0 ca 10 00 02 	movl   $0x2,0x10cae0
  1046c4:	00 00 00 
  1046c7:	c7 05 e8 ca 10 00 00 	movl   $0x0,0x10cae8
  1046ce:	00 00 00 
  1046d1:	b8 20 00 00 00       	mov    $0x20,%eax
  1046d6:	0f 00 d0             	lldt   %ax
  1046d9:	b8 28 00 00 00       	mov    $0x28,%eax
  1046de:	0f 00 d8             	ltr    %ax
  1046e1:	b8 18 00 00 00       	mov    $0x18,%eax
  1046e6:	8e e8                	mov    %eax,%gs
  1046e8:	5b                   	pop    %ebx
  1046e9:	5e                   	pop    %esi
  1046ea:	5f                   	pop    %edi
  1046eb:	5d                   	pop    %ebp
  1046ec:	c3                   	ret    
  1046ed:	90                   	nop
  1046ee:	90                   	nop
  1046ef:	90                   	nop

001046f0 <init_page>:
  1046f0:	55                   	push   %ebp
  1046f1:	89 e5                	mov    %esp,%ebp
  1046f3:	83 ec 10             	sub    $0x10,%esp
  1046f6:	c7 05 ac 15 15 00 00 	movl   $0x1ff8000,0x1515ac
  1046fd:	80 ff 01 
  104700:	c7 05 a0 15 15 00 00 	movl   $0x1ff0000,0x1515a0
  104707:	00 ff 01 
  10470a:	c7 45 fc 00 00 00 00 	movl   $0x0,-0x4(%ebp)
  104711:	c7 45 f8 00 00 00 00 	movl   $0x0,-0x8(%ebp)
  104718:	c7 05 a8 15 15 00 00 	movl   $0x1fe8000,0x1515a8
  10471f:	80 fe 01 
  104722:	c7 05 a4 15 15 00 00 	movl   $0x1fe0000,0x1515a4
  104729:	00 fe 01 
  10472c:	c7 45 f4 00 00 00 00 	movl   $0x0,-0xc(%ebp)
  104733:	c7 45 fc 00 00 00 00 	movl   $0x0,-0x4(%ebp)
  10473a:	eb 5f                	jmp    10479b <init_page+0xab>
  10473c:	a1 a4 15 15 00       	mov    0x1515a4,%eax
  104741:	8b 55 fc             	mov    -0x4(%ebp),%edx
  104744:	c1 e2 02             	shl    $0x2,%edx
  104747:	01 d0                	add    %edx,%eax
  104749:	8b 15 a8 15 15 00    	mov    0x1515a8,%edx
  10474f:	8b 4d fc             	mov    -0x4(%ebp),%ecx
  104752:	c1 e1 0a             	shl    $0xa,%ecx
  104755:	c1 e1 02             	shl    $0x2,%ecx
  104758:	01 ca                	add    %ecx,%edx
  10475a:	83 ca 07             	or     $0x7,%edx
  10475d:	89 10                	mov    %edx,(%eax)
  10475f:	c7 45 f8 00 00 00 00 	movl   $0x0,-0x8(%ebp)
  104766:	eb 26                	jmp    10478e <init_page+0x9e>
  104768:	a1 a8 15 15 00       	mov    0x1515a8,%eax
  10476d:	8b 55 fc             	mov    -0x4(%ebp),%edx
  104770:	c1 e2 0a             	shl    $0xa,%edx
  104773:	03 55 f8             	add    -0x8(%ebp),%edx
  104776:	c1 e2 02             	shl    $0x2,%edx
  104779:	01 d0                	add    %edx,%eax
  10477b:	8b 55 f4             	mov    -0xc(%ebp),%edx
  10477e:	83 ca 07             	or     $0x7,%edx
  104781:	89 10                	mov    %edx,(%eax)
  104783:	81 45 f4 00 10 00 00 	addl   $0x1000,-0xc(%ebp)
  10478a:	83 45 f8 01          	addl   $0x1,-0x8(%ebp)
  10478e:	81 7d f8 ff 03 00 00 	cmpl   $0x3ff,-0x8(%ebp)
  104795:	7e d1                	jle    104768 <init_page+0x78>
  104797:	83 45 fc 01          	addl   $0x1,-0x4(%ebp)
  10479b:	83 7d fc 07          	cmpl   $0x7,-0x4(%ebp)
  10479f:	7e 9b                	jle    10473c <init_page+0x4c>
  1047a1:	a1 a4 15 15 00       	mov    0x1515a4,%eax
  1047a6:	0f 22 d8             	mov    %eax,%cr3
  1047a9:	0f 20 c0             	mov    %cr0,%eax
  1047ac:	0b 05 00 00 00 80    	or     0x80000000,%eax
  1047b2:	0f 22 c0             	mov    %eax,%cr0
  1047b5:	c7 45 fc 00 01 00 00 	movl   $0x100,-0x4(%ebp)
  1047bc:	eb 11                	jmp    1047cf <init_page+0xdf>
  1047be:	8b 45 fc             	mov    -0x4(%ebp),%eax
  1047c1:	66 c7 84 00 40 75 10 	movw   $0xff,0x107540(%eax,%eax,1)
  1047c8:	00 ff 00 
  1047cb:	83 45 fc 01          	addl   $0x1,-0x4(%ebp)
  1047cf:	81 7d fc ff 02 00 00 	cmpl   $0x2ff,-0x4(%ebp)
  1047d6:	7e e6                	jle    1047be <init_page+0xce>
  1047d8:	c9                   	leave  
  1047d9:	c3                   	ret    

001047da <get_pde_by_vir>:
  1047da:	55                   	push   %ebp
  1047db:	89 e5                	mov    %esp,%ebp
  1047dd:	0f 20 d8             	mov    %cr3,%eax
  1047e0:	8b 55 08             	mov    0x8(%ebp),%edx
  1047e3:	c1 ea 16             	shr    $0x16,%edx
  1047e6:	8d 04 02             	lea    (%edx,%eax,1),%eax
  1047e9:	c1 e0 02             	shl    $0x2,%eax
  1047ec:	5d                   	pop    %ebp
  1047ed:	c3                   	ret    

001047ee <do_page_fault>:
  1047ee:	55                   	push   %ebp
  1047ef:	89 e5                	mov    %esp,%ebp
  1047f1:	83 ec 10             	sub    $0x10,%esp
  1047f4:	c7 45 fc 00 5a 10 00 	movl   $0x105a00,-0x4(%ebp)
  1047fb:	a1 a0 6e 10 00       	mov    0x106ea0,%eax
  104800:	89 45 f8             	mov    %eax,-0x8(%ebp)
  104803:	eb 25                	jmp    10482a <do_page_fault+0x3c>
  104805:	8b 45 fc             	mov    -0x4(%ebp),%eax
  104808:	0f b6 00             	movzbl (%eax),%eax
  10480b:	66 98                	cbtw   
  10480d:	80 cc 0c             	or     $0xc,%ah
  104810:	66 89 45 f6          	mov    %ax,-0xa(%ebp)
  104814:	8b 45 f8             	mov    -0x8(%ebp),%eax
  104817:	8d 14 00             	lea    (%eax,%eax,1),%edx
  10481a:	0f b7 45 f6          	movzwl -0xa(%ebp),%eax
  10481e:	65 66 89 02          	mov    %ax,%gs:(%edx)
  104822:	83 45 fc 01          	addl   $0x1,-0x4(%ebp)
  104826:	83 45 f8 01          	addl   $0x1,-0x8(%ebp)
  10482a:	8b 45 fc             	mov    -0x4(%ebp),%eax
  10482d:	0f b6 00             	movzbl (%eax),%eax
  104830:	84 c0                	test   %al,%al
  104832:	75 d1                	jne    104805 <do_page_fault+0x17>
  104834:	a1 a0 6e 10 00       	mov    0x106ea0,%eax
  104839:	83 c0 14             	add    $0x14,%eax
  10483c:	a3 a0 6e 10 00       	mov    %eax,0x106ea0
  104841:	a1 a4 15 15 00       	mov    0x1515a4,%eax
  104846:	83 c0 04             	add    $0x4,%eax
  104849:	8b 15 a4 15 15 00    	mov    0x1515a4,%edx
  10484f:	83 c2 04             	add    $0x4,%edx
  104852:	8b 12                	mov    (%edx),%edx
  104854:	83 ca 01             	or     $0x1,%edx
  104857:	89 10                	mov    %edx,(%eax)
  104859:	c9                   	leave  
  10485a:	c3                   	ret    

0010485b <put_page>:
  10485b:	55                   	push   %ebp
  10485c:	89 e5                	mov    %esp,%ebp
  10485e:	53                   	push   %ebx
  10485f:	83 ec 10             	sub    $0x10,%esp
  104862:	8b 45 0c             	mov    0xc(%ebp),%eax
  104865:	c1 e8 14             	shr    $0x14,%eax
  104868:	25 fc 0f 00 00       	and    $0xffc,%eax
  10486d:	89 45 f8             	mov    %eax,-0x8(%ebp)
  104870:	8b 45 0c             	mov    0xc(%ebp),%eax
  104873:	c1 e8 0a             	shr    $0xa,%eax
  104876:	25 fc 0f 00 00       	and    $0xffc,%eax
  10487b:	89 45 f4             	mov    %eax,-0xc(%ebp)
  10487e:	0f 20 d8             	mov    %cr3,%eax
  104881:	89 c3                	mov    %eax,%ebx
  104883:	89 5d f0             	mov    %ebx,-0x10(%ebp)
  104886:	8b 45 f8             	mov    -0x8(%ebp),%eax
  104889:	c1 e0 02             	shl    $0x2,%eax
  10488c:	03 45 f0             	add    -0x10(%ebp),%eax
  10488f:	89 45 f8             	mov    %eax,-0x8(%ebp)
  104892:	8b 45 f8             	mov    -0x8(%ebp),%eax
  104895:	8b 00                	mov    (%eax),%eax
  104897:	25 00 f0 ff ff       	and    $0xfffff000,%eax
  10489c:	c1 e0 02             	shl    $0x2,%eax
  10489f:	01 45 f4             	add    %eax,-0xc(%ebp)
  1048a2:	8b 45 f4             	mov    -0xc(%ebp),%eax
  1048a5:	8b 55 08             	mov    0x8(%ebp),%edx
  1048a8:	89 10                	mov    %edx,(%eax)
  1048aa:	83 c4 10             	add    $0x10,%esp
  1048ad:	5b                   	pop    %ebx
  1048ae:	5d                   	pop    %ebp
  1048af:	c3                   	ret    

001048b0 <kget_free_page>:
  1048b0:	55                   	push   %ebp
  1048b1:	89 e5                	mov    %esp,%ebp
  1048b3:	83 ec 28             	sub    $0x28,%esp
  1048b6:	c7 45 f4 00 03 00 00 	movl   $0x300,-0xc(%ebp)
  1048bd:	eb 1c                	jmp    1048db <kget_free_page+0x2b>
  1048bf:	8b 45 f4             	mov    -0xc(%ebp),%eax
  1048c2:	0f b7 84 00 40 75 10 	movzwl 0x107540(%eax,%eax,1),%eax
  1048c9:	00 
  1048ca:	66 85 c0             	test   %ax,%ax
  1048cd:	75 08                	jne    1048d7 <kget_free_page+0x27>
  1048cf:	8b 45 f4             	mov    -0xc(%ebp),%eax
  1048d2:	c1 e0 0c             	shl    $0xc,%eax
  1048d5:	eb 19                	jmp    1048f0 <kget_free_page+0x40>
  1048d7:	83 45 f4 01          	addl   $0x1,-0xc(%ebp)
  1048db:	81 7d f4 ff 03 00 00 	cmpl   $0x3ff,-0xc(%ebp)
  1048e2:	7e db                	jle    1048bf <kget_free_page+0xf>
  1048e4:	c7 04 24 14 5a 10 00 	movl   $0x105a14,(%esp)
  1048eb:	e8 37 04 00 00       	call   104d27 <panic>
  1048f0:	c9                   	leave  
  1048f1:	c3                   	ret    

001048f2 <kfree_page>:
  1048f2:	55                   	push   %ebp
  1048f3:	89 e5                	mov    %esp,%ebp
  1048f5:	83 ec 28             	sub    $0x28,%esp
  1048f8:	8b 45 08             	mov    0x8(%ebp),%eax
  1048fb:	c1 f8 0c             	sar    $0xc,%eax
  1048fe:	89 45 f4             	mov    %eax,-0xc(%ebp)
  104901:	81 7d f4 ff 02 00 00 	cmpl   $0x2ff,-0xc(%ebp)
  104908:	7e 3d                	jle    104947 <kfree_page+0x55>
  10490a:	81 7d f4 ff 03 00 00 	cmpl   $0x3ff,-0xc(%ebp)
  104911:	7f 34                	jg     104947 <kfree_page+0x55>
  104913:	8b 45 f4             	mov    -0xc(%ebp),%eax
  104916:	01 c0                	add    %eax,%eax
  104918:	8d 88 40 75 10 00    	lea    0x107540(%eax),%ecx
  10491e:	8b 45 f4             	mov    -0xc(%ebp),%eax
  104921:	0f b7 84 00 40 75 10 	movzwl 0x107540(%eax,%eax,1),%eax
  104928:	00 
  104929:	66 85 c0             	test   %ax,%ax
  10492c:	0f 95 c2             	setne  %dl
  10492f:	83 e8 01             	sub    $0x1,%eax
  104932:	66 89 01             	mov    %ax,(%ecx)
  104935:	84 d2                	test   %dl,%dl
  104937:	75 1c                	jne    104955 <kfree_page+0x63>
  104939:	c7 04 24 36 5a 10 00 	movl   $0x105a36,(%esp)
  104940:	e8 e2 03 00 00       	call   104d27 <panic>
  104945:	eb 0f                	jmp    104956 <kfree_page+0x64>
  104947:	c7 04 24 4e 5a 10 00 	movl   $0x105a4e,(%esp)
  10494e:	e8 d4 03 00 00       	call   104d27 <panic>
  104953:	eb 01                	jmp    104956 <kfree_page+0x64>
  104955:	90                   	nop
  104956:	c9                   	leave  
  104957:	c3                   	ret    

00104958 <itoa>:
  104958:	55                   	push   %ebp
  104959:	89 e5                	mov    %esp,%ebp
  10495b:	53                   	push   %ebx
  10495c:	83 ec 14             	sub    $0x14,%esp
  10495f:	83 7d 0c 00          	cmpl   $0x0,0xc(%ebp)
  104963:	75 17                	jne    10497c <itoa+0x24>
  104965:	8b 45 08             	mov    0x8(%ebp),%eax
  104968:	c6 00 30             	movb   $0x30,(%eax)
  10496b:	8b 45 08             	mov    0x8(%ebp),%eax
  10496e:	83 c0 01             	add    $0x1,%eax
  104971:	c6 00 00             	movb   $0x0,(%eax)
  104974:	8b 45 08             	mov    0x8(%ebp),%eax
  104977:	e9 b6 00 00 00       	jmp    104a32 <itoa+0xda>
  10497c:	83 7d 0c 00          	cmpl   $0x0,0xc(%ebp)
  104980:	74 07                	je     104989 <itoa+0x31>
  104982:	b8 2b 00 00 00       	mov    $0x2b,%eax
  104987:	eb 05                	jmp    10498e <itoa+0x36>
  104989:	b8 2d 00 00 00       	mov    $0x2d,%eax
  10498e:	8b 55 08             	mov    0x8(%ebp),%edx
  104991:	88 02                	mov    %al,(%edx)
  104993:	c7 45 f8 01 00 00 00 	movl   $0x1,-0x8(%ebp)
  10499a:	eb 47                	jmp    1049e3 <itoa+0x8b>
  10499c:	8b 45 f8             	mov    -0x8(%ebp),%eax
  10499f:	89 c3                	mov    %eax,%ebx
  1049a1:	03 5d 08             	add    0x8(%ebp),%ebx
  1049a4:	8b 4d 0c             	mov    0xc(%ebp),%ecx
  1049a7:	ba cd cc cc cc       	mov    $0xcccccccd,%edx
  1049ac:	89 c8                	mov    %ecx,%eax
  1049ae:	f7 e2                	mul    %edx
  1049b0:	c1 ea 03             	shr    $0x3,%edx
  1049b3:	89 d0                	mov    %edx,%eax
  1049b5:	c1 e0 02             	shl    $0x2,%eax
  1049b8:	01 d0                	add    %edx,%eax
  1049ba:	01 c0                	add    %eax,%eax
  1049bc:	89 ca                	mov    %ecx,%edx
  1049be:	29 c2                	sub    %eax,%edx
  1049c0:	89 d0                	mov    %edx,%eax
  1049c2:	83 c0 30             	add    $0x30,%eax
  1049c5:	88 03                	mov    %al,(%ebx)
  1049c7:	83 45 f8 01          	addl   $0x1,-0x8(%ebp)
  1049cb:	8b 45 0c             	mov    0xc(%ebp),%eax
  1049ce:	89 45 e8             	mov    %eax,-0x18(%ebp)
  1049d1:	ba cd cc cc cc       	mov    $0xcccccccd,%edx
  1049d6:	8b 45 e8             	mov    -0x18(%ebp),%eax
  1049d9:	f7 e2                	mul    %edx
  1049db:	89 d0                	mov    %edx,%eax
  1049dd:	c1 e8 03             	shr    $0x3,%eax
  1049e0:	89 45 0c             	mov    %eax,0xc(%ebp)
  1049e3:	83 7d 0c 00          	cmpl   $0x0,0xc(%ebp)
  1049e7:	75 b3                	jne    10499c <itoa+0x44>
  1049e9:	83 6d f8 01          	subl   $0x1,-0x8(%ebp)
  1049ed:	c7 45 f4 01 00 00 00 	movl   $0x1,-0xc(%ebp)
  1049f4:	eb 31                	jmp    104a27 <itoa+0xcf>
  1049f6:	8b 45 f8             	mov    -0x8(%ebp),%eax
  1049f9:	03 45 08             	add    0x8(%ebp),%eax
  1049fc:	0f b6 00             	movzbl (%eax),%eax
  1049ff:	88 45 f3             	mov    %al,-0xd(%ebp)
  104a02:	8b 45 f8             	mov    -0x8(%ebp),%eax
  104a05:	03 45 08             	add    0x8(%ebp),%eax
  104a08:	8b 55 f4             	mov    -0xc(%ebp),%edx
  104a0b:	03 55 08             	add    0x8(%ebp),%edx
  104a0e:	0f b6 12             	movzbl (%edx),%edx
  104a11:	88 10                	mov    %dl,(%eax)
  104a13:	8b 45 f4             	mov    -0xc(%ebp),%eax
  104a16:	03 45 08             	add    0x8(%ebp),%eax
  104a19:	0f b6 55 f3          	movzbl -0xd(%ebp),%edx
  104a1d:	88 10                	mov    %dl,(%eax)
  104a1f:	83 45 f4 01          	addl   $0x1,-0xc(%ebp)
  104a23:	83 6d f8 01          	subl   $0x1,-0x8(%ebp)
  104a27:	8b 45 f4             	mov    -0xc(%ebp),%eax
  104a2a:	3b 45 f8             	cmp    -0x8(%ebp),%eax
  104a2d:	7c c7                	jl     1049f6 <itoa+0x9e>
  104a2f:	8b 45 08             	mov    0x8(%ebp),%eax
  104a32:	83 c4 14             	add    $0x14,%esp
  104a35:	5b                   	pop    %ebx
  104a36:	5d                   	pop    %ebp
  104a37:	c3                   	ret    

00104a38 <itoah>:
  104a38:	55                   	push   %ebp
  104a39:	89 e5                	mov    %esp,%ebp
  104a3b:	53                   	push   %ebx
  104a3c:	83 ec 10             	sub    $0x10,%esp
  104a3f:	8b 45 08             	mov    0x8(%ebp),%eax
  104a42:	c6 00 30             	movb   $0x30,(%eax)
  104a45:	8b 45 08             	mov    0x8(%ebp),%eax
  104a48:	83 c0 01             	add    $0x1,%eax
  104a4b:	c6 00 78             	movb   $0x78,(%eax)
  104a4e:	8b 45 10             	mov    0x10(%ebp),%eax
  104a51:	83 e8 04             	sub    $0x4,%eax
  104a54:	89 45 f8             	mov    %eax,-0x8(%ebp)
  104a57:	c7 45 f4 02 00 00 00 	movl   $0x2,-0xc(%ebp)
  104a5e:	eb 40                	jmp    104aa0 <itoah+0x68>
  104a60:	8b 45 f8             	mov    -0x8(%ebp),%eax
  104a63:	8b 55 0c             	mov    0xc(%ebp),%edx
  104a66:	89 d3                	mov    %edx,%ebx
  104a68:	89 c1                	mov    %eax,%ecx
  104a6a:	d3 eb                	shr    %cl,%ebx
  104a6c:	89 d8                	mov    %ebx,%eax
  104a6e:	83 e0 0f             	and    $0xf,%eax
  104a71:	89 45 f0             	mov    %eax,-0x10(%ebp)
  104a74:	83 7d f0 09          	cmpl   $0x9,-0x10(%ebp)
  104a78:	7f 10                	jg     104a8a <itoah+0x52>
  104a7a:	8b 45 f4             	mov    -0xc(%ebp),%eax
  104a7d:	03 45 08             	add    0x8(%ebp),%eax
  104a80:	8b 55 f0             	mov    -0x10(%ebp),%edx
  104a83:	83 c2 30             	add    $0x30,%edx
  104a86:	88 10                	mov    %dl,(%eax)
  104a88:	eb 0e                	jmp    104a98 <itoah+0x60>
  104a8a:	8b 45 f4             	mov    -0xc(%ebp),%eax
  104a8d:	03 45 08             	add    0x8(%ebp),%eax
  104a90:	8b 55 f0             	mov    -0x10(%ebp),%edx
  104a93:	83 c2 37             	add    $0x37,%edx
  104a96:	88 10                	mov    %dl,(%eax)
  104a98:	83 6d f8 04          	subl   $0x4,-0x8(%ebp)
  104a9c:	83 45 f4 01          	addl   $0x1,-0xc(%ebp)
  104aa0:	83 7d f8 00          	cmpl   $0x0,-0x8(%ebp)
  104aa4:	79 ba                	jns    104a60 <itoah+0x28>
  104aa6:	8b 45 f4             	mov    -0xc(%ebp),%eax
  104aa9:	03 45 08             	add    0x8(%ebp),%eax
  104aac:	c6 00 00             	movb   $0x0,(%eax)
  104aaf:	8b 45 08             	mov    0x8(%ebp),%eax
  104ab2:	83 c4 10             	add    $0x10,%esp
  104ab5:	5b                   	pop    %ebx
  104ab6:	5d                   	pop    %ebp
  104ab7:	c3                   	ret    

00104ab8 <strcpy>:
  104ab8:	55                   	push   %ebp
  104ab9:	89 e5                	mov    %esp,%ebp
  104abb:	eb 13                	jmp    104ad0 <strcpy+0x18>
  104abd:	8b 45 0c             	mov    0xc(%ebp),%eax
  104ac0:	0f b6 10             	movzbl (%eax),%edx
  104ac3:	8b 45 08             	mov    0x8(%ebp),%eax
  104ac6:	88 10                	mov    %dl,(%eax)
  104ac8:	83 45 08 01          	addl   $0x1,0x8(%ebp)
  104acc:	83 45 0c 01          	addl   $0x1,0xc(%ebp)
  104ad0:	83 7d 10 00          	cmpl   $0x0,0x10(%ebp)
  104ad4:	0f 95 c0             	setne  %al
  104ad7:	83 6d 10 01          	subl   $0x1,0x10(%ebp)
  104adb:	84 c0                	test   %al,%al
  104add:	75 de                	jne    104abd <strcpy+0x5>
  104adf:	b8 00 00 00 00       	mov    $0x0,%eax
  104ae4:	5d                   	pop    %ebp
  104ae5:	c3                   	ret    

00104ae6 <strcmp>:
  104ae6:	55                   	push   %ebp
  104ae7:	89 e5                	mov    %esp,%ebp
  104ae9:	83 ec 10             	sub    $0x10,%esp
  104aec:	c7 45 fc 00 00 00 00 	movl   $0x0,-0x4(%ebp)
  104af3:	c7 45 f8 00 00 00 00 	movl   $0x0,-0x8(%ebp)
  104afa:	c7 45 fc 00 00 00 00 	movl   $0x0,-0x4(%ebp)
  104b01:	eb 32                	jmp    104b35 <strcmp+0x4f>
  104b03:	8b 45 08             	mov    0x8(%ebp),%eax
  104b06:	0f b6 00             	movzbl (%eax),%eax
  104b09:	0f be d0             	movsbl %al,%edx
  104b0c:	8b 45 0c             	mov    0xc(%ebp),%eax
  104b0f:	0f b6 00             	movzbl (%eax),%eax
  104b12:	0f be c0             	movsbl %al,%eax
  104b15:	89 d1                	mov    %edx,%ecx
  104b17:	29 c1                	sub    %eax,%ecx
  104b19:	89 c8                	mov    %ecx,%eax
  104b1b:	89 45 f8             	mov    %eax,-0x8(%ebp)
  104b1e:	83 7d f8 00          	cmpl   $0x0,-0x8(%ebp)
  104b22:	74 05                	je     104b29 <strcmp+0x43>
  104b24:	8b 45 f8             	mov    -0x8(%ebp),%eax
  104b27:	eb 17                	jmp    104b40 <strcmp+0x5a>
  104b29:	83 45 08 01          	addl   $0x1,0x8(%ebp)
  104b2d:	83 45 0c 01          	addl   $0x1,0xc(%ebp)
  104b31:	83 45 fc 01          	addl   $0x1,-0x4(%ebp)
  104b35:	8b 45 fc             	mov    -0x4(%ebp),%eax
  104b38:	3b 45 10             	cmp    0x10(%ebp),%eax
  104b3b:	7c c6                	jl     104b03 <strcmp+0x1d>
  104b3d:	8b 45 f8             	mov    -0x8(%ebp),%eax
  104b40:	c9                   	leave  
  104b41:	c3                   	ret    

00104b42 <vsprintf>:
  104b42:	55                   	push   %ebp
  104b43:	89 e5                	mov    %esp,%ebp
  104b45:	83 ec 1c             	sub    $0x1c,%esp
  104b48:	c7 45 fc 00 00 00 00 	movl   $0x0,-0x4(%ebp)
  104b4f:	e9 fc 00 00 00       	jmp    104c50 <vsprintf+0x10e>
  104b54:	8b 45 0c             	mov    0xc(%ebp),%eax
  104b57:	0f b6 00             	movzbl (%eax),%eax
  104b5a:	3c 25                	cmp    $0x25,%al
  104b5c:	0f 85 d8 00 00 00    	jne    104c3a <vsprintf+0xf8>
  104b62:	83 45 0c 01          	addl   $0x1,0xc(%ebp)
  104b66:	8b 45 0c             	mov    0xc(%ebp),%eax
  104b69:	0f b6 00             	movzbl (%eax),%eax
  104b6c:	0f be c0             	movsbl %al,%eax
  104b6f:	83 f8 73             	cmp    $0x73,%eax
  104b72:	74 4d                	je     104bc1 <vsprintf+0x7f>
  104b74:	83 f8 78             	cmp    $0x78,%eax
  104b77:	74 7a                	je     104bf3 <vsprintf+0xb1>
  104b79:	83 f8 64             	cmp    $0x64,%eax
  104b7c:	0f 85 b1 00 00 00    	jne    104c33 <vsprintf+0xf1>
  104b82:	8b 45 10             	mov    0x10(%ebp),%eax
  104b85:	8d 50 04             	lea    0x4(%eax),%edx
  104b88:	89 55 10             	mov    %edx,0x10(%ebp)
  104b8b:	8b 00                	mov    (%eax),%eax
  104b8d:	89 45 f4             	mov    %eax,-0xc(%ebp)
  104b90:	8b 55 f4             	mov    -0xc(%ebp),%edx
  104b93:	8b 45 fc             	mov    -0x4(%ebp),%eax
  104b96:	03 45 08             	add    0x8(%ebp),%eax
  104b99:	89 54 24 04          	mov    %edx,0x4(%esp)
  104b9d:	89 04 24             	mov    %eax,(%esp)
  104ba0:	e8 b3 fd ff ff       	call   104958 <itoa>
  104ba5:	90                   	nop
  104ba6:	8b 45 fc             	mov    -0x4(%ebp),%eax
  104ba9:	03 45 08             	add    0x8(%ebp),%eax
  104bac:	0f b6 00             	movzbl (%eax),%eax
  104baf:	84 c0                	test   %al,%al
  104bb1:	0f 95 c0             	setne  %al
  104bb4:	83 45 fc 01          	addl   $0x1,-0x4(%ebp)
  104bb8:	84 c0                	test   %al,%al
  104bba:	75 ea                	jne    104ba6 <vsprintf+0x64>
  104bbc:	e9 8b 00 00 00       	jmp    104c4c <vsprintf+0x10a>
  104bc1:	8b 45 10             	mov    0x10(%ebp),%eax
  104bc4:	8d 50 04             	lea    0x4(%eax),%edx
  104bc7:	89 55 10             	mov    %edx,0x10(%ebp)
  104bca:	8b 00                	mov    (%eax),%eax
  104bcc:	89 45 f8             	mov    %eax,-0x8(%ebp)
  104bcf:	eb 16                	jmp    104be7 <vsprintf+0xa5>
  104bd1:	8b 45 fc             	mov    -0x4(%ebp),%eax
  104bd4:	03 45 08             	add    0x8(%ebp),%eax
  104bd7:	8b 55 f8             	mov    -0x8(%ebp),%edx
  104bda:	0f b6 12             	movzbl (%edx),%edx
  104bdd:	88 10                	mov    %dl,(%eax)
  104bdf:	83 45 fc 01          	addl   $0x1,-0x4(%ebp)
  104be3:	83 45 f8 01          	addl   $0x1,-0x8(%ebp)
  104be7:	8b 45 f8             	mov    -0x8(%ebp),%eax
  104bea:	0f b6 00             	movzbl (%eax),%eax
  104bed:	84 c0                	test   %al,%al
  104bef:	75 e0                	jne    104bd1 <vsprintf+0x8f>
  104bf1:	eb 59                	jmp    104c4c <vsprintf+0x10a>
  104bf3:	8b 45 10             	mov    0x10(%ebp),%eax
  104bf6:	8d 50 04             	lea    0x4(%eax),%edx
  104bf9:	89 55 10             	mov    %edx,0x10(%ebp)
  104bfc:	8b 00                	mov    (%eax),%eax
  104bfe:	89 45 f4             	mov    %eax,-0xc(%ebp)
  104c01:	8b 55 f4             	mov    -0xc(%ebp),%edx
  104c04:	8b 45 fc             	mov    -0x4(%ebp),%eax
  104c07:	03 45 08             	add    0x8(%ebp),%eax
  104c0a:	c7 44 24 08 20 00 00 	movl   $0x20,0x8(%esp)
  104c11:	00 
  104c12:	89 54 24 04          	mov    %edx,0x4(%esp)
  104c16:	89 04 24             	mov    %eax,(%esp)
  104c19:	e8 1a fe ff ff       	call   104a38 <itoah>
  104c1e:	eb 04                	jmp    104c24 <vsprintf+0xe2>
  104c20:	83 45 fc 01          	addl   $0x1,-0x4(%ebp)
  104c24:	8b 45 fc             	mov    -0x4(%ebp),%eax
  104c27:	03 45 08             	add    0x8(%ebp),%eax
  104c2a:	0f b6 00             	movzbl (%eax),%eax
  104c2d:	84 c0                	test   %al,%al
  104c2f:	75 ef                	jne    104c20 <vsprintf+0xde>
  104c31:	eb 19                	jmp    104c4c <vsprintf+0x10a>
  104c33:	b8 ff ff ff ff       	mov    $0xffffffff,%eax
  104c38:	eb 2d                	jmp    104c67 <vsprintf+0x125>
  104c3a:	8b 45 fc             	mov    -0x4(%ebp),%eax
  104c3d:	03 45 08             	add    0x8(%ebp),%eax
  104c40:	8b 55 0c             	mov    0xc(%ebp),%edx
  104c43:	0f b6 12             	movzbl (%edx),%edx
  104c46:	88 10                	mov    %dl,(%eax)
  104c48:	83 45 fc 01          	addl   $0x1,-0x4(%ebp)
  104c4c:	83 45 0c 01          	addl   $0x1,0xc(%ebp)
  104c50:	8b 45 0c             	mov    0xc(%ebp),%eax
  104c53:	0f b6 00             	movzbl (%eax),%eax
  104c56:	84 c0                	test   %al,%al
  104c58:	0f 85 f6 fe ff ff    	jne    104b54 <vsprintf+0x12>
  104c5e:	8b 45 fc             	mov    -0x4(%ebp),%eax
  104c61:	03 45 08             	add    0x8(%ebp),%eax
  104c64:	c6 00 00             	movb   $0x0,(%eax)
  104c67:	c9                   	leave  
  104c68:	c3                   	ret    

00104c69 <sprintf>:
  104c69:	55                   	push   %ebp
  104c6a:	89 e5                	mov    %esp,%ebp
  104c6c:	83 ec 1c             	sub    $0x1c,%esp
  104c6f:	8d 45 10             	lea    0x10(%ebp),%eax
  104c72:	89 45 fc             	mov    %eax,-0x4(%ebp)
  104c75:	8b 45 fc             	mov    -0x4(%ebp),%eax
  104c78:	89 44 24 08          	mov    %eax,0x8(%esp)
  104c7c:	8b 45 0c             	mov    0xc(%ebp),%eax
  104c7f:	89 44 24 04          	mov    %eax,0x4(%esp)
  104c83:	8b 45 08             	mov    0x8(%ebp),%eax
  104c86:	89 04 24             	mov    %eax,(%esp)
  104c89:	e8 b4 fe ff ff       	call   104b42 <vsprintf>
  104c8e:	c9                   	leave  
  104c8f:	c3                   	ret    

00104c90 <printf>:
  104c90:	55                   	push   %ebp
  104c91:	89 e5                	mov    %esp,%ebp
  104c93:	57                   	push   %edi
  104c94:	53                   	push   %ebx
  104c95:	83 ec 7c             	sub    $0x7c,%esp
  104c98:	8d 5d 94             	lea    -0x6c(%ebp),%ebx
  104c9b:	b8 00 00 00 00       	mov    $0x0,%eax
  104ca0:	ba 19 00 00 00       	mov    $0x19,%edx
  104ca5:	89 df                	mov    %ebx,%edi
  104ca7:	89 d1                	mov    %edx,%ecx
  104ca9:	f3 ab                	rep stos %eax,%es:(%edi)
  104cab:	8d 45 0c             	lea    0xc(%ebp),%eax
  104cae:	89 45 90             	mov    %eax,-0x70(%ebp)
  104cb1:	8b 45 90             	mov    -0x70(%ebp),%eax
  104cb4:	89 44 24 08          	mov    %eax,0x8(%esp)
  104cb8:	8b 45 08             	mov    0x8(%ebp),%eax
  104cbb:	89 44 24 04          	mov    %eax,0x4(%esp)
  104cbf:	8d 45 94             	lea    -0x6c(%ebp),%eax
  104cc2:	89 04 24             	mov    %eax,(%esp)
  104cc5:	e8 78 fe ff ff       	call   104b42 <vsprintf>
  104cca:	b8 00 00 00 00       	mov    $0x0,%eax
  104ccf:	83 c4 7c             	add    $0x7c,%esp
  104cd2:	5b                   	pop    %ebx
  104cd3:	5f                   	pop    %edi
  104cd4:	5d                   	pop    %ebp
  104cd5:	c3                   	ret    

00104cd6 <wait_time>:
  104cd6:	55                   	push   %ebp
  104cd7:	89 e5                	mov    %esp,%ebp
  104cd9:	53                   	push   %ebx
  104cda:	83 ec 14             	sub    $0x14,%esp
  104cdd:	8b 45 08             	mov    0x8(%ebp),%eax
  104ce0:	6b c0 64             	imul   $0x64,%eax,%eax
  104ce3:	89 45 08             	mov    %eax,0x8(%ebp)
  104ce6:	a1 20 75 10 00       	mov    0x107520,%eax
  104ceb:	8b 15 24 75 10 00    	mov    0x107524,%edx
  104cf1:	89 45 f0             	mov    %eax,-0x10(%ebp)
  104cf4:	89 55 f4             	mov    %edx,-0xc(%ebp)
  104cf7:	90                   	nop
  104cf8:	a1 20 75 10 00       	mov    0x107520,%eax
  104cfd:	8b 15 24 75 10 00    	mov    0x107524,%edx
  104d03:	89 c1                	mov    %eax,%ecx
  104d05:	89 d3                	mov    %edx,%ebx
  104d07:	2b 4d f0             	sub    -0x10(%ebp),%ecx
  104d0a:	1b 5d f4             	sbb    -0xc(%ebp),%ebx
  104d0d:	8b 45 08             	mov    0x8(%ebp),%eax
  104d10:	89 c2                	mov    %eax,%edx
  104d12:	c1 fa 1f             	sar    $0x1f,%edx
  104d15:	39 d3                	cmp    %edx,%ebx
  104d17:	72 df                	jb     104cf8 <wait_time+0x22>
  104d19:	39 d3                	cmp    %edx,%ebx
  104d1b:	77 04                	ja     104d21 <wait_time+0x4b>
  104d1d:	39 c1                	cmp    %eax,%ecx
  104d1f:	72 d7                	jb     104cf8 <wait_time+0x22>
  104d21:	83 c4 14             	add    $0x14,%esp
  104d24:	5b                   	pop    %ebx
  104d25:	5d                   	pop    %ebp
  104d26:	c3                   	ret    

00104d27 <panic>:
  104d27:	55                   	push   %ebp
  104d28:	89 e5                	mov    %esp,%ebp
  104d2a:	83 ec 10             	sub    $0x10,%esp
  104d2d:	8b 45 08             	mov    0x8(%ebp),%eax
  104d30:	89 45 fc             	mov    %eax,-0x4(%ebp)
  104d33:	a1 a4 6e 10 00       	mov    0x106ea4,%eax
  104d38:	89 45 f8             	mov    %eax,-0x8(%ebp)
  104d3b:	eb 25                	jmp    104d62 <panic+0x3b>
  104d3d:	8b 45 fc             	mov    -0x4(%ebp),%eax
  104d40:	0f b6 00             	movzbl (%eax),%eax
  104d43:	66 98                	cbtw   
  104d45:	80 cc 0c             	or     $0xc,%ah
  104d48:	66 89 45 f6          	mov    %ax,-0xa(%ebp)
  104d4c:	8b 45 f8             	mov    -0x8(%ebp),%eax
  104d4f:	8d 14 00             	lea    (%eax,%eax,1),%edx
  104d52:	0f b7 45 f6          	movzwl -0xa(%ebp),%eax
  104d56:	65 66 89 02          	mov    %ax,%gs:(%edx)
  104d5a:	83 45 fc 01          	addl   $0x1,-0x4(%ebp)
  104d5e:	83 45 f8 01          	addl   $0x1,-0x8(%ebp)
  104d62:	8b 45 fc             	mov    -0x4(%ebp),%eax
  104d65:	0f b6 00             	movzbl (%eax),%eax
  104d68:	84 c0                	test   %al,%al
  104d6a:	75 d1                	jne    104d3d <panic+0x16>
  104d6c:	a1 a4 6e 10 00       	mov    0x106ea4,%eax
  104d71:	83 c0 50             	add    $0x50,%eax
  104d74:	a3 a4 6e 10 00       	mov    %eax,0x106ea4
  104d79:	eb fe                	jmp    104d79 <panic+0x52>
  104d7b:	90                   	nop

00104d7c <init_time>:
  104d7c:	55                   	push   %ebp
  104d7d:	89 e5                	mov    %esp,%ebp
  104d7f:	53                   	push   %ebx
  104d80:	83 ec 44             	sub    $0x44,%esp
  104d83:	ba 70 00 00 00       	mov    $0x70,%edx
  104d88:	b8 80 00 00 00       	mov    $0x80,%eax
  104d8d:	ee                   	out    %al,(%dx)
  104d8e:	90                   	nop
  104d8f:	90                   	nop
  104d90:	90                   	nop
  104d91:	90                   	nop
  104d92:	c7 45 d4 71 00 00 00 	movl   $0x71,-0x2c(%ebp)
  104d99:	8b 55 d4             	mov    -0x2c(%ebp),%edx
  104d9c:	ec                   	in     (%dx),%al
  104d9d:	90                   	nop
  104d9e:	90                   	nop
  104d9f:	90                   	nop
  104da0:	90                   	nop
  104da1:	89 c3                	mov    %eax,%ebx
  104da3:	88 5d eb             	mov    %bl,-0x15(%ebp)
  104da6:	0f b6 45 eb          	movzbl -0x15(%ebp),%eax
  104daa:	0f b6 c0             	movzbl %al,%eax
  104dad:	a3 80 11 15 00       	mov    %eax,0x151180
  104db2:	ba 70 00 00 00       	mov    $0x70,%edx
  104db7:	b8 82 00 00 00       	mov    $0x82,%eax
  104dbc:	ee                   	out    %al,(%dx)
  104dbd:	90                   	nop
  104dbe:	90                   	nop
  104dbf:	90                   	nop
  104dc0:	90                   	nop
  104dc1:	c7 45 d4 71 00 00 00 	movl   $0x71,-0x2c(%ebp)
  104dc8:	8b 55 d4             	mov    -0x2c(%ebp),%edx
  104dcb:	ec                   	in     (%dx),%al
  104dcc:	90                   	nop
  104dcd:	90                   	nop
  104dce:	90                   	nop
  104dcf:	90                   	nop
  104dd0:	89 c3                	mov    %eax,%ebx
  104dd2:	88 5d ea             	mov    %bl,-0x16(%ebp)
  104dd5:	0f b6 45 ea          	movzbl -0x16(%ebp),%eax
  104dd9:	0f b6 c0             	movzbl %al,%eax
  104ddc:	a3 84 11 15 00       	mov    %eax,0x151184
  104de1:	ba 70 00 00 00       	mov    $0x70,%edx
  104de6:	b8 84 00 00 00       	mov    $0x84,%eax
  104deb:	ee                   	out    %al,(%dx)
  104dec:	90                   	nop
  104ded:	90                   	nop
  104dee:	90                   	nop
  104def:	90                   	nop
  104df0:	c7 45 d4 71 00 00 00 	movl   $0x71,-0x2c(%ebp)
  104df7:	8b 55 d4             	mov    -0x2c(%ebp),%edx
  104dfa:	ec                   	in     (%dx),%al
  104dfb:	90                   	nop
  104dfc:	90                   	nop
  104dfd:	90                   	nop
  104dfe:	90                   	nop
  104dff:	89 c3                	mov    %eax,%ebx
  104e01:	88 5d e9             	mov    %bl,-0x17(%ebp)
  104e04:	0f b6 45 e9          	movzbl -0x17(%ebp),%eax
  104e08:	0f b6 c0             	movzbl %al,%eax
  104e0b:	a3 88 11 15 00       	mov    %eax,0x151188
  104e10:	ba 70 00 00 00       	mov    $0x70,%edx
  104e15:	b8 87 00 00 00       	mov    $0x87,%eax
  104e1a:	ee                   	out    %al,(%dx)
  104e1b:	90                   	nop
  104e1c:	90                   	nop
  104e1d:	90                   	nop
  104e1e:	90                   	nop
  104e1f:	c7 45 d4 71 00 00 00 	movl   $0x71,-0x2c(%ebp)
  104e26:	8b 55 d4             	mov    -0x2c(%ebp),%edx
  104e29:	ec                   	in     (%dx),%al
  104e2a:	90                   	nop
  104e2b:	90                   	nop
  104e2c:	90                   	nop
  104e2d:	90                   	nop
  104e2e:	89 c3                	mov    %eax,%ebx
  104e30:	88 5d e8             	mov    %bl,-0x18(%ebp)
  104e33:	0f b6 45 e8          	movzbl -0x18(%ebp),%eax
  104e37:	0f b6 c0             	movzbl %al,%eax
  104e3a:	a3 8c 11 15 00       	mov    %eax,0x15118c
  104e3f:	ba 70 00 00 00       	mov    $0x70,%edx
  104e44:	b8 88 00 00 00       	mov    $0x88,%eax
  104e49:	ee                   	out    %al,(%dx)
  104e4a:	90                   	nop
  104e4b:	90                   	nop
  104e4c:	90                   	nop
  104e4d:	90                   	nop
  104e4e:	c7 45 d4 71 00 00 00 	movl   $0x71,-0x2c(%ebp)
  104e55:	8b 55 d4             	mov    -0x2c(%ebp),%edx
  104e58:	ec                   	in     (%dx),%al
  104e59:	90                   	nop
  104e5a:	90                   	nop
  104e5b:	90                   	nop
  104e5c:	90                   	nop
  104e5d:	89 c3                	mov    %eax,%ebx
  104e5f:	88 5d e7             	mov    %bl,-0x19(%ebp)
  104e62:	0f b6 45 e7          	movzbl -0x19(%ebp),%eax
  104e66:	0f b6 c0             	movzbl %al,%eax
  104e69:	a3 90 11 15 00       	mov    %eax,0x151190
  104e6e:	ba 70 00 00 00       	mov    $0x70,%edx
  104e73:	b8 89 00 00 00       	mov    $0x89,%eax
  104e78:	ee                   	out    %al,(%dx)
  104e79:	90                   	nop
  104e7a:	90                   	nop
  104e7b:	90                   	nop
  104e7c:	90                   	nop
  104e7d:	c7 45 d4 71 00 00 00 	movl   $0x71,-0x2c(%ebp)
  104e84:	8b 55 d4             	mov    -0x2c(%ebp),%edx
  104e87:	ec                   	in     (%dx),%al
  104e88:	90                   	nop
  104e89:	90                   	nop
  104e8a:	90                   	nop
  104e8b:	90                   	nop
  104e8c:	89 c3                	mov    %eax,%ebx
  104e8e:	88 5d e6             	mov    %bl,-0x1a(%ebp)
  104e91:	0f b6 45 e6          	movzbl -0x1a(%ebp),%eax
  104e95:	0f b6 c0             	movzbl %al,%eax
  104e98:	a3 94 11 15 00       	mov    %eax,0x151194
  104e9d:	a1 80 11 15 00       	mov    0x151180,%eax
  104ea2:	89 c1                	mov    %eax,%ecx
  104ea4:	83 e1 0f             	and    $0xf,%ecx
  104ea7:	a1 80 11 15 00       	mov    0x151180,%eax
  104eac:	89 c2                	mov    %eax,%edx
  104eae:	c1 fa 04             	sar    $0x4,%edx
  104eb1:	89 d0                	mov    %edx,%eax
  104eb3:	c1 e0 02             	shl    $0x2,%eax
  104eb6:	01 d0                	add    %edx,%eax
  104eb8:	01 c0                	add    %eax,%eax
  104eba:	8d 04 01             	lea    (%ecx,%eax,1),%eax
  104ebd:	a3 80 11 15 00       	mov    %eax,0x151180
  104ec2:	a1 84 11 15 00       	mov    0x151184,%eax
  104ec7:	89 c1                	mov    %eax,%ecx
  104ec9:	83 e1 0f             	and    $0xf,%ecx
  104ecc:	a1 84 11 15 00       	mov    0x151184,%eax
  104ed1:	89 c2                	mov    %eax,%edx
  104ed3:	c1 fa 04             	sar    $0x4,%edx
  104ed6:	89 d0                	mov    %edx,%eax
  104ed8:	c1 e0 02             	shl    $0x2,%eax
  104edb:	01 d0                	add    %edx,%eax
  104edd:	01 c0                	add    %eax,%eax
  104edf:	8d 04 01             	lea    (%ecx,%eax,1),%eax
  104ee2:	a3 84 11 15 00       	mov    %eax,0x151184
  104ee7:	a1 88 11 15 00       	mov    0x151188,%eax
  104eec:	89 c1                	mov    %eax,%ecx
  104eee:	83 e1 0f             	and    $0xf,%ecx
  104ef1:	a1 88 11 15 00       	mov    0x151188,%eax
  104ef6:	89 c2                	mov    %eax,%edx
  104ef8:	c1 fa 04             	sar    $0x4,%edx
  104efb:	89 d0                	mov    %edx,%eax
  104efd:	c1 e0 02             	shl    $0x2,%eax
  104f00:	01 d0                	add    %edx,%eax
  104f02:	01 c0                	add    %eax,%eax
  104f04:	8d 04 01             	lea    (%ecx,%eax,1),%eax
  104f07:	a3 88 11 15 00       	mov    %eax,0x151188
  104f0c:	a1 8c 11 15 00       	mov    0x15118c,%eax
  104f11:	89 c1                	mov    %eax,%ecx
  104f13:	83 e1 0f             	and    $0xf,%ecx
  104f16:	a1 8c 11 15 00       	mov    0x15118c,%eax
  104f1b:	89 c2                	mov    %eax,%edx
  104f1d:	c1 fa 04             	sar    $0x4,%edx
  104f20:	89 d0                	mov    %edx,%eax
  104f22:	c1 e0 02             	shl    $0x2,%eax
  104f25:	01 d0                	add    %edx,%eax
  104f27:	01 c0                	add    %eax,%eax
  104f29:	8d 04 01             	lea    (%ecx,%eax,1),%eax
  104f2c:	a3 8c 11 15 00       	mov    %eax,0x15118c
  104f31:	a1 90 11 15 00       	mov    0x151190,%eax
  104f36:	89 c1                	mov    %eax,%ecx
  104f38:	83 e1 0f             	and    $0xf,%ecx
  104f3b:	a1 90 11 15 00       	mov    0x151190,%eax
  104f40:	89 c2                	mov    %eax,%edx
  104f42:	c1 fa 04             	sar    $0x4,%edx
  104f45:	89 d0                	mov    %edx,%eax
  104f47:	c1 e0 02             	shl    $0x2,%eax
  104f4a:	01 d0                	add    %edx,%eax
  104f4c:	01 c0                	add    %eax,%eax
  104f4e:	8d 04 01             	lea    (%ecx,%eax,1),%eax
  104f51:	a3 90 11 15 00       	mov    %eax,0x151190
  104f56:	a1 94 11 15 00       	mov    0x151194,%eax
  104f5b:	89 c1                	mov    %eax,%ecx
  104f5d:	83 e1 0f             	and    $0xf,%ecx
  104f60:	a1 94 11 15 00       	mov    0x151194,%eax
  104f65:	89 c2                	mov    %eax,%edx
  104f67:	c1 fa 04             	sar    $0x4,%edx
  104f6a:	89 d0                	mov    %edx,%eax
  104f6c:	c1 e0 02             	shl    $0x2,%eax
  104f6f:	01 d0                	add    %edx,%eax
  104f71:	01 c0                	add    %eax,%eax
  104f73:	8d 04 01             	lea    (%ecx,%eax,1),%eax
  104f76:	a3 94 11 15 00       	mov    %eax,0x151194
  104f7b:	c7 45 f4 94 11 15 00 	movl   $0x151194,-0xc(%ebp)
  104f82:	c7 45 f0 e0 15 15 00 	movl   $0x1515e0,-0x10(%ebp)
  104f89:	c7 45 ec 00 00 00 00 	movl   $0x0,-0x14(%ebp)
  104f90:	eb 6d                	jmp    104fff <init_time+0x283>
  104f92:	8b 45 f4             	mov    -0xc(%ebp),%eax
  104f95:	8b 08                	mov    (%eax),%ecx
  104f97:	ba 67 66 66 66       	mov    $0x66666667,%edx
  104f9c:	89 c8                	mov    %ecx,%eax
  104f9e:	f7 ea                	imul   %edx
  104fa0:	c1 fa 02             	sar    $0x2,%edx
  104fa3:	89 c8                	mov    %ecx,%eax
  104fa5:	c1 f8 1f             	sar    $0x1f,%eax
  104fa8:	89 d1                	mov    %edx,%ecx
  104faa:	29 c1                	sub    %eax,%ecx
  104fac:	89 c8                	mov    %ecx,%eax
  104fae:	83 c0 30             	add    $0x30,%eax
  104fb1:	89 c2                	mov    %eax,%edx
  104fb3:	8b 45 f0             	mov    -0x10(%ebp),%eax
  104fb6:	88 10                	mov    %dl,(%eax)
  104fb8:	8b 45 f0             	mov    -0x10(%ebp),%eax
  104fbb:	8d 58 01             	lea    0x1(%eax),%ebx
  104fbe:	8b 45 f4             	mov    -0xc(%ebp),%eax
  104fc1:	8b 08                	mov    (%eax),%ecx
  104fc3:	ba 67 66 66 66       	mov    $0x66666667,%edx
  104fc8:	89 c8                	mov    %ecx,%eax
  104fca:	f7 ea                	imul   %edx
  104fcc:	c1 fa 02             	sar    $0x2,%edx
  104fcf:	89 c8                	mov    %ecx,%eax
  104fd1:	c1 f8 1f             	sar    $0x1f,%eax
  104fd4:	29 c2                	sub    %eax,%edx
  104fd6:	89 d0                	mov    %edx,%eax
  104fd8:	c1 e0 02             	shl    $0x2,%eax
  104fdb:	01 d0                	add    %edx,%eax
  104fdd:	01 c0                	add    %eax,%eax
  104fdf:	89 ca                	mov    %ecx,%edx
  104fe1:	29 c2                	sub    %eax,%edx
  104fe3:	89 d0                	mov    %edx,%eax
  104fe5:	83 c0 30             	add    $0x30,%eax
  104fe8:	88 03                	mov    %al,(%ebx)
  104fea:	8b 45 f0             	mov    -0x10(%ebp),%eax
  104fed:	83 c0 02             	add    $0x2,%eax
  104ff0:	c6 00 2d             	movb   $0x2d,(%eax)
  104ff3:	83 45 ec 01          	addl   $0x1,-0x14(%ebp)
  104ff7:	83 45 f0 03          	addl   $0x3,-0x10(%ebp)
  104ffb:	83 6d f4 04          	subl   $0x4,-0xc(%ebp)
  104fff:	83 7d ec 05          	cmpl   $0x5,-0x14(%ebp)
  105003:	7e 8d                	jle    104f92 <init_time+0x216>
  105005:	c7 44 24 08 00 00 00 	movl   $0x0,0x8(%esp)
  10500c:	00 
  10500d:	c7 44 24 04 11 00 00 	movl   $0x11,0x4(%esp)
  105014:	00 
  105015:	c7 04 24 e0 15 15 00 	movl   $0x1515e0,(%esp)
  10501c:	e8 62 e8 ff ff       	call   103883 <print_str>
  105021:	a1 90 11 15 00       	mov    0x151190,%eax
  105026:	83 e8 01             	sub    $0x1,%eax
  105029:	a3 90 11 15 00       	mov    %eax,0x151190
  10502e:	c7 04 24 80 11 15 00 	movl   $0x151180,(%esp)
  105035:	e8 37 00 00 00       	call   105071 <mk_time>
  10503a:	a1 c0 15 15 00       	mov    0x1515c0,%eax
  10503f:	89 44 24 04          	mov    %eax,0x4(%esp)
  105043:	c7 04 24 e0 15 15 00 	movl   $0x1515e0,(%esp)
  10504a:	e8 09 f9 ff ff       	call   104958 <itoa>
  10504f:	c7 44 24 08 50 00 00 	movl   $0x50,0x8(%esp)
  105056:	00 
  105057:	c7 44 24 04 0f 00 00 	movl   $0xf,0x4(%esp)
  10505e:	00 
  10505f:	c7 04 24 e0 15 15 00 	movl   $0x1515e0,(%esp)
  105066:	e8 18 e8 ff ff       	call   103883 <print_str>
  10506b:	83 c4 44             	add    $0x44,%esp
  10506e:	5b                   	pop    %ebx
  10506f:	5d                   	pop    %ebp
  105070:	c3                   	ret    

00105071 <mk_time>:
  105071:	55                   	push   %ebp
  105072:	89 e5                	mov    %esp,%ebp
  105074:	56                   	push   %esi
  105075:	53                   	push   %ebx
  105076:	83 ec 10             	sub    $0x10,%esp
  105079:	8b 45 08             	mov    0x8(%ebp),%eax
  10507c:	8b 40 14             	mov    0x14(%eax),%eax
  10507f:	83 c0 1e             	add    $0x1e,%eax
  105082:	89 45 f4             	mov    %eax,-0xc(%ebp)
  105085:	8b 45 f4             	mov    -0xc(%ebp),%eax
  105088:	69 d8 80 33 e1 01    	imul   $0x1e13380,%eax,%ebx
  10508e:	8b 45 08             	mov    0x8(%ebp),%eax
  105091:	8b 40 14             	mov    0x14(%eax),%eax
  105094:	05 cf 07 00 00       	add    $0x7cf,%eax
  105099:	8d 50 03             	lea    0x3(%eax),%edx
  10509c:	85 c0                	test   %eax,%eax
  10509e:	0f 48 c2             	cmovs  %edx,%eax
  1050a1:	c1 f8 02             	sar    $0x2,%eax
  1050a4:	89 c6                	mov    %eax,%esi
  1050a6:	8b 45 08             	mov    0x8(%ebp),%eax
  1050a9:	8b 40 14             	mov    0x14(%eax),%eax
  1050ac:	8d 88 cf 07 00 00    	lea    0x7cf(%eax),%ecx
  1050b2:	ba 1f 85 eb 51       	mov    $0x51eb851f,%edx
  1050b7:	89 c8                	mov    %ecx,%eax
  1050b9:	f7 ea                	imul   %edx
  1050bb:	c1 fa 05             	sar    $0x5,%edx
  1050be:	89 c8                	mov    %ecx,%eax
  1050c0:	c1 f8 1f             	sar    $0x1f,%eax
  1050c3:	89 d1                	mov    %edx,%ecx
  1050c5:	29 c1                	sub    %eax,%ecx
  1050c7:	89 c8                	mov    %ecx,%eax
  1050c9:	29 c6                	sub    %eax,%esi
  1050cb:	8b 45 08             	mov    0x8(%ebp),%eax
  1050ce:	8b 40 14             	mov    0x14(%eax),%eax
  1050d1:	8d 88 cf 07 00 00    	lea    0x7cf(%eax),%ecx
  1050d7:	ba 1f 85 eb 51       	mov    $0x51eb851f,%edx
  1050dc:	89 c8                	mov    %ecx,%eax
  1050de:	f7 ea                	imul   %edx
  1050e0:	c1 fa 07             	sar    $0x7,%edx
  1050e3:	89 c8                	mov    %ecx,%eax
  1050e5:	c1 f8 1f             	sar    $0x1f,%eax
  1050e8:	89 d1                	mov    %edx,%ecx
  1050ea:	29 c1                	sub    %eax,%ecx
  1050ec:	89 c8                	mov    %ecx,%eax
  1050ee:	8d 04 06             	lea    (%esi,%eax,1),%eax
  1050f1:	8d 04 03             	lea    (%ebx,%eax,1),%eax
  1050f4:	2d dd 01 00 00       	sub    $0x1dd,%eax
  1050f9:	a3 c0 15 15 00       	mov    %eax,0x1515c0
  1050fe:	8b 45 08             	mov    0x8(%ebp),%eax
  105101:	8b 40 14             	mov    0x14(%eax),%eax
  105104:	05 d3 07 00 00       	add    $0x7d3,%eax
  105109:	83 f8 06             	cmp    $0x6,%eax
  10510c:	77 12                	ja     105120 <mk_time+0xaf>
  10510e:	8b 45 08             	mov    0x8(%ebp),%eax
  105111:	8b 40 14             	mov    0x14(%eax),%eax
  105114:	05 33 08 00 00       	add    $0x833,%eax
  105119:	3d c6 00 00 00       	cmp    $0xc6,%eax
  10511e:	77 33                	ja     105153 <mk_time+0xe2>
  105120:	8b 45 08             	mov    0x8(%ebp),%eax
  105123:	8b 40 14             	mov    0x14(%eax),%eax
  105126:	8d 88 d0 07 00 00    	lea    0x7d0(%eax),%ecx
  10512c:	ba 1f 85 eb 51       	mov    $0x51eb851f,%edx
  105131:	89 c8                	mov    %ecx,%eax
  105133:	f7 ea                	imul   %edx
  105135:	c1 fa 07             	sar    $0x7,%edx
  105138:	89 c8                	mov    %ecx,%eax
  10513a:	c1 f8 1f             	sar    $0x1f,%eax
  10513d:	89 d3                	mov    %edx,%ebx
  10513f:	29 c3                	sub    %eax,%ebx
  105141:	89 d8                	mov    %ebx,%eax
  105143:	69 c0 90 01 00 00    	imul   $0x190,%eax,%eax
  105149:	89 ca                	mov    %ecx,%edx
  10514b:	29 c2                	sub    %eax,%edx
  10514d:	89 d0                	mov    %edx,%eax
  10514f:	85 c0                	test   %eax,%eax
  105151:	75 0f                	jne    105162 <mk_time+0xf1>
  105153:	a1 c0 15 15 00       	mov    0x1515c0,%eax
  105158:	05 80 51 01 00       	add    $0x15180,%eax
  10515d:	a3 c0 15 15 00       	mov    %eax,0x1515c0
  105162:	8b 45 08             	mov    0x8(%ebp),%eax
  105165:	8b 40 10             	mov    0x10(%eax),%eax
  105168:	8b 04 85 c0 6e 10 00 	mov    0x106ec0(,%eax,4),%eax
  10516f:	89 c2                	mov    %eax,%edx
  105171:	a1 c0 15 15 00       	mov    0x1515c0,%eax
  105176:	8d 04 02             	lea    (%edx,%eax,1),%eax
  105179:	a3 c0 15 15 00       	mov    %eax,0x1515c0
  10517e:	8b 45 08             	mov    0x8(%ebp),%eax
  105181:	8b 40 0c             	mov    0xc(%eax),%eax
  105184:	69 c0 80 51 01 00    	imul   $0x15180,%eax,%eax
  10518a:	89 c2                	mov    %eax,%edx
  10518c:	a1 c0 15 15 00       	mov    0x1515c0,%eax
  105191:	8d 04 02             	lea    (%edx,%eax,1),%eax
  105194:	a3 c0 15 15 00       	mov    %eax,0x1515c0
  105199:	8b 45 08             	mov    0x8(%ebp),%eax
  10519c:	8b 40 08             	mov    0x8(%eax),%eax
  10519f:	69 c0 10 0e 00 00    	imul   $0xe10,%eax,%eax
  1051a5:	89 c2                	mov    %eax,%edx
  1051a7:	a1 c0 15 15 00       	mov    0x1515c0,%eax
  1051ac:	8d 04 02             	lea    (%edx,%eax,1),%eax
  1051af:	a3 c0 15 15 00       	mov    %eax,0x1515c0
  1051b4:	8b 45 08             	mov    0x8(%ebp),%eax
  1051b7:	8b 40 04             	mov    0x4(%eax),%eax
  1051ba:	c1 e0 02             	shl    $0x2,%eax
  1051bd:	89 c2                	mov    %eax,%edx
  1051bf:	c1 e2 04             	shl    $0x4,%edx
  1051c2:	89 d1                	mov    %edx,%ecx
  1051c4:	29 c1                	sub    %eax,%ecx
  1051c6:	89 c8                	mov    %ecx,%eax
  1051c8:	89 c2                	mov    %eax,%edx
  1051ca:	a1 c0 15 15 00       	mov    0x1515c0,%eax
  1051cf:	8d 04 02             	lea    (%edx,%eax,1),%eax
  1051d2:	a3 c0 15 15 00       	mov    %eax,0x1515c0
  1051d7:	8b 45 08             	mov    0x8(%ebp),%eax
  1051da:	8b 00                	mov    (%eax),%eax
  1051dc:	89 c2                	mov    %eax,%edx
  1051de:	a1 c0 15 15 00       	mov    0x1515c0,%eax
  1051e3:	8d 04 02             	lea    (%edx,%eax,1),%eax
  1051e6:	a3 c0 15 15 00       	mov    %eax,0x1515c0
  1051eb:	83 c4 10             	add    $0x10,%esp
  1051ee:	5b                   	pop    %ebx
  1051ef:	5e                   	pop    %esi
  1051f0:	5d                   	pop    %ebp
  1051f1:	c3                   	ret    
  1051f2:	90                   	nop
  1051f3:	90                   	nop

001051f4 <schedule>:
  1051f4:	55                   	push   %ebp
  1051f5:	89 e5                	mov    %esp,%ebp
  1051f7:	83 ec 28             	sub    $0x28,%esp
  1051fa:	a1 00 38 10 00       	mov    0x103800,%eax
  1051ff:	89 45 f4             	mov    %eax,-0xc(%ebp)
  105202:	f0 83 05 00 38 10 00 	lock addl $0x1,0x103800
  105209:	01 
  10520a:	8b 0d 00 38 10 00    	mov    0x103800,%ecx
  105210:	ba ab aa aa aa       	mov    $0xaaaaaaab,%edx
  105215:	89 c8                	mov    %ecx,%eax
  105217:	f7 e2                	mul    %edx
  105219:	d1 ea                	shr    %edx
  10521b:	89 d0                	mov    %edx,%eax
  10521d:	01 c0                	add    %eax,%eax
  10521f:	01 d0                	add    %edx,%eax
  105221:	89 ca                	mov    %ecx,%edx
  105223:	29 c2                	sub    %eax,%edx
  105225:	89 15 00 38 10 00    	mov    %edx,0x103800
  10522b:	8b 55 f4             	mov    -0xc(%ebp),%edx
  10522e:	a1 00 38 10 00       	mov    0x103800,%eax
  105233:	39 c2                	cmp    %eax,%edx
  105235:	74 16                	je     10524d <schedule+0x59>
  105237:	a1 00 38 10 00       	mov    0x103800,%eax
  10523c:	c1 e0 04             	shl    $0x4,%eax
  10523f:	83 c0 28             	add    $0x28,%eax
  105242:	89 c2                	mov    %eax,%edx
  105244:	66 89 55 f0          	mov    %dx,-0x10(%ebp)
  105248:	ff 6d ec             	ljmp   *-0x14(%ebp)
  10524b:	eb 0c                	jmp    105259 <schedule+0x65>
  10524d:	c7 04 24 63 5a 10 00 	movl   $0x105a63,(%esp)
  105254:	e8 ce fa ff ff       	call   104d27 <panic>
  105259:	c9                   	leave  
  10525a:	c3                   	ret    
  10525b:	90                   	nop

0010525c <init_hd>:
  10525c:	55                   	push   %ebp
  10525d:	89 e5                	mov    %esp,%ebp
  10525f:	53                   	push   %ebx
  105260:	83 ec 14             	sub    $0x14,%esp
  105263:	c7 45 e8 21 00 00 00 	movl   $0x21,-0x18(%ebp)
  10526a:	8b 55 e8             	mov    -0x18(%ebp),%edx
  10526d:	ec                   	in     (%dx),%al
  10526e:	90                   	nop
  10526f:	90                   	nop
  105270:	90                   	nop
  105271:	90                   	nop
  105272:	89 c3                	mov    %eax,%ebx
  105274:	88 5d fb             	mov    %bl,-0x5(%ebp)
  105277:	0f b6 45 fb          	movzbl -0x5(%ebp),%eax
  10527b:	88 45 fa             	mov    %al,-0x6(%ebp)
  10527e:	c7 45 e8 a1 00 00 00 	movl   $0xa1,-0x18(%ebp)
  105285:	8b 55 e8             	mov    -0x18(%ebp),%edx
  105288:	ec                   	in     (%dx),%al
  105289:	90                   	nop
  10528a:	90                   	nop
  10528b:	90                   	nop
  10528c:	90                   	nop
  10528d:	89 c3                	mov    %eax,%ebx
  10528f:	88 5d f9             	mov    %bl,-0x7(%ebp)
  105292:	0f b6 45 f9          	movzbl -0x7(%ebp),%eax
  105296:	88 45 f8             	mov    %al,-0x8(%ebp)
  105299:	0f b6 55 fa          	movzbl -0x6(%ebp),%edx
  10529d:	0f b6 45 f8          	movzbl -0x8(%ebp),%eax
  1052a1:	c1 e0 08             	shl    $0x8,%eax
  1052a4:	09 d0                	or     %edx,%eax
  1052a6:	66 89 45 f6          	mov    %ax,-0xa(%ebp)
  1052aa:	66 83 65 f6 fb       	andw   $0xfffffffb,-0xa(%ebp)
  1052af:	0f b7 45 f6          	movzwl -0xa(%ebp),%eax
  1052b3:	88 45 fa             	mov    %al,-0x6(%ebp)
  1052b6:	0f b7 45 f6          	movzwl -0xa(%ebp),%eax
  1052ba:	66 c1 e8 08          	shr    $0x8,%ax
  1052be:	88 45 f8             	mov    %al,-0x8(%ebp)
  1052c1:	ba 21 00 00 00       	mov    $0x21,%edx
  1052c6:	0f b6 45 fa          	movzbl -0x6(%ebp),%eax
  1052ca:	ee                   	out    %al,(%dx)
  1052cb:	90                   	nop
  1052cc:	90                   	nop
  1052cd:	90                   	nop
  1052ce:	90                   	nop
  1052cf:	ba a1 00 00 00       	mov    $0xa1,%edx
  1052d4:	0f b6 45 f8          	movzbl -0x8(%ebp),%eax
  1052d8:	ee                   	out    %al,(%dx)
  1052d9:	90                   	nop
  1052da:	90                   	nop
  1052db:	90                   	nop
  1052dc:	90                   	nop
  1052dd:	c7 45 e8 21 00 00 00 	movl   $0x21,-0x18(%ebp)
  1052e4:	8b 55 e8             	mov    -0x18(%ebp),%edx
  1052e7:	ec                   	in     (%dx),%al
  1052e8:	90                   	nop
  1052e9:	90                   	nop
  1052ea:	90                   	nop
  1052eb:	90                   	nop
  1052ec:	89 c3                	mov    %eax,%ebx
  1052ee:	88 5d f5             	mov    %bl,-0xb(%ebp)
  1052f1:	0f b6 45 f5          	movzbl -0xb(%ebp),%eax
  1052f5:	88 45 f4             	mov    %al,-0xc(%ebp)
  1052f8:	c7 45 e8 a1 00 00 00 	movl   $0xa1,-0x18(%ebp)
  1052ff:	8b 55 e8             	mov    -0x18(%ebp),%edx
  105302:	ec                   	in     (%dx),%al
  105303:	90                   	nop
  105304:	90                   	nop
  105305:	90                   	nop
  105306:	90                   	nop
  105307:	89 c3                	mov    %eax,%ebx
  105309:	88 5d f3             	mov    %bl,-0xd(%ebp)
  10530c:	0f b6 45 f3          	movzbl -0xd(%ebp),%eax
  105310:	88 45 f2             	mov    %al,-0xe(%ebp)
  105313:	0f b6 55 f4          	movzbl -0xc(%ebp),%edx
  105317:	0f b6 45 f2          	movzbl -0xe(%ebp),%eax
  10531b:	c1 e0 08             	shl    $0x8,%eax
  10531e:	09 d0                	or     %edx,%eax
  105320:	66 89 45 f0          	mov    %ax,-0x10(%ebp)
  105324:	66 81 65 f0 ff bf    	andw   $0xbfff,-0x10(%ebp)
  10532a:	0f b7 45 f0          	movzwl -0x10(%ebp),%eax
  10532e:	88 45 f4             	mov    %al,-0xc(%ebp)
  105331:	0f b7 45 f0          	movzwl -0x10(%ebp),%eax
  105335:	66 c1 e8 08          	shr    $0x8,%ax
  105339:	88 45 f2             	mov    %al,-0xe(%ebp)
  10533c:	ba 21 00 00 00       	mov    $0x21,%edx
  105341:	0f b6 45 f4          	movzbl -0xc(%ebp),%eax
  105345:	ee                   	out    %al,(%dx)
  105346:	90                   	nop
  105347:	90                   	nop
  105348:	90                   	nop
  105349:	90                   	nop
  10534a:	ba a1 00 00 00       	mov    $0xa1,%edx
  10534f:	0f b6 45 f2          	movzbl -0xe(%ebp),%eax
  105353:	ee                   	out    %al,(%dx)
  105354:	90                   	nop
  105355:	90                   	nop
  105356:	90                   	nop
  105357:	90                   	nop
  105358:	83 c4 14             	add    $0x14,%esp
  10535b:	5b                   	pop    %ebx
  10535c:	5d                   	pop    %ebp
  10535d:	c3                   	ret    

0010535e <hd_out>:
  10535e:	55                   	push   %ebp
  10535f:	89 e5                	mov    %esp,%ebp
  105361:	53                   	push   %ebx
  105362:	83 ec 2c             	sub    $0x2c,%esp
  105365:	a1 20 75 10 00       	mov    0x107520,%eax
  10536a:	8b 15 24 75 10 00    	mov    0x107524,%edx
  105370:	89 45 e8             	mov    %eax,-0x18(%ebp)
  105373:	89 55 ec             	mov    %edx,-0x14(%ebp)
  105376:	c6 45 f7 00          	movb   $0x0,-0x9(%ebp)
  10537a:	eb 29                	jmp    1053a5 <hd_out+0x47>
  10537c:	c7 45 d4 f7 01 00 00 	movl   $0x1f7,-0x2c(%ebp)
  105383:	8b 55 d4             	mov    -0x2c(%ebp),%edx
  105386:	ec                   	in     (%dx),%al
  105387:	90                   	nop
  105388:	90                   	nop
  105389:	90                   	nop
  10538a:	90                   	nop
  10538b:	89 c3                	mov    %eax,%ebx
  10538d:	88 5d e7             	mov    %bl,-0x19(%ebp)
  105390:	0f b6 45 e7          	movzbl -0x19(%ebp),%eax
  105394:	88 45 f7             	mov    %al,-0x9(%ebp)
  105397:	0f b6 45 f7          	movzbl -0x9(%ebp),%eax
  10539b:	25 c0 00 00 00       	and    $0xc0,%eax
  1053a0:	83 f8 40             	cmp    $0x40,%eax
  1053a3:	74 22                	je     1053c7 <hd_out+0x69>
  1053a5:	a1 20 75 10 00       	mov    0x107520,%eax
  1053aa:	8b 15 24 75 10 00    	mov    0x107524,%edx
  1053b0:	2b 45 e8             	sub    -0x18(%ebp),%eax
  1053b3:	1b 55 ec             	sbb    -0x14(%ebp),%edx
  1053b6:	83 fa 00             	cmp    $0x0,%edx
  1053b9:	72 c1                	jb     10537c <hd_out+0x1e>
  1053bb:	83 fa 00             	cmp    $0x0,%edx
  1053be:	77 08                	ja     1053c8 <hd_out+0x6a>
  1053c0:	83 f8 63             	cmp    $0x63,%eax
  1053c3:	76 b7                	jbe    10537c <hd_out+0x1e>
  1053c5:	eb 01                	jmp    1053c8 <hd_out+0x6a>
  1053c7:	90                   	nop
  1053c8:	0f b6 45 f7          	movzbl -0x9(%ebp),%eax
  1053cc:	83 e0 01             	and    $0x1,%eax
  1053cf:	84 c0                	test   %al,%al
  1053d1:	74 0a                	je     1053dd <hd_out+0x7f>
  1053d3:	b8 ff ff ff ff       	mov    $0xffffffff,%eax
  1053d8:	e9 84 00 00 00       	jmp    105461 <hd_out+0x103>
  1053dd:	ba f6 03 00 00       	mov    $0x3f6,%edx
  1053e2:	b8 00 00 00 00       	mov    $0x0,%eax
  1053e7:	ee                   	out    %al,(%dx)
  1053e8:	90                   	nop
  1053e9:	90                   	nop
  1053ea:	90                   	nop
  1053eb:	90                   	nop
  1053ec:	ba f1 01 00 00       	mov    $0x1f1,%edx
  1053f1:	8b 45 08             	mov    0x8(%ebp),%eax
  1053f4:	ee                   	out    %al,(%dx)
  1053f5:	90                   	nop
  1053f6:	90                   	nop
  1053f7:	90                   	nop
  1053f8:	90                   	nop
  1053f9:	ba f2 01 00 00       	mov    $0x1f2,%edx
  1053fe:	8b 45 10             	mov    0x10(%ebp),%eax
  105401:	ee                   	out    %al,(%dx)
  105402:	90                   	nop
  105403:	90                   	nop
  105404:	90                   	nop
  105405:	90                   	nop
  105406:	8b 45 14             	mov    0x14(%ebp),%eax
  105409:	25 ff 00 00 00       	and    $0xff,%eax
  10540e:	ba f3 01 00 00       	mov    $0x1f3,%edx
  105413:	ee                   	out    %al,(%dx)
  105414:	90                   	nop
  105415:	90                   	nop
  105416:	90                   	nop
  105417:	90                   	nop
  105418:	8b 45 14             	mov    0x14(%ebp),%eax
  10541b:	c1 e8 08             	shr    $0x8,%eax
  10541e:	25 ff 00 00 00       	and    $0xff,%eax
  105423:	ba f4 01 00 00       	mov    $0x1f4,%edx
  105428:	ee                   	out    %al,(%dx)
  105429:	90                   	nop
  10542a:	90                   	nop
  10542b:	90                   	nop
  10542c:	90                   	nop
  10542d:	8b 45 14             	mov    0x14(%ebp),%eax
  105430:	c1 e8 10             	shr    $0x10,%eax
  105433:	25 ff 00 00 00       	and    $0xff,%eax
  105438:	ba f5 01 00 00       	mov    $0x1f5,%edx
  10543d:	ee                   	out    %al,(%dx)
  10543e:	90                   	nop
  10543f:	90                   	nop
  105440:	90                   	nop
  105441:	90                   	nop
  105442:	ba f6 01 00 00       	mov    $0x1f6,%edx
  105447:	8b 45 0c             	mov    0xc(%ebp),%eax
  10544a:	ee                   	out    %al,(%dx)
  10544b:	90                   	nop
  10544c:	90                   	nop
  10544d:	90                   	nop
  10544e:	90                   	nop
  10544f:	ba f7 01 00 00       	mov    $0x1f7,%edx
  105454:	8b 45 18             	mov    0x18(%ebp),%eax
  105457:	ee                   	out    %al,(%dx)
  105458:	90                   	nop
  105459:	90                   	nop
  10545a:	90                   	nop
  10545b:	90                   	nop
  10545c:	b8 00 00 00 00       	mov    $0x0,%eax
  105461:	83 c4 2c             	add    $0x2c,%esp
  105464:	5b                   	pop    %ebx
  105465:	5d                   	pop    %ebp
  105466:	c3                   	ret    
  105467:	90                   	nop

00105468 <do_int_keyboard>:
  105468:	55                   	push   %ebp
  105469:	89 e5                	mov    %esp,%ebp
  10546b:	53                   	push   %ebx
  10546c:	83 ec 14             	sub    $0x14,%esp
  10546f:	c7 45 e8 60 00 00 00 	movl   $0x60,-0x18(%ebp)
  105476:	8b 55 e8             	mov    -0x18(%ebp),%edx
  105479:	ec                   	in     (%dx),%al
  10547a:	90                   	nop
  10547b:	90                   	nop
  10547c:	90                   	nop
  10547d:	90                   	nop
  10547e:	89 c3                	mov    %eax,%ebx
  105480:	88 5d fb             	mov    %bl,-0x5(%ebp)
  105483:	0f b6 45 fb          	movzbl -0x5(%ebp),%eax
  105487:	0f b6 c0             	movzbl %al,%eax
  10548a:	66 89 45 f8          	mov    %ax,-0x8(%ebp)
  10548e:	a1 68 b9 10 00       	mov    0x10b968,%eax
  105493:	3d ff 03 00 00       	cmp    $0x3ff,%eax
  105498:	7f 3a                	jg     1054d4 <do_int_keyboard+0x6c>
  10549a:	a1 64 b9 10 00       	mov    0x10b964,%eax
  10549f:	83 c0 01             	add    $0x1,%eax
  1054a2:	a3 64 b9 10 00       	mov    %eax,0x10b964
  1054a7:	a1 64 b9 10 00       	mov    0x10b964,%eax
  1054ac:	89 c2                	mov    %eax,%edx
  1054ae:	c1 fa 1f             	sar    $0x1f,%edx
  1054b1:	c1 ea 16             	shr    $0x16,%edx
  1054b4:	01 d0                	add    %edx,%eax
  1054b6:	25 ff 03 00 00       	and    $0x3ff,%eax
  1054bb:	29 d0                	sub    %edx,%eax
  1054bd:	0f b7 55 f8          	movzwl -0x8(%ebp),%edx
  1054c1:	88 90 60 b5 10 00    	mov    %dl,0x10b560(%eax)
  1054c7:	a1 68 b9 10 00       	mov    0x10b968,%eax
  1054cc:	83 c0 01             	add    $0x1,%eax
  1054cf:	a3 68 b9 10 00       	mov    %eax,0x10b968
  1054d4:	ba 20 00 00 00       	mov    $0x20,%edx
  1054d9:	b8 20 00 00 00       	mov    $0x20,%eax
  1054de:	ee                   	out    %al,(%dx)
  1054df:	90                   	nop
  1054e0:	90                   	nop
  1054e1:	90                   	nop
  1054e2:	90                   	nop
  1054e3:	83 c4 14             	add    $0x14,%esp
  1054e6:	5b                   	pop    %ebx
  1054e7:	5d                   	pop    %ebp
  1054e8:	c3                   	ret    
  1054e9:	90                   	nop
  1054ea:	90                   	nop
  1054eb:	90                   	nop

001054ec <task_shell>:
  1054ec:	55                   	push   %ebp
  1054ed:	89 e5                	mov    %esp,%ebp
  1054ef:	53                   	push   %ebx
  1054f0:	83 ec 34             	sub    $0x34,%esp
  1054f3:	eb 04                	jmp    1054f9 <task_shell+0xd>
  1054f5:	90                   	nop
  1054f6:	eb 01                	jmp    1054f9 <task_shell+0xd>
  1054f8:	90                   	nop
  1054f9:	a1 08 75 10 00       	mov    0x107508,%eax
  1054fe:	83 e0 10             	and    $0x10,%eax
  105501:	85 c0                	test   %eax,%eax
  105503:	0f 84 b4 00 00 00    	je     1055bd <task_shell+0xd1>
  105509:	a1 6c b9 10 00       	mov    0x10b96c,%eax
  10550e:	89 45 e4             	mov    %eax,-0x1c(%ebp)
  105511:	ba cd cc cc cc       	mov    $0xcccccccd,%edx
  105516:	8b 45 e4             	mov    -0x1c(%ebp),%eax
  105519:	f7 e2                	mul    %edx
  10551b:	89 d0                	mov    %edx,%eax
  10551d:	c1 e8 06             	shr    $0x6,%eax
  105520:	8d 50 01             	lea    0x1(%eax),%edx
  105523:	89 d0                	mov    %edx,%eax
  105525:	c1 e0 02             	shl    $0x2,%eax
  105528:	01 d0                	add    %edx,%eax
  10552a:	c1 e0 04             	shl    $0x4,%eax
  10552d:	a3 6c b9 10 00       	mov    %eax,0x10b96c
  105532:	c7 45 f4 00 75 10 00 	movl   $0x107500,-0xc(%ebp)
  105539:	a1 6c b9 10 00       	mov    0x10b96c,%eax
  10553e:	89 45 f0             	mov    %eax,-0x10(%ebp)
  105541:	eb 25                	jmp    105568 <task_shell+0x7c>
  105543:	8b 45 f4             	mov    -0xc(%ebp),%eax
  105546:	0f b6 00             	movzbl (%eax),%eax
  105549:	66 98                	cbtw   
  10554b:	80 cc 0c             	or     $0xc,%ah
  10554e:	66 89 45 ee          	mov    %ax,-0x12(%ebp)
  105552:	8b 45 f0             	mov    -0x10(%ebp),%eax
  105555:	8d 14 00             	lea    (%eax,%eax,1),%edx
  105558:	0f b7 45 ee          	movzwl -0x12(%ebp),%eax
  10555c:	65 66 89 02          	mov    %ax,%gs:(%edx)
  105560:	83 45 f4 01          	addl   $0x1,-0xc(%ebp)
  105564:	83 45 f0 01          	addl   $0x1,-0x10(%ebp)
  105568:	8b 45 f4             	mov    -0xc(%ebp),%eax
  10556b:	0f b6 00             	movzbl (%eax),%eax
  10556e:	84 c0                	test   %al,%al
  105570:	75 d1                	jne    105543 <task_shell+0x57>
  105572:	a1 6c b9 10 00       	mov    0x10b96c,%eax
  105577:	83 c0 08             	add    $0x8,%eax
  10557a:	a3 6c b9 10 00       	mov    %eax,0x10b96c
  10557f:	a1 6c b9 10 00       	mov    0x10b96c,%eax
  105584:	3d cf 07 00 00       	cmp    $0x7cf,%eax
  105589:	76 16                	jbe    1055a1 <task_shell+0xb5>
  10558b:	c7 04 24 18 00 00 00 	movl   $0x18,(%esp)
  105592:	e8 af 02 00 00       	call   105846 <move_to_top>
  105597:	c7 05 6c b9 10 00 08 	movl   $0x8,0x10b96c
  10559e:	00 00 00 
  1055a1:	8b 15 6c b9 10 00    	mov    0x10b96c,%edx
  1055a7:	b8 01 00 00 00       	mov    $0x1,%eax
  1055ac:	89 d3                	mov    %edx,%ebx
  1055ae:	cd ab                	int    $0xab
  1055b0:	a1 08 75 10 00       	mov    0x107508,%eax
  1055b5:	83 e0 ef             	and    $0xffffffef,%eax
  1055b8:	a3 08 75 10 00       	mov    %eax,0x107508
  1055bd:	a1 68 b9 10 00       	mov    0x10b968,%eax
  1055c2:	85 c0                	test   %eax,%eax
  1055c4:	0f 8e 2b ff ff ff    	jle    1054f5 <task_shell+0x9>
  1055ca:	a1 60 b9 10 00       	mov    0x10b960,%eax
  1055cf:	0f b6 80 60 b5 10 00 	movzbl 0x10b560(%eax),%eax
  1055d6:	88 45 ed             	mov    %al,-0x13(%ebp)
  1055d9:	a1 60 b9 10 00       	mov    0x10b960,%eax
  1055de:	8d 50 01             	lea    0x1(%eax),%edx
  1055e1:	89 d0                	mov    %edx,%eax
  1055e3:	c1 f8 1f             	sar    $0x1f,%eax
  1055e6:	c1 e8 16             	shr    $0x16,%eax
  1055e9:	01 c2                	add    %eax,%edx
  1055eb:	81 e2 ff 03 00 00    	and    $0x3ff,%edx
  1055f1:	89 d1                	mov    %edx,%ecx
  1055f3:	29 c1                	sub    %eax,%ecx
  1055f5:	89 c8                	mov    %ecx,%eax
  1055f7:	a3 60 b9 10 00       	mov    %eax,0x10b960
  1055fc:	a1 68 b9 10 00       	mov    0x10b968,%eax
  105601:	83 e8 01             	sub    $0x1,%eax
  105604:	a3 68 b9 10 00       	mov    %eax,0x10b968
  105609:	0f be 55 ed          	movsbl -0x13(%ebp),%edx
  10560d:	89 d0                	mov    %edx,%eax
  10560f:	01 c0                	add    %eax,%eax
  105611:	01 d0                	add    %edx,%eax
  105613:	8b 04 85 00 6f 10 00 	mov    0x106f00(,%eax,4),%eax
  10561a:	89 45 e8             	mov    %eax,-0x18(%ebp)
  10561d:	80 7d ed 00          	cmpb   $0x0,-0x13(%ebp)
  105621:	0f 88 ba 00 00 00    	js     1056e1 <task_shell+0x1f5>
  105627:	8b 45 e8             	mov    -0x18(%ebp),%eax
  10562a:	83 f8 7a             	cmp    $0x7a,%eax
  10562d:	77 0f                	ja     10563e <task_shell+0x152>
  10562f:	83 f8 61             	cmp    $0x61,%eax
  105632:	73 21                	jae    105655 <task_shell+0x169>
  105634:	83 f8 20             	cmp    $0x20,%eax
  105637:	74 1c                	je     105655 <task_shell+0x169>
  105639:	e9 bb fe ff ff       	jmp    1054f9 <task_shell+0xd>
  10563e:	3d 03 01 00 00       	cmp    $0x103,%eax
  105643:	0f 84 81 00 00 00    	je     1056ca <task_shell+0x1de>
  105649:	3d 04 01 00 00       	cmp    $0x104,%eax
  10564e:	74 3c                	je     10568c <task_shell+0x1a0>
  105650:	e9 a4 fe ff ff       	jmp    1054f9 <task_shell+0xd>
  105655:	0f b7 05 0c 75 10 00 	movzwl 0x10750c,%eax
  10565c:	0f b7 c0             	movzwl %ax,%eax
  10565f:	0b 45 e8             	or     -0x18(%ebp),%eax
  105662:	8b 15 6c b9 10 00    	mov    0x10b96c,%edx
  105668:	01 d2                	add    %edx,%edx
  10566a:	65 66 89 02          	mov    %ax,%gs:(%edx)
  10566e:	a1 6c b9 10 00       	mov    0x10b96c,%eax
  105673:	83 c0 01             	add    $0x1,%eax
  105676:	a3 6c b9 10 00       	mov    %eax,0x10b96c
  10567b:	8b 15 6c b9 10 00    	mov    0x10b96c,%edx
  105681:	b8 01 00 00 00       	mov    $0x1,%eax
  105686:	89 d3                	mov    %edx,%ebx
  105688:	cd ab                	int    $0xab
  10568a:	eb 50                	jmp    1056dc <task_shell+0x1f0>
  10568c:	c7 45 e8 20 00 00 00 	movl   $0x20,-0x18(%ebp)
  105693:	a1 6c b9 10 00       	mov    0x10b96c,%eax
  105698:	83 e8 01             	sub    $0x1,%eax
  10569b:	a3 6c b9 10 00       	mov    %eax,0x10b96c
  1056a0:	0f b7 05 0c 75 10 00 	movzwl 0x10750c,%eax
  1056a7:	0f b7 c0             	movzwl %ax,%eax
  1056aa:	0b 45 e8             	or     -0x18(%ebp),%eax
  1056ad:	8b 15 6c b9 10 00    	mov    0x10b96c,%edx
  1056b3:	01 d2                	add    %edx,%edx
  1056b5:	65 66 89 02          	mov    %ax,%gs:(%edx)
  1056b9:	8b 15 6c b9 10 00    	mov    0x10b96c,%edx
  1056bf:	b8 01 00 00 00       	mov    $0x1,%eax
  1056c4:	89 d3                	mov    %edx,%ebx
  1056c6:	cd ab                	int    $0xab
  1056c8:	eb 12                	jmp    1056dc <task_shell+0x1f0>
  1056ca:	a1 08 75 10 00       	mov    0x107508,%eax
  1056cf:	83 c8 10             	or     $0x10,%eax
  1056d2:	a3 08 75 10 00       	mov    %eax,0x107508
  1056d7:	e9 1d fe ff ff       	jmp    1054f9 <task_shell+0xd>
  1056dc:	e9 18 fe ff ff       	jmp    1054f9 <task_shell+0xd>
  1056e1:	8b 45 e8             	mov    -0x18(%ebp),%eax
  1056e4:	2d 08 01 00 00       	sub    $0x108,%eax
  1056e9:	83 f8 06             	cmp    $0x6,%eax
  1056ec:	0f 87 06 fe ff ff    	ja     1054f8 <task_shell+0xc>
  1056f2:	8b 04 85 7c 5a 10 00 	mov    0x105a7c(,%eax,4),%eax
  1056f9:	ff e0                	jmp    *%eax
  1056fb:	a1 08 75 10 00       	mov    0x107508,%eax
  105700:	83 e0 fe             	and    $0xfffffffe,%eax
  105703:	a3 08 75 10 00       	mov    %eax,0x107508
  105708:	eb 30                	jmp    10573a <task_shell+0x24e>
  10570a:	a1 08 75 10 00       	mov    0x107508,%eax
  10570f:	83 e0 fd             	and    $0xfffffffd,%eax
  105712:	a3 08 75 10 00       	mov    %eax,0x107508
  105717:	eb 21                	jmp    10573a <task_shell+0x24e>
  105719:	a1 08 75 10 00       	mov    0x107508,%eax
  10571e:	83 e0 fb             	and    $0xfffffffb,%eax
  105721:	a3 08 75 10 00       	mov    %eax,0x107508
  105726:	eb 12                	jmp    10573a <task_shell+0x24e>
  105728:	a1 08 75 10 00       	mov    0x107508,%eax
  10572d:	83 e0 f7             	and    $0xfffffff7,%eax
  105730:	a3 08 75 10 00       	mov    %eax,0x107508
  105735:	e9 bf fd ff ff       	jmp    1054f9 <task_shell+0xd>
  10573a:	e9 ba fd ff ff       	jmp    1054f9 <task_shell+0xd>

0010573f <init_shell>:
  10573f:	55                   	push   %ebp
  105740:	89 e5                	mov    %esp,%ebp
  105742:	57                   	push   %edi
  105743:	56                   	push   %esi
  105744:	53                   	push   %ebx
  105745:	83 ec 10             	sub    $0x10,%esp
  105748:	a1 c8 c2 10 00       	mov    0x10c2c8,%eax
  10574d:	8b 15 cc c2 10 00    	mov    0x10c2cc,%edx
  105753:	a3 78 cb 10 00       	mov    %eax,0x10cb78
  105758:	89 15 7c cb 10 00    	mov    %edx,0x10cb7c
  10575e:	a1 d0 c2 10 00       	mov    0x10c2d0,%eax
  105763:	8b 15 d4 c2 10 00    	mov    0x10c2d4,%edx
  105769:	a3 80 cb 10 00       	mov    %eax,0x10cb80
  10576e:	89 15 84 cb 10 00    	mov    %edx,0x10cb84
  105774:	ba 00 cb 10 00       	mov    $0x10cb00,%edx
  105779:	bb 50 c2 10 00       	mov    $0x10c250,%ebx
  10577e:	b8 1a 00 00 00       	mov    $0x1a,%eax
  105783:	89 d7                	mov    %edx,%edi
  105785:	89 de                	mov    %ebx,%esi
  105787:	89 c1                	mov    %eax,%ecx
  105789:	f3 a5                	rep movsl %ds:(%esi),%es:(%edi)
  10578b:	b8 ec 54 10 00       	mov    $0x1054ec,%eax
  105790:	a3 20 cb 10 00       	mov    %eax,0x10cb20
  105795:	b8 90 cf 10 00       	mov    $0x10cf90,%eax
  10579a:	a3 04 cb 10 00       	mov    %eax,0x10cb04
  10579f:	b8 90 d3 10 00       	mov    $0x10d390,%eax
  1057a4:	a3 38 cb 10 00       	mov    %eax,0x10cb38
  1057a9:	bb 70 cb 10 00       	mov    $0x10cb70,%ebx
  1057ae:	b8 00 09 10 00       	mov    $0x100900,%eax
  1057b3:	b9 ff ff 0f 00       	mov    $0xfffff,%ecx
  1057b8:	ba e2 cf 00 00       	mov    $0xcfe2,%edx
  1057bd:	fa                   	cli    
  1057be:	66 89 08             	mov    %cx,(%eax)
  1057c1:	83 c0 02             	add    $0x2,%eax
  1057c4:	66 89 18             	mov    %bx,(%eax)
  1057c7:	83 c0 02             	add    $0x2,%eax
  1057ca:	c1 eb 10             	shr    $0x10,%ebx
  1057cd:	88 18                	mov    %bl,(%eax)
  1057cf:	83 c0 01             	add    $0x1,%eax
  1057d2:	66 89 10             	mov    %dx,(%eax)
  1057d5:	83 c0 02             	add    $0x2,%eax
  1057d8:	88 38                	mov    %bh,(%eax)
  1057da:	fb                   	sti    
  1057db:	bb 00 cb 10 00       	mov    $0x10cb00,%ebx
  1057e0:	b8 08 09 10 00       	mov    $0x100908,%eax
  1057e5:	b9 68 00 00 00       	mov    $0x68,%ecx
  1057ea:	ba e9 00 00 00       	mov    $0xe9,%edx
  1057ef:	fa                   	cli    
  1057f0:	66 89 08             	mov    %cx,(%eax)
  1057f3:	83 c0 02             	add    $0x2,%eax
  1057f6:	66 89 18             	mov    %bx,(%eax)
  1057f9:	83 c0 02             	add    $0x2,%eax
  1057fc:	c1 eb 10             	shr    $0x10,%ebx
  1057ff:	88 18                	mov    %bl,(%eax)
  105801:	83 c0 01             	add    $0x1,%eax
  105804:	66 89 10             	mov    %dx,(%eax)
  105807:	83 c0 02             	add    $0x2,%eax
  10580a:	88 38                	mov    %bh,(%eax)
  10580c:	fb                   	sti    
  10580d:	c7 05 e0 ca 10 00 02 	movl   $0x2,0x10cae0
  105814:	00 00 00 
  105817:	c7 05 e8 ca 10 00 00 	movl   $0x0,0x10cae8
  10581e:	00 00 00 
  105821:	a1 24 cb 10 00       	mov    0x10cb24,%eax
  105826:	80 cc 30             	or     $0x30,%ah
  105829:	a3 24 cb 10 00       	mov    %eax,0x10cb24
  10582e:	9c                   	pushf  
  10582f:	81 0c 24 00 30 00 00 	orl    $0x3000,(%esp)
  105836:	9d                   	popf   
  105837:	c7 45 f0 00 00 00 00 	movl   $0x0,-0x10(%ebp)
  10583e:	83 c4 10             	add    $0x10,%esp
  105841:	5b                   	pop    %ebx
  105842:	5e                   	pop    %esi
  105843:	5f                   	pop    %edi
  105844:	5d                   	pop    %ebp
  105845:	c3                   	ret    

00105846 <move_to_top>:
  105846:	55                   	push   %ebp
  105847:	89 e5                	mov    %esp,%ebp
  105849:	57                   	push   %edi
  10584a:	56                   	push   %esi
  10584b:	53                   	push   %ebx
  10584c:	83 ec 10             	sub    $0x10,%esp
  10584f:	8b 55 08             	mov    0x8(%ebp),%edx
  105852:	89 d0                	mov    %edx,%eax
  105854:	c1 e0 02             	shl    $0x2,%eax
  105857:	01 d0                	add    %edx,%eax
  105859:	c1 e0 05             	shl    $0x5,%eax
  10585c:	89 45 f0             	mov    %eax,-0x10(%ebp)
  10585f:	c7 45 ec 00 00 00 00 	movl   $0x0,-0x14(%ebp)
  105866:	c7 45 e8 a0 0f 00 00 	movl   $0xfa0,-0x18(%ebp)
  10586d:	8b 55 e8             	mov    -0x18(%ebp),%edx
  105870:	8b 45 f0             	mov    -0x10(%ebp),%eax
  105873:	89 d1                	mov    %edx,%ecx
  105875:	29 c1                	sub    %eax,%ecx
  105877:	8b 45 f0             	mov    -0x10(%ebp),%eax
  10587a:	8b 55 ec             	mov    -0x14(%ebp),%edx
  10587d:	89 c6                	mov    %eax,%esi
  10587f:	89 d7                	mov    %edx,%edi
  105881:	fc                   	cld    
  105882:	f3 66 a5             	rep movsw %ds:(%esi),%es:(%edi)
  105885:	8b 55 e8             	mov    -0x18(%ebp),%edx
  105888:	8b 45 f0             	mov    -0x10(%ebp),%eax
  10588b:	89 d3                	mov    %edx,%ebx
  10588d:	29 c3                	sub    %eax,%ebx
  10588f:	0f b7 05 0c 75 10 00 	movzwl 0x10750c,%eax
  105896:	83 c8 20             	or     $0x20,%eax
  105899:	0f b7 c0             	movzwl %ax,%eax
  10589c:	8b 55 f0             	mov    -0x10(%ebp),%edx
  10589f:	89 df                	mov    %ebx,%edi
  1058a1:	89 d1                	mov    %edx,%ecx

001058a3 <loop1>:
  1058a3:	65 66 89 07          	mov    %ax,%gs:(%edi)
  1058a7:	83 c7 02             	add    $0x2,%edi
  1058aa:	e2 f7                	loop   1058a3 <loop1>
  1058ac:	83 c4 10             	add    $0x10,%esp
  1058af:	5b                   	pop    %ebx
  1058b0:	5e                   	pop    %esi
  1058b1:	5f                   	pop    %edi
  1058b2:	5d                   	pop    %ebp
  1058b3:	c3                   	ret    

Disassembly of section .rodata:

001058b4 <.rodata>:
  1058b4:	64 69 76 5f 65 72 72 	imul   $0x6f727265,%fs:0x5f(%esi),%esi
  1058bb:	6f 
  1058bc:	72 20                	jb     1058de <loop1+0x3b>
  1058be:	6f                   	outsl  %ds:(%esi),(%dx)
  1058bf:	63 63 75             	arpl   %sp,0x75(%ebx)
  1058c2:	72 21                	jb     1058e5 <loop1+0x42>
  1058c4:	00 64 6f 5f          	add    %ah,0x5f(%edi,%ebp,2)
  1058c8:	64 65 62 75 67       	fs bound %esi,%fs:%gs:0x67(%ebp)
  1058cd:	20 6f 63             	and    %ch,0x63(%edi)
  1058d0:	75 72                	jne    105944 <loop1+0xa1>
  1058d2:	72 00                	jb     1058d4 <loop1+0x31>
  1058d4:	64 6f                	outsl  %fs:(%esi),(%dx)
  1058d6:	5f                   	pop    %edi
  1058d7:	6f                   	outsl  %ds:(%esi),(%dx)
  1058d8:	76 65                	jbe    10593f <loop1+0x9c>
  1058da:	72 66                	jb     105942 <loop1+0x9f>
  1058dc:	6c                   	insb   (%dx),%es:(%edi)
  1058dd:	6f                   	outsl  %ds:(%esi),(%dx)
  1058de:	77 20                	ja     105900 <loop1+0x5d>
  1058e0:	6f                   	outsl  %ds:(%esi),(%dx)
  1058e1:	63 75 72             	arpl   %si,0x72(%ebp)
  1058e4:	72 00                	jb     1058e6 <loop1+0x43>
  1058e6:	64 6f                	outsl  %fs:(%esi),(%dx)
  1058e8:	5f                   	pop    %edi
  1058e9:	6f                   	outsl  %ds:(%esi),(%dx)
  1058ea:	76 65                	jbe    105951 <loop1+0xae>
  1058ec:	72 62                	jb     105950 <loop1+0xad>
  1058ee:	6f                   	outsl  %ds:(%esi),(%dx)
  1058ef:	75 6e                	jne    10595f <loop1+0xbc>
  1058f1:	64 20 6f 63          	and    %ch,%fs:0x63(%edi)
  1058f5:	75 72                	jne    105969 <loop1+0xc6>
  1058f7:	72 00                	jb     1058f9 <loop1+0x56>
  1058f9:	64 6f                	outsl  %fs:(%esi),(%dx)
  1058fb:	5f                   	pop    %edi
  1058fc:	75 6e                	jne    10596c <loop1+0xc9>
  1058fe:	64 65 66 69 6e 65 20 	fs imul $0x6f20,%fs:%gs:0x65(%esi),%bp
  105905:	6f 
  105906:	63 75 72             	arpl   %si,0x72(%ebp)
  105909:	72 00                	jb     10590b <loop1+0x68>
  10590b:	64 6f                	outsl  %fs:(%esi),(%dx)
  10590d:	5f                   	pop    %edi
  10590e:	6e                   	outsb  %ds:(%esi),(%dx)
  10590f:	6d                   	insl   (%dx),%es:(%edi)
  105910:	20 6f 63             	and    %ch,0x63(%edi)
  105913:	75 72                	jne    105987 <loop1+0xe4>
  105915:	72 00                	jb     105917 <loop1+0x74>
  105917:	64 6f                	outsl  %fs:(%esi),(%dx)
  105919:	5f                   	pop    %edi
  10591a:	64 6f                	outsl  %fs:(%esi),(%dx)
  10591c:	75 62                	jne    105980 <loop1+0xdd>
  10591e:	6c                   	insb   (%dx),%es:(%edi)
  10591f:	65                   	gs
  105920:	66 61                	popaw  
  105922:	75 6c                	jne    105990 <loop1+0xed>
  105924:	74 20                	je     105946 <loop1+0xa3>
  105926:	6f                   	outsl  %ds:(%esi),(%dx)
  105927:	63 75 72             	arpl   %si,0x72(%ebp)
  10592a:	72 00                	jb     10592c <loop1+0x89>
  10592c:	64 6f                	outsl  %fs:(%esi),(%dx)
  10592e:	5f                   	pop    %edi
  10592f:	63 6f 70             	arpl   %bp,0x70(%edi)
  105932:	20 6f 63             	and    %ch,0x63(%edi)
  105935:	75 72                	jne    1059a9 <loop1+0x106>
  105937:	72 00                	jb     105939 <loop1+0x96>
  105939:	64 6f                	outsl  %fs:(%esi),(%dx)
  10593b:	5f                   	pop    %edi
  10593c:	74 73                	je     1059b1 <loop1+0x10e>
  10593e:	73 20                	jae    105960 <loop1+0xbd>
  105940:	6f                   	outsl  %ds:(%esi),(%dx)
  105941:	63 75 72             	arpl   %si,0x72(%ebp)
  105944:	72 00                	jb     105946 <loop1+0xa3>
  105946:	64 6f                	outsl  %fs:(%esi),(%dx)
  105948:	5f                   	pop    %edi
  105949:	73 65                	jae    1059b0 <loop1+0x10d>
  10594b:	67 5f                	addr16 pop %edi
  10594d:	66 61                	popaw  
  10594f:	75 6c                	jne    1059bd <loop1+0x11a>
  105951:	74 20                	je     105973 <loop1+0xd0>
  105953:	6f                   	outsl  %ds:(%esi),(%dx)
  105954:	63 75 72             	arpl   %si,0x72(%ebp)
  105957:	72 00                	jb     105959 <loop1+0xb6>
  105959:	64 6f                	outsl  %fs:(%esi),(%dx)
  10595b:	5f                   	pop    %edi
  10595c:	73 74                	jae    1059d2 <loop1+0x12f>
  10595e:	61                   	popa   
  10595f:	63 6b 5f             	arpl   %bp,0x5f(%ebx)
  105962:	66 61                	popaw  
  105964:	75 6c                	jne    1059d2 <loop1+0x12f>
  105966:	74 20                	je     105988 <loop1+0xe5>
  105968:	6f                   	outsl  %ds:(%esi),(%dx)
  105969:	63 75 72             	arpl   %si,0x72(%ebp)
  10596c:	72 00                	jb     10596e <loop1+0xcb>
  10596e:	64 6f                	outsl  %fs:(%esi),(%dx)
  105970:	5f                   	pop    %edi
  105971:	67 65 6e             	outsb  %gs:(%si),(%dx)
  105974:	65                   	gs
  105975:	72 61                	jb     1059d8 <loop1+0x135>
  105977:	6c                   	insb   (%dx),%es:(%edi)
  105978:	5f                   	pop    %edi
  105979:	70 72                	jo     1059ed <loop1+0x14a>
  10597b:	6f                   	outsl  %ds:(%esi),(%dx)
  10597c:	74 65                	je     1059e3 <loop1+0x140>
  10597e:	63 74 20 6f          	arpl   %si,0x6f(%eax,%eiz,1)
  105982:	63 75 72             	arpl   %si,0x72(%ebp)
  105985:	72 00                	jb     105987 <loop1+0xe4>
  105987:	64 6f                	outsl  %fs:(%esi),(%dx)
  105989:	5f                   	pop    %edi
  10598a:	66                   	data16
  10598b:	70 75                	jo     105a02 <loop1+0x15f>
  10598d:	5f                   	pop    %edi
  10598e:	65                   	gs
  10598f:	72 72                	jb     105a03 <loop1+0x160>
  105991:	6f                   	outsl  %ds:(%esi),(%dx)
  105992:	72 20                	jb     1059b4 <loop1+0x111>
  105994:	6f                   	outsl  %ds:(%esi),(%dx)
  105995:	63 75 72             	arpl   %si,0x72(%ebp)
  105998:	72 00                	jb     10599a <loop1+0xf7>
  10599a:	64 6f                	outsl  %fs:(%esi),(%dx)
  10599c:	5f                   	pop    %edi
  10599d:	61                   	popa   
  10599e:	6c                   	insb   (%dx),%es:(%edi)
  10599f:	69 67 6e 5f 63 68 65 	imul   $0x6568635f,0x6e(%edi),%esp
  1059a6:	63 6b 20             	arpl   %bp,0x20(%ebx)
  1059a9:	6f                   	outsl  %ds:(%esi),(%dx)
  1059aa:	63 75 72             	arpl   %si,0x72(%ebp)
  1059ad:	72 00                	jb     1059af <loop1+0x10c>
  1059af:	64 6f                	outsl  %fs:(%esi),(%dx)
  1059b1:	5f                   	pop    %edi
  1059b2:	6d                   	insl   (%dx),%es:(%edi)
  1059b3:	61                   	popa   
  1059b4:	63 68 69             	arpl   %bp,0x69(%eax)
  1059b7:	6e                   	outsb  %ds:(%esi),(%dx)
  1059b8:	65                   	gs
  1059b9:	5f                   	pop    %edi
  1059ba:	63 68 65             	arpl   %bp,0x65(%eax)
  1059bd:	63 6b 20             	arpl   %bp,0x20(%ebx)
  1059c0:	6f                   	outsl  %ds:(%esi),(%dx)
  1059c1:	63 75 72             	arpl   %si,0x72(%ebp)
  1059c4:	72 00                	jb     1059c6 <loop1+0x123>
  1059c6:	64 6f                	outsl  %fs:(%esi),(%dx)
  1059c8:	5f                   	pop    %edi
  1059c9:	73 69                	jae    105a34 <loop1+0x191>
  1059cb:	6d                   	insl   (%dx),%es:(%edi)
  1059cc:	64                   	fs
  1059cd:	5f                   	pop    %edi
  1059ce:	66 61                	popaw  
  1059d0:	75 6c                	jne    105a3e <loop1+0x19b>
  1059d2:	74 20                	je     1059f4 <loop1+0x151>
  1059d4:	6f                   	outsl  %ds:(%esi),(%dx)
  1059d5:	63 75 72             	arpl   %si,0x72(%ebp)
  1059d8:	72 00                	jb     1059da <loop1+0x137>
  1059da:	64 6f                	outsl  %fs:(%esi),(%dx)
  1059dc:	5f                   	pop    %edi
  1059dd:	69 6e 74 5f 74 69 6d 	imul   $0x6d69745f,0x74(%esi),%ebp
  1059e4:	65                   	gs
  1059e5:	72 20                	jb     105a07 <loop1+0x164>
  1059e7:	6f                   	outsl  %ds:(%esi),(%dx)
  1059e8:	63 75 72             	arpl   %si,0x72(%ebp)
  1059eb:	72 00                	jb     1059ed <loop1+0x14a>
  1059ed:	64 6f                	outsl  %fs:(%esi),(%dx)
  1059ef:	5f                   	pop    %edi
  1059f0:	69 6e 74 5f 68 64 20 	imul   $0x2064685f,0x74(%esi),%ebp
  1059f7:	6f                   	outsl  %ds:(%esi),(%dx)
  1059f8:	63 75 72             	arpl   %si,0x72(%ebp)
  1059fb:	72 00                	jb     1059fd <loop1+0x15a>
  1059fd:	00 00                	add    %al,(%eax)
  1059ff:	00 70 61             	add    %dh,0x61(%eax)
  105a02:	67 65 20 66 61       	and    %ah,%gs:0x61(%bp)
  105a07:	75 6c                	jne    105a75 <loop1+0x1d2>
  105a09:	74 20                	je     105a2b <loop1+0x188>
  105a0b:	6f                   	outsl  %ds:(%esi),(%dx)
  105a0c:	63 63 75             	arpl   %sp,0x75(%ebx)
  105a0f:	72 21                	jb     105a32 <loop1+0x18f>
  105a11:	00 00                	add    %al,(%eax)
  105a13:	00 72 75             	add    %dh,0x75(%edx)
  105a16:	6e                   	outsb  %ds:(%esi),(%dx)
  105a17:	20 6f 75             	and    %ch,0x75(%edi)
  105a1a:	74 20                	je     105a3c <loop1+0x199>
  105a1c:	6f                   	outsl  %ds:(%esi),(%dx)
  105a1d:	66                   	data16
  105a1e:	20 6b 65             	and    %ch,0x65(%ebx)
  105a21:	72 6e                	jb     105a91 <loop1+0x1ee>
  105a23:	65                   	gs
  105a24:	6c                   	insb   (%dx),%es:(%edi)
  105a25:	20 64 79 6e          	and    %ah,0x6e(%ecx,%edi,2)
  105a29:	61                   	popa   
  105a2a:	6d                   	insl   (%dx),%es:(%edi)
  105a2b:	69 63 20 6d 65 6d 6f 	imul   $0x6f6d656d,0x20(%ebx),%esp
  105a32:	72 79                	jb     105aad <loop1+0x20a>
  105a34:	21 00                	and    %eax,(%eax)
  105a36:	74 72                	je     105aaa <loop1+0x207>
  105a38:	79 20                	jns    105a5a <loop1+0x1b7>
  105a3a:	74 6f                	je     105aab <loop1+0x208>
  105a3c:	20 66 72             	and    %ah,0x72(%esi)
  105a3f:	65 65 20 61 20       	gs and %ah,%gs:0x20(%ecx)
  105a44:	66                   	data16
  105a45:	72 65                	jb     105aac <loop1+0x209>
  105a47:	65 20 70 61          	and    %dh,%gs:0x61(%eax)
  105a4b:	67 65 00 6e 6f       	add    %ch,%gs:0x6f(%bp)
  105a50:	74 20                	je     105a72 <loop1+0x1cf>
  105a52:	61                   	popa   
  105a53:	20 64 79 6e          	and    %ah,0x6e(%ecx,%edi,2)
  105a57:	61                   	popa   
  105a58:	6d                   	insl   (%dx),%es:(%edi)
  105a59:	69 63 20 6d 65 6d 6f 	imul   $0x6f6d656d,0x20(%ebx),%esp
  105a60:	72 79                	jb     105adb <loop1+0x238>
  105a62:	00 74 72 79          	add    %dh,0x79(%edx,%esi,2)
  105a66:	20 74 6f 20          	and    %dh,0x20(%edi,%ebp,2)
  105a6a:	6a 75                	push   $0x75
  105a6c:	6d                   	insl   (%dx),%es:(%edi)
  105a6d:	70 20                	jo     105a8f <loop1+0x1ec>
  105a6f:	74 6f                	je     105ae0 <loop1+0x23d>
  105a71:	20 74 73 73          	and    %dh,0x73(%ebx,%esi,2)
  105a75:	20 62 75             	and    %ah,0x75(%edx)
  105a78:	73 79                	jae    105af3 <loop1+0x250>
  105a7a:	00 00                	add    %al,(%eax)
  105a7c:	0a 57 10             	or     0x10(%edi),%dl
  105a7f:	00 0a                	add    %cl,(%edx)
  105a81:	57                   	push   %edi
  105a82:	10 00                	adc    %al,(%eax)
  105a84:	fb                   	sti    
  105a85:	56                   	push   %esi
  105a86:	10 00                	adc    %al,(%eax)
  105a88:	fb                   	sti    
  105a89:	56                   	push   %esi
  105a8a:	10 00                	adc    %al,(%eax)
  105a8c:	19 57 10             	sbb    %edx,0x10(%edi)
  105a8f:	00 19                	add    %bl,(%ecx)
  105a91:	57                   	push   %edi
  105a92:	10 00                	adc    %al,(%eax)
  105a94:	28 57 10             	sub    %dl,0x10(%edi)
	...

Disassembly of section .data:

00106aa0 <handlers>:
  106aa0:	eb 38                	jmp    106ada <handlers+0x3a>
  106aa2:	10 00                	adc    %al,(%eax)
  106aa4:	fe                   	(bad)  
  106aa5:	38 10                	cmp    %dl,(%eax)
  106aa7:	00 11                	add    %dl,(%ecx)
  106aa9:	39 10                	cmp    %edx,(%eax)
  106aab:	00 12                	add    %dl,(%edx)
  106aad:	39 10                	cmp    %edx,(%eax)
  106aaf:	00 25 39 10 00 38    	add    %ah,0x38001039
  106ab5:	39 10                	cmp    %edx,(%eax)
  106ab7:	00 4b 39             	add    %cl,0x39(%ebx)
  106aba:	10 00                	adc    %al,(%eax)
  106abc:	5e                   	pop    %esi
  106abd:	39 10                	cmp    %edx,(%eax)
  106abf:	00 71 39             	add    %dh,0x39(%ecx)
  106ac2:	10 00                	adc    %al,(%eax)
  106ac4:	96                   	xchg   %eax,%esi
  106ac5:	39 10                	cmp    %edx,(%eax)
  106ac7:	00 a9 39 10 00 ce    	add    %ch,-0x31ffefc7(%ecx)
  106acd:	39 10                	cmp    %edx,(%eax)
  106acf:	00 f3                	add    %dh,%bl
  106ad1:	39 10                	cmp    %edx,(%eax)
  106ad3:	00 18                	add    %bl,(%eax)
  106ad5:	3a 10                	cmp    (%eax),%dl
  106ad7:	00 3d 3a 10 00 62    	add    %bh,0x6200103a
  106add:	3a 10                	cmp    (%eax),%dl
  106adf:	00 63 3a             	add    %ah,0x3a(%ebx)
  106ae2:	10 00                	adc    %al,(%eax)
  106ae4:	76 3a                	jbe    106b20 <handlers+0x80>
  106ae6:	10 00                	adc    %al,(%eax)
  106ae8:	9b                   	fwait
  106ae9:	3a 10                	cmp    (%eax),%dl
  106aeb:	00 ae 3a 10 00 00    	add    %ch,0x103a(%esi)
	...

00106e9c <pos>:
  106e9c:	90                   	nop
  106e9d:	01 00                	add    %eax,(%eax)
	...

00106ea0 <pos_page_fault>:
  106ea0:	28 00                	sub    %al,(%eax)
	...

00106ea4 <pos_panic>:
  106ea4:	3c 00                	cmp    $0x0,%al
	...

00106ec0 <mons>:
  106ec0:	00 00                	add    %al,(%eax)
  106ec2:	00 00                	add    %al,(%eax)
  106ec4:	80 de 28             	sbb    $0x28,%dh
  106ec7:	00 80 c8 4d 00 00    	add    %al,0x4dc8(%eax)
  106ecd:	a7                   	cmpsl  %es:(%edi),%ds:(%esi)
  106ece:	76 00                	jbe    106ed0 <mons+0x10>
  106ed0:	00 34 9e             	add    %dh,(%esi,%ebx,4)
  106ed3:	00 80 12 c7 00 80    	add    %al,-0x7fff38ee(%eax)
  106ed9:	9f                   	lahf   
  106eda:	ee                   	out    %al,(%dx)
  106edb:	00 00                	add    %al,(%eax)
  106edd:	7e 17                	jle    106ef6 <screen+0x6>
  106edf:	01 80 5c 40 01 80    	add    %eax,-0x7ffebfa4(%eax)
  106ee5:	e9 67 01 00 c8       	jmp    c8107051 <MULTIBOOT_HEADER_MAGIC+0xac62c04f>
  106eea:	90                   	nop
  106eeb:	01 00                	add    %eax,(%eax)
  106eed:	55                   	push   %ebp
  106eee:	b8 01 00 80 0b       	mov    $0xb800001,%eax

00106ef0 <screen>:
  106ef0:	00 80 0b 00 00 00    	add    %al,0xb(%eax)
	...

00106f00 <keymap>:
	...
  106f0c:	01 01                	add    %eax,(%ecx)
  106f0e:	00 00                	add    %al,(%eax)
  106f10:	01 01                	add    %eax,(%ecx)
  106f12:	00 00                	add    %al,(%eax)
  106f14:	00 00                	add    %al,(%eax)
  106f16:	00 00                	add    %al,(%eax)
  106f18:	31 00                	xor    %eax,(%eax)
  106f1a:	00 00                	add    %al,(%eax)
  106f1c:	21 00                	and    %eax,(%eax)
  106f1e:	00 00                	add    %al,(%eax)
  106f20:	00 00                	add    %al,(%eax)
  106f22:	00 00                	add    %al,(%eax)
  106f24:	32 00                	xor    (%eax),%al
  106f26:	00 00                	add    %al,(%eax)
  106f28:	40                   	inc    %eax
  106f29:	00 00                	add    %al,(%eax)
  106f2b:	00 00                	add    %al,(%eax)
  106f2d:	00 00                	add    %al,(%eax)
  106f2f:	00 33                	add    %dh,(%ebx)
  106f31:	00 00                	add    %al,(%eax)
  106f33:	00 23                	add    %ah,(%ebx)
  106f35:	00 00                	add    %al,(%eax)
  106f37:	00 00                	add    %al,(%eax)
  106f39:	00 00                	add    %al,(%eax)
  106f3b:	00 34 00             	add    %dh,(%eax,%eax,1)
  106f3e:	00 00                	add    %al,(%eax)
  106f40:	24 00                	and    $0x0,%al
  106f42:	00 00                	add    %al,(%eax)
  106f44:	00 00                	add    %al,(%eax)
  106f46:	00 00                	add    %al,(%eax)
  106f48:	35 00 00 00 25       	xor    $0x25000000,%eax
  106f4d:	00 00                	add    %al,(%eax)
  106f4f:	00 00                	add    %al,(%eax)
  106f51:	00 00                	add    %al,(%eax)
  106f53:	00 36                	add    %dh,(%esi)
  106f55:	00 00                	add    %al,(%eax)
  106f57:	00 5e 00             	add    %bl,0x0(%esi)
  106f5a:	00 00                	add    %al,(%eax)
  106f5c:	00 00                	add    %al,(%eax)
  106f5e:	00 00                	add    %al,(%eax)
  106f60:	37                   	aaa    
  106f61:	00 00                	add    %al,(%eax)
  106f63:	00 26                	add    %ah,(%esi)
  106f65:	00 00                	add    %al,(%eax)
  106f67:	00 00                	add    %al,(%eax)
  106f69:	00 00                	add    %al,(%eax)
  106f6b:	00 38                	add    %bh,(%eax)
  106f6d:	00 00                	add    %al,(%eax)
  106f6f:	00 2a                	add    %ch,(%edx)
  106f71:	00 00                	add    %al,(%eax)
  106f73:	00 00                	add    %al,(%eax)
  106f75:	00 00                	add    %al,(%eax)
  106f77:	00 39                	add    %bh,(%ecx)
  106f79:	00 00                	add    %al,(%eax)
  106f7b:	00 28                	add    %ch,(%eax)
  106f7d:	00 00                	add    %al,(%eax)
  106f7f:	00 00                	add    %al,(%eax)
  106f81:	00 00                	add    %al,(%eax)
  106f83:	00 30                	add    %dh,(%eax)
  106f85:	00 00                	add    %al,(%eax)
  106f87:	00 29                	add    %ch,(%ecx)
  106f89:	00 00                	add    %al,(%eax)
  106f8b:	00 00                	add    %al,(%eax)
  106f8d:	00 00                	add    %al,(%eax)
  106f8f:	00 2d 00 00 00 5f    	add    %ch,0x5f000000
  106f95:	00 00                	add    %al,(%eax)
  106f97:	00 00                	add    %al,(%eax)
  106f99:	00 00                	add    %al,(%eax)
  106f9b:	00 3d 00 00 00 2b    	add    %bh,0x2b000000
  106fa1:	00 00                	add    %al,(%eax)
  106fa3:	00 00                	add    %al,(%eax)
  106fa5:	00 00                	add    %al,(%eax)
  106fa7:	00 04 01             	add    %al,(%ecx,%eax,1)
  106faa:	00 00                	add    %al,(%eax)
  106fac:	04 01                	add    $0x1,%al
  106fae:	00 00                	add    %al,(%eax)
  106fb0:	00 00                	add    %al,(%eax)
  106fb2:	00 00                	add    %al,(%eax)
  106fb4:	02 01                	add    (%ecx),%al
  106fb6:	00 00                	add    %al,(%eax)
  106fb8:	02 01                	add    (%ecx),%al
  106fba:	00 00                	add    %al,(%eax)
  106fbc:	00 00                	add    %al,(%eax)
  106fbe:	00 00                	add    %al,(%eax)
  106fc0:	71 00                	jno    106fc2 <keymap+0xc2>
  106fc2:	00 00                	add    %al,(%eax)
  106fc4:	51                   	push   %ecx
  106fc5:	00 00                	add    %al,(%eax)
  106fc7:	00 00                	add    %al,(%eax)
  106fc9:	00 00                	add    %al,(%eax)
  106fcb:	00 77 00             	add    %dh,0x0(%edi)
  106fce:	00 00                	add    %al,(%eax)
  106fd0:	57                   	push   %edi
  106fd1:	00 00                	add    %al,(%eax)
  106fd3:	00 00                	add    %al,(%eax)
  106fd5:	00 00                	add    %al,(%eax)
  106fd7:	00 65 00             	add    %ah,0x0(%ebp)
  106fda:	00 00                	add    %al,(%eax)
  106fdc:	45                   	inc    %ebp
  106fdd:	00 00                	add    %al,(%eax)
  106fdf:	00 00                	add    %al,(%eax)
  106fe1:	00 00                	add    %al,(%eax)
  106fe3:	00 72 00             	add    %dh,0x0(%edx)
  106fe6:	00 00                	add    %al,(%eax)
  106fe8:	52                   	push   %edx
  106fe9:	00 00                	add    %al,(%eax)
  106feb:	00 00                	add    %al,(%eax)
  106fed:	00 00                	add    %al,(%eax)
  106fef:	00 74 00 00          	add    %dh,0x0(%eax,%eax,1)
  106ff3:	00 54 00 00          	add    %dl,0x0(%eax,%eax,1)
  106ff7:	00 00                	add    %al,(%eax)
  106ff9:	00 00                	add    %al,(%eax)
  106ffb:	00 79 00             	add    %bh,0x0(%ecx)
  106ffe:	00 00                	add    %al,(%eax)
  107000:	59                   	pop    %ecx
  107001:	00 00                	add    %al,(%eax)
  107003:	00 00                	add    %al,(%eax)
  107005:	00 00                	add    %al,(%eax)
  107007:	00 75 00             	add    %dh,0x0(%ebp)
  10700a:	00 00                	add    %al,(%eax)
  10700c:	55                   	push   %ebp
  10700d:	00 00                	add    %al,(%eax)
  10700f:	00 00                	add    %al,(%eax)
  107011:	00 00                	add    %al,(%eax)
  107013:	00 69 00             	add    %ch,0x0(%ecx)
  107016:	00 00                	add    %al,(%eax)
  107018:	49                   	dec    %ecx
  107019:	00 00                	add    %al,(%eax)
  10701b:	00 00                	add    %al,(%eax)
  10701d:	00 00                	add    %al,(%eax)
  10701f:	00 6f 00             	add    %ch,0x0(%edi)
  107022:	00 00                	add    %al,(%eax)
  107024:	4f                   	dec    %edi
  107025:	00 00                	add    %al,(%eax)
  107027:	00 00                	add    %al,(%eax)
  107029:	00 00                	add    %al,(%eax)
  10702b:	00 70 00             	add    %dh,0x0(%eax)
  10702e:	00 00                	add    %al,(%eax)
  107030:	50                   	push   %eax
  107031:	00 00                	add    %al,(%eax)
  107033:	00 00                	add    %al,(%eax)
  107035:	00 00                	add    %al,(%eax)
  107037:	00 5b 00             	add    %bl,0x0(%ebx)
  10703a:	00 00                	add    %al,(%eax)
  10703c:	7b 00                	jnp    10703e <keymap+0x13e>
  10703e:	00 00                	add    %al,(%eax)
  107040:	00 00                	add    %al,(%eax)
  107042:	00 00                	add    %al,(%eax)
  107044:	5d                   	pop    %ebp
  107045:	00 00                	add    %al,(%eax)
  107047:	00 7d 00             	add    %bh,0x0(%ebp)
  10704a:	00 00                	add    %al,(%eax)
  10704c:	00 00                	add    %al,(%eax)
  10704e:	00 00                	add    %al,(%eax)
  107050:	03 01                	add    (%ecx),%eax
  107052:	00 00                	add    %al,(%eax)
  107054:	03 01                	add    (%ecx),%eax
  107056:	00 00                	add    %al,(%eax)
  107058:	30 01                	xor    %al,(%ecx)
  10705a:	00 00                	add    %al,(%eax)
  10705c:	0a 01                	or     (%ecx),%al
  10705e:	00 00                	add    %al,(%eax)
  107060:	0a 01                	or     (%ecx),%al
  107062:	00 00                	add    %al,(%eax)
  107064:	0b 01                	or     (%ecx),%eax
  107066:	00 00                	add    %al,(%eax)
  107068:	61                   	popa   
  107069:	00 00                	add    %al,(%eax)
  10706b:	00 41 00             	add    %al,0x0(%ecx)
  10706e:	00 00                	add    %al,(%eax)
  107070:	00 00                	add    %al,(%eax)
  107072:	00 00                	add    %al,(%eax)
  107074:	73 00                	jae    107076 <keymap+0x176>
  107076:	00 00                	add    %al,(%eax)
  107078:	53                   	push   %ebx
  107079:	00 00                	add    %al,(%eax)
  10707b:	00 00                	add    %al,(%eax)
  10707d:	00 00                	add    %al,(%eax)
  10707f:	00 64 00 00          	add    %ah,0x0(%eax,%eax,1)
  107083:	00 44 00 00          	add    %al,0x0(%eax,%eax,1)
  107087:	00 00                	add    %al,(%eax)
  107089:	00 00                	add    %al,(%eax)
  10708b:	00 66 00             	add    %ah,0x0(%esi)
  10708e:	00 00                	add    %al,(%eax)
  107090:	46                   	inc    %esi
  107091:	00 00                	add    %al,(%eax)
  107093:	00 00                	add    %al,(%eax)
  107095:	00 00                	add    %al,(%eax)
  107097:	00 67 00             	add    %ah,0x0(%edi)
  10709a:	00 00                	add    %al,(%eax)
  10709c:	47                   	inc    %edi
  10709d:	00 00                	add    %al,(%eax)
  10709f:	00 00                	add    %al,(%eax)
  1070a1:	00 00                	add    %al,(%eax)
  1070a3:	00 68 00             	add    %ch,0x0(%eax)
  1070a6:	00 00                	add    %al,(%eax)
  1070a8:	48                   	dec    %eax
  1070a9:	00 00                	add    %al,(%eax)
  1070ab:	00 00                	add    %al,(%eax)
  1070ad:	00 00                	add    %al,(%eax)
  1070af:	00 6a 00             	add    %ch,0x0(%edx)
  1070b2:	00 00                	add    %al,(%eax)
  1070b4:	4a                   	dec    %edx
  1070b5:	00 00                	add    %al,(%eax)
  1070b7:	00 00                	add    %al,(%eax)
  1070b9:	00 00                	add    %al,(%eax)
  1070bb:	00 6b 00             	add    %ch,0x0(%ebx)
  1070be:	00 00                	add    %al,(%eax)
  1070c0:	4b                   	dec    %ebx
  1070c1:	00 00                	add    %al,(%eax)
  1070c3:	00 00                	add    %al,(%eax)
  1070c5:	00 00                	add    %al,(%eax)
  1070c7:	00 6c 00 00          	add    %ch,0x0(%eax,%eax,1)
  1070cb:	00 4c 00 00          	add    %cl,0x0(%eax,%eax,1)
  1070cf:	00 00                	add    %al,(%eax)
  1070d1:	00 00                	add    %al,(%eax)
  1070d3:	00 3b                	add    %bh,(%ebx)
  1070d5:	00 00                	add    %al,(%eax)
  1070d7:	00 3a                	add    %bh,(%edx)
  1070d9:	00 00                	add    %al,(%eax)
  1070db:	00 00                	add    %al,(%eax)
  1070dd:	00 00                	add    %al,(%eax)
  1070df:	00 27                	add    %ah,(%edi)
  1070e1:	00 00                	add    %al,(%eax)
  1070e3:	00 22                	add    %ah,(%edx)
  1070e5:	00 00                	add    %al,(%eax)
  1070e7:	00 00                	add    %al,(%eax)
  1070e9:	00 00                	add    %al,(%eax)
  1070eb:	00 60 00             	add    %ah,0x0(%eax)
  1070ee:	00 00                	add    %al,(%eax)
  1070f0:	7e 00                	jle    1070f2 <keymap+0x1f2>
  1070f2:	00 00                	add    %al,(%eax)
  1070f4:	00 00                	add    %al,(%eax)
  1070f6:	00 00                	add    %al,(%eax)
  1070f8:	08 01                	or     %al,(%ecx)
  1070fa:	00 00                	add    %al,(%eax)
  1070fc:	08 01                	or     %al,(%ecx)
  1070fe:	00 00                	add    %al,(%eax)
  107100:	00 00                	add    %al,(%eax)
  107102:	00 00                	add    %al,(%eax)
  107104:	5c                   	pop    %esp
  107105:	00 00                	add    %al,(%eax)
  107107:	00 7c 00 00          	add    %bh,0x0(%eax,%eax,1)
  10710b:	00 00                	add    %al,(%eax)
  10710d:	00 00                	add    %al,(%eax)
  10710f:	00 7a 00             	add    %bh,0x0(%edx)
  107112:	00 00                	add    %al,(%eax)
  107114:	5a                   	pop    %edx
  107115:	00 00                	add    %al,(%eax)
  107117:	00 00                	add    %al,(%eax)
  107119:	00 00                	add    %al,(%eax)
  10711b:	00 78 00             	add    %bh,0x0(%eax)
  10711e:	00 00                	add    %al,(%eax)
  107120:	58                   	pop    %eax
  107121:	00 00                	add    %al,(%eax)
  107123:	00 00                	add    %al,(%eax)
  107125:	00 00                	add    %al,(%eax)
  107127:	00 63 00             	add    %ah,0x0(%ebx)
  10712a:	00 00                	add    %al,(%eax)
  10712c:	43                   	inc    %ebx
  10712d:	00 00                	add    %al,(%eax)
  10712f:	00 00                	add    %al,(%eax)
  107131:	00 00                	add    %al,(%eax)
  107133:	00 76 00             	add    %dh,0x0(%esi)
  107136:	00 00                	add    %al,(%eax)
  107138:	56                   	push   %esi
  107139:	00 00                	add    %al,(%eax)
  10713b:	00 00                	add    %al,(%eax)
  10713d:	00 00                	add    %al,(%eax)
  10713f:	00 62 00             	add    %ah,0x0(%edx)
  107142:	00 00                	add    %al,(%eax)
  107144:	42                   	inc    %edx
  107145:	00 00                	add    %al,(%eax)
  107147:	00 00                	add    %al,(%eax)
  107149:	00 00                	add    %al,(%eax)
  10714b:	00 6e 00             	add    %ch,0x0(%esi)
  10714e:	00 00                	add    %al,(%eax)
  107150:	4e                   	dec    %esi
  107151:	00 00                	add    %al,(%eax)
  107153:	00 00                	add    %al,(%eax)
  107155:	00 00                	add    %al,(%eax)
  107157:	00 6d 00             	add    %ch,0x0(%ebp)
  10715a:	00 00                	add    %al,(%eax)
  10715c:	4d                   	dec    %ebp
  10715d:	00 00                	add    %al,(%eax)
  10715f:	00 00                	add    %al,(%eax)
  107161:	00 00                	add    %al,(%eax)
  107163:	00 2c 00             	add    %ch,(%eax,%eax,1)
  107166:	00 00                	add    %al,(%eax)
  107168:	3c 00                	cmp    $0x0,%al
  10716a:	00 00                	add    %al,(%eax)
  10716c:	00 00                	add    %al,(%eax)
  10716e:	00 00                	add    %al,(%eax)
  107170:	2e 00 00             	add    %al,%cs:(%eax)
  107173:	00 3e                	add    %bh,(%esi)
  107175:	00 00                	add    %al,(%eax)
  107177:	00 00                	add    %al,(%eax)
  107179:	00 00                	add    %al,(%eax)
  10717b:	00 2f                	add    %ch,(%edi)
  10717d:	00 00                	add    %al,(%eax)
  10717f:	00 3f                	add    %bh,(%edi)
  107181:	00 00                	add    %al,(%eax)
  107183:	00 2c 01             	add    %ch,(%ecx,%eax,1)
  107186:	00 00                	add    %al,(%eax)
  107188:	09 01                	or     %eax,(%ecx)
  10718a:	00 00                	add    %al,(%eax)
  10718c:	09 01                	or     %eax,(%ecx)
  10718e:	00 00                	add    %al,(%eax)
  107190:	00 00                	add    %al,(%eax)
  107192:	00 00                	add    %al,(%eax)
  107194:	2a 00                	sub    (%eax),%al
  107196:	00 00                	add    %al,(%eax)
  107198:	2a 00                	sub    (%eax),%al
  10719a:	00 00                	add    %al,(%eax)
  10719c:	00 00                	add    %al,(%eax)
  10719e:	00 00                	add    %al,(%eax)
  1071a0:	0c 01                	or     $0x1,%al
  1071a2:	00 00                	add    %al,(%eax)
  1071a4:	0c 01                	or     $0x1,%al
  1071a6:	00 00                	add    %al,(%eax)
  1071a8:	0d 01 00 00 20       	or     $0x20000001,%eax
  1071ad:	00 00                	add    %al,(%eax)
  1071af:	00 20                	add    %ah,(%eax)
  1071b1:	00 00                	add    %al,(%eax)
  1071b3:	00 00                	add    %al,(%eax)
  1071b5:	00 00                	add    %al,(%eax)
  1071b7:	00 0e                	add    %cl,(%esi)
  1071b9:	01 00                	add    %eax,(%eax)
  1071bb:	00 0e                	add    %cl,(%esi)
  1071bd:	01 00                	add    %eax,(%eax)
  1071bf:	00 00                	add    %al,(%eax)
  1071c1:	00 00                	add    %al,(%eax)
  1071c3:	00 11                	add    %dl,(%ecx)
  1071c5:	01 00                	add    %eax,(%eax)
  1071c7:	00 11                	add    %dl,(%ecx)
  1071c9:	01 00                	add    %eax,(%eax)
  1071cb:	00 00                	add    %al,(%eax)
  1071cd:	00 00                	add    %al,(%eax)
  1071cf:	00 12                	add    %dl,(%edx)
  1071d1:	01 00                	add    %eax,(%eax)
  1071d3:	00 12                	add    %dl,(%edx)
  1071d5:	01 00                	add    %eax,(%eax)
  1071d7:	00 00                	add    %al,(%eax)
  1071d9:	00 00                	add    %al,(%eax)
  1071db:	00 13                	add    %dl,(%ebx)
  1071dd:	01 00                	add    %eax,(%eax)
  1071df:	00 13                	add    %dl,(%ebx)
  1071e1:	01 00                	add    %eax,(%eax)
  1071e3:	00 00                	add    %al,(%eax)
  1071e5:	00 00                	add    %al,(%eax)
  1071e7:	00 14 01             	add    %dl,(%ecx,%eax,1)
  1071ea:	00 00                	add    %al,(%eax)
  1071ec:	14 01                	adc    $0x1,%al
  1071ee:	00 00                	add    %al,(%eax)
  1071f0:	00 00                	add    %al,(%eax)
  1071f2:	00 00                	add    %al,(%eax)
  1071f4:	15 01 00 00 15       	adc    $0x15000001,%eax
  1071f9:	01 00                	add    %eax,(%eax)
  1071fb:	00 00                	add    %al,(%eax)
  1071fd:	00 00                	add    %al,(%eax)
  1071ff:	00 16                	add    %dl,(%esi)
  107201:	01 00                	add    %eax,(%eax)
  107203:	00 16                	add    %dl,(%esi)
  107205:	01 00                	add    %eax,(%eax)
  107207:	00 00                	add    %al,(%eax)
  107209:	00 00                	add    %al,(%eax)
  10720b:	00 17                	add    %dl,(%edi)
  10720d:	01 00                	add    %eax,(%eax)
  10720f:	00 17                	add    %dl,(%edi)
  107211:	01 00                	add    %eax,(%eax)
  107213:	00 00                	add    %al,(%eax)
  107215:	00 00                	add    %al,(%eax)
  107217:	00 18                	add    %bl,(%eax)
  107219:	01 00                	add    %eax,(%eax)
  10721b:	00 18                	add    %bl,(%eax)
  10721d:	01 00                	add    %eax,(%eax)
  10721f:	00 00                	add    %al,(%eax)
  107221:	00 00                	add    %al,(%eax)
  107223:	00 19                	add    %bl,(%ecx)
  107225:	01 00                	add    %eax,(%eax)
  107227:	00 19                	add    %bl,(%ecx)
  107229:	01 00                	add    %eax,(%eax)
  10722b:	00 00                	add    %al,(%eax)
  10722d:	00 00                	add    %al,(%eax)
  10722f:	00 1a                	add    %bl,(%edx)
  107231:	01 00                	add    %eax,(%eax)
  107233:	00 1a                	add    %bl,(%edx)
  107235:	01 00                	add    %eax,(%eax)
  107237:	00 00                	add    %al,(%eax)
  107239:	00 00                	add    %al,(%eax)
  10723b:	00 0f                	add    %cl,(%edi)
  10723d:	01 00                	add    %eax,(%eax)
  10723f:	00 0f                	add    %cl,(%edi)
  107241:	01 00                	add    %eax,(%eax)
  107243:	00 00                	add    %al,(%eax)
  107245:	00 00                	add    %al,(%eax)
  107247:	00 10                	add    %dl,(%eax)
  107249:	01 00                	add    %eax,(%eax)
  10724b:	00 10                	add    %dl,(%eax)
  10724d:	01 00                	add    %eax,(%eax)
  10724f:	00 00                	add    %al,(%eax)
  107251:	00 00                	add    %al,(%eax)
  107253:	00 39                	add    %bh,(%ecx)
  107255:	01 00                	add    %eax,(%eax)
  107257:	00 37                	add    %dh,(%edi)
  107259:	00 00                	add    %al,(%eax)
  10725b:	00 21                	add    %ah,(%ecx)
  10725d:	01 00                	add    %eax,(%eax)
  10725f:	00 3a                	add    %bh,(%edx)
  107261:	01 00                	add    %eax,(%eax)
  107263:	00 38                	add    %bh,(%eax)
  107265:	00 00                	add    %al,(%eax)
  107267:	00 25 01 00 00 3b    	add    %ah,0x3b000001
  10726d:	01 00                	add    %eax,(%eax)
  10726f:	00 39                	add    %bh,(%ecx)
  107271:	00 00                	add    %al,(%eax)
  107273:	00 23                	add    %ah,(%ebx)
  107275:	01 00                	add    %eax,(%eax)
  107277:	00 2e                	add    %ch,(%esi)
  107279:	01 00                	add    %eax,(%eax)
  10727b:	00 2d 00 00 00 00    	add    %ch,0x0
  107281:	00 00                	add    %al,(%eax)
  107283:	00 36                	add    %dh,(%esi)
  107285:	01 00                	add    %eax,(%eax)
  107287:	00 34 00             	add    %dh,(%eax,%eax,1)
  10728a:	00 00                	add    %al,(%eax)
  10728c:	27                   	daa    
  10728d:	01 00                	add    %eax,(%eax)
  10728f:	00 37                	add    %dh,(%edi)
  107291:	01 00                	add    %eax,(%eax)
  107293:	00 35 00 00 00 00    	add    %dh,0x0
  107299:	00 00                	add    %al,(%eax)
  10729b:	00 38                	add    %bh,(%eax)
  10729d:	01 00                	add    %eax,(%eax)
  10729f:	00 36                	add    %dh,(%esi)
  1072a1:	00 00                	add    %al,(%eax)
  1072a3:	00 28                	add    %ch,(%eax)
  1072a5:	01 00                	add    %eax,(%eax)
  1072a7:	00 2f                	add    %ch,(%edi)
  1072a9:	01 00                	add    %eax,(%eax)
  1072ab:	00 2b                	add    %ch,(%ebx)
  1072ad:	00 00                	add    %al,(%eax)
  1072af:	00 00                	add    %al,(%eax)
  1072b1:	00 00                	add    %al,(%eax)
  1072b3:	00 33                	add    %dh,(%ebx)
  1072b5:	01 00                	add    %eax,(%eax)
  1072b7:	00 31                	add    %dh,(%ecx)
  1072b9:	00 00                	add    %al,(%eax)
  1072bb:	00 22                	add    %ah,(%edx)
  1072bd:	01 00                	add    %eax,(%eax)
  1072bf:	00 34 01             	add    %dh,(%ecx,%eax,1)
  1072c2:	00 00                	add    %al,(%eax)
  1072c4:	32 00                	xor    (%eax),%al
  1072c6:	00 00                	add    %al,(%eax)
  1072c8:	26 01 00             	add    %eax,%es:(%eax)
  1072cb:	00 35 01 00 00 33    	add    %dh,0x33000001
  1072d1:	00 00                	add    %al,(%eax)
  1072d3:	00 24 01             	add    %ah,(%ecx,%eax,1)
  1072d6:	00 00                	add    %al,(%eax)
  1072d8:	32 01                	xor    (%ecx),%al
  1072da:	00 00                	add    %al,(%eax)
  1072dc:	30 00                	xor    %al,(%eax)
  1072de:	00 00                	add    %al,(%eax)
  1072e0:	1f                   	pop    %ds
  1072e1:	01 00                	add    %eax,(%eax)
  1072e3:	00 31                	add    %dh,(%ecx)
  1072e5:	01 00                	add    %eax,(%eax)
  1072e7:	00 2e                	add    %ch,(%esi)
  1072e9:	00 00                	add    %al,(%eax)
  1072eb:	00 20                	add    %ah,(%eax)
  1072ed:	01 00                	add    %eax,(%eax)
	...
  107313:	00 1b                	add    %bl,(%ebx)
  107315:	01 00                	add    %eax,(%eax)
  107317:	00 1b                	add    %bl,(%ebx)
  107319:	01 00                	add    %eax,(%eax)
  10731b:	00 00                	add    %al,(%eax)
  10731d:	00 00                	add    %al,(%eax)
  10731f:	00 1c 01             	add    %bl,(%ecx,%eax,1)
  107322:	00 00                	add    %al,(%eax)
  107324:	1c 01                	sbb    $0x1,%al
	...
  10734a:	00 00                	add    %al,(%eax)
  10734c:	05 01 00 00 00       	add    $0x1,%eax
  107351:	00 00                	add    %al,(%eax)
  107353:	00 00                	add    %al,(%eax)
  107355:	00 00                	add    %al,(%eax)
  107357:	00 06                	add    %al,(%esi)
  107359:	01 00                	add    %eax,(%eax)
	...
  107363:	00 07                	add    %al,(%edi)
  107365:	01 00                	add    %eax,(%eax)
	...

00107500 <hint>:
  107500:	63 75 69             	arpl   %si,0x69(%ebp)
  107503:	40                   	inc    %eax
  107504:	6f                   	outsl  %ds:(%esi),(%dx)
  107505:	73 3a                	jae    107541 <mm_map+0x1>
	...

00107508 <key_flags>:
  107508:	10 00                	adc    %al,(%eax)
	...

0010750c <color>:
  10750c:	00 09                	add    %cl,(%ecx)

Disassembly of section .bss:

00107520 <_tick>:
	...

00107528 <p_int>:
	...

00107540 <mm_map>:
	...

0010b540 <p_out>:
	...

0010b560 <keyboard_buf>:
	...

0010b96c <output_pos>:
	...

0010b980 <process>:
	...

00151180 <time>:
	...

001511a0 <hd_buf>:
	...

001515a0 <pde>:
  1515a0:	00 00                	add    %al,(%eax)
	...

001515a4 <u_pde>:
  1515a4:	00 00                	add    %al,(%eax)
	...

001515a8 <u_pte>:
  1515a8:	00 00                	add    %al,(%eax)
	...

001515ac <pte>:
	...

001515c0 <startup_time>:
	...

001515e0 <buf>:
	...

001519e0 <hd_rq_cur>:
	...

00151a00 <hd_request>:
	...

Disassembly of section .comment:

00000000 <.comment>:
   0:	47                   	inc    %edi
   1:	43                   	inc    %ebx
   2:	43                   	inc    %ebx
   3:	3a 20                	cmp    (%eax),%ah
   5:	28 55 62             	sub    %dl,0x62(%ebp)
   8:	75 6e                	jne    78 <MULTIBOOT_HEADER_FLAGS+0x75>
   a:	74 75                	je     81 <MULTIBOOT_HEADER_FLAGS+0x7e>
   c:	2f                   	das    
   d:	4c                   	dec    %esp
   e:	69 6e 61 72 6f 20 34 	imul   $0x34206f72,0x61(%esi),%ebp
  15:	2e                   	cs
  16:	35 2e 32 2d 38       	xor    $0x382d322e,%eax
  1b:	75 62                	jne    7f <MULTIBOOT_HEADER_FLAGS+0x7c>
  1d:	75 6e                	jne    8d <MULTIBOOT_HEADER_FLAGS+0x8a>
  1f:	74 75                	je     96 <MULTIBOOT_HEADER_FLAGS+0x93>
  21:	34 29                	xor    $0x29,%al
  23:	20 34 2e             	and    %dh,(%esi,%ebp,1)
  26:	35                   	.byte 0x35
  27:	2e 32 00             	xor    %cs:(%eax),%al

Disassembly of section .debug_aranges:

00000000 <.debug_aranges>:
   0:	1c 00                	sbb    $0x0,%al
   2:	00 00                	add    %al,(%eax)
   4:	02 00                	add    (%eax),%al
   6:	00 00                	add    %al,(%eax)
   8:	00 00                	add    %al,(%eax)
   a:	04 00                	add    $0x0,%al
   c:	00 00                	add    %al,(%eax)
   e:	00 00                	add    %al,(%eax)
  10:	fc                   	cld    
  11:	3a 10                	cmp    (%eax),%dl
  13:	00 e2                	add    %ah,%dl
  15:	07                   	pop    %es
	...
  1e:	00 00                	add    %al,(%eax)
  20:	1c 00                	sbb    $0x0,%al
  22:	00 00                	add    %al,(%eax)
  24:	02 00                	add    (%eax),%al
  26:	12 0d 00 00 04 00    	adc    0x40000,%cl
  2c:	00 00                	add    %al,(%eax)
  2e:	00 00                	add    %al,(%eax)
  30:	e0 42                	loopne 74 <MULTIBOOT_HEADER_FLAGS+0x71>
  32:	10 00                	adc    %al,(%eax)
  34:	56                   	push   %esi
  35:	01 00                	add    %eax,(%eax)
	...
  3f:	00 1c 00             	add    %bl,(%eax,%eax,1)
  42:	00 00                	add    %al,(%eax)
  44:	02 00                	add    (%eax),%al
  46:	09 12                	or     %edx,(%edx)
  48:	00 00                	add    %al,(%eax)
  4a:	04 00                	add    $0x0,%al
  4c:	00 00                	add    %al,(%eax)
  4e:	00 00                	add    %al,(%eax)
  50:	38 44 10 00          	cmp    %al,0x0(%eax,%edx,1)
  54:	b5 02                	mov    $0x2,%ch
	...
  5e:	00 00                	add    %al,(%eax)
  60:	1c 00                	sbb    $0x0,%al
  62:	00 00                	add    %al,(%eax)
  64:	02 00                	add    (%eax),%al
  66:	5c                   	pop    %esp
  67:	16                   	push   %ss
  68:	00 00                	add    %al,(%eax)
  6a:	04 00                	add    $0x0,%al
  6c:	00 00                	add    %al,(%eax)
  6e:	00 00                	add    %al,(%eax)
  70:	f0 46                	lock inc %esi
  72:	10 00                	adc    %al,(%eax)
  74:	68 02 00 00 00       	push   $0x2
  79:	00 00                	add    %al,(%eax)
  7b:	00 00                	add    %al,(%eax)
  7d:	00 00                	add    %al,(%eax)
  7f:	00 1c 00             	add    %bl,(%eax,%eax,1)
  82:	00 00                	add    %al,(%eax)
  84:	02 00                	add    (%eax),%al
  86:	7b 1c                	jnp    a4 <MULTIBOOT_HEADER_FLAGS+0xa1>
  88:	00 00                	add    %al,(%eax)
  8a:	04 00                	add    $0x0,%al
  8c:	00 00                	add    %al,(%eax)
  8e:	00 00                	add    %al,(%eax)
  90:	58                   	pop    %eax
  91:	49                   	dec    %ecx
  92:	10 00                	adc    %al,(%eax)
  94:	23 04 00             	and    (%eax,%eax,1),%eax
	...
  9f:	00 1c 00             	add    %bl,(%eax,%eax,1)
  a2:	00 00                	add    %al,(%eax)
  a4:	02 00                	add    (%eax),%al
  a6:	3f                   	aas    
  a7:	20 00                	and    %al,(%eax)
  a9:	00 04 00             	add    %al,(%eax,%eax,1)
  ac:	00 00                	add    %al,(%eax)
  ae:	00 00                	add    %al,(%eax)
  b0:	7c 4d                	jl     ff <MULTIBOOT_HEADER_FLAGS+0xfc>
  b2:	10 00                	adc    %al,(%eax)
  b4:	76 04                	jbe    ba <MULTIBOOT_HEADER_FLAGS+0xb7>
	...
  be:	00 00                	add    %al,(%eax)
  c0:	1c 00                	sbb    $0x0,%al
  c2:	00 00                	add    %al,(%eax)
  c4:	02 00                	add    (%eax),%al
  c6:	cf                   	iret   
  c7:	22 00                	and    (%eax),%al
  c9:	00 04 00             	add    %al,(%eax,%eax,1)
  cc:	00 00                	add    %al,(%eax)
  ce:	00 00                	add    %al,(%eax)
  d0:	f4                   	hlt    
  d1:	51                   	push   %ecx
  d2:	10 00                	adc    %al,(%eax)
  d4:	67 00 00             	add    %al,(%bx,%si)
	...
  df:	00 1c 00             	add    %bl,(%eax,%eax,1)
  e2:	00 00                	add    %al,(%eax)
  e4:	02 00                	add    (%eax),%al
  e6:	da 26                	fisubl (%esi)
  e8:	00 00                	add    %al,(%eax)
  ea:	04 00                	add    $0x0,%al
  ec:	00 00                	add    %al,(%eax)
  ee:	00 00                	add    %al,(%eax)
  f0:	5c                   	pop    %esp
  f1:	52                   	push   %edx
  f2:	10 00                	adc    %al,(%eax)
  f4:	0b 02                	or     (%edx),%eax
	...
  fe:	00 00                	add    %al,(%eax)
 100:	1c 00                	sbb    $0x0,%al
 102:	00 00                	add    %al,(%eax)
 104:	02 00                	add    (%eax),%al
 106:	a5                   	movsl  %ds:(%esi),%es:(%edi)
 107:	2c 00                	sub    $0x0,%al
 109:	00 04 00             	add    %al,(%eax,%eax,1)
 10c:	00 00                	add    %al,(%eax)
 10e:	00 00                	add    %al,(%eax)
 110:	68 54 10 00 81       	push   $0x81001054
	...
 11d:	00 00                	add    %al,(%eax)
 11f:	00 1c 00             	add    %bl,(%eax,%eax,1)
 122:	00 00                	add    %al,(%eax)
 124:	02 00                	add    (%eax),%al
 126:	df 2d 00 00 04 00    	fildll 0x40000
 12c:	00 00                	add    %al,(%eax)
 12e:	00 00                	add    %al,(%eax)
 130:	ec                   	in     (%dx),%al
 131:	54                   	push   %esp
 132:	10 00                	adc    %al,(%eax)
 134:	c8 03 00 00          	enter  $0x3,$0x0
	...

Disassembly of section .debug_pubnames:

00000000 <.debug_pubnames>:
   0:	bc 01 00 00 02       	mov    $0x2000001,%esp
   5:	00 00                	add    %al,(%eax)
   7:	00 00                	add    %al,(%eax)
   9:	00 12                	add    %dl,(%edx)
   b:	0d 00 00 43 04       	or     $0x4430000,%eax
  10:	00 00                	add    %al,(%eax)
  12:	64 6f                	outsl  %fs:(%esi),(%dx)
  14:	5f                   	pop    %edi
  15:	6e                   	outsb  %ds:(%esi),(%dx)
  16:	6f                   	outsl  %ds:(%esi),(%dx)
  17:	6d                   	insl   (%dx),%es:(%edi)
  18:	00 57 04             	add    %dl,0x4(%edi)
  1b:	00 00                	add    %al,(%eax)
  1d:	64 6f                	outsl  %fs:(%esi),(%dx)
  1f:	5f                   	pop    %edi
  20:	72 65                	jb     87 <MULTIBOOT_HEADER_FLAGS+0x84>
  22:	73 65                	jae    89 <MULTIBOOT_HEADER_FLAGS+0x86>
  24:	72 76                	jb     9c <MULTIBOOT_HEADER_FLAGS+0x99>
  26:	65 00 6b 04          	add    %ch,%gs:0x4(%ebx)
  2a:	00 00                	add    %al,(%eax)
  2c:	69 6e 69 74 5f 69 64 	imul   $0x64695f74,0x69(%esi),%ebp
  33:	74 00                	je     35 <MULTIBOOT_HEADER_FLAGS+0x32>
  35:	c6 04 00 00          	movb   $0x0,(%eax,%eax,1)
  39:	64 6f                	outsl  %fs:(%esi),(%dx)
  3b:	5f                   	pop    %edi
  3c:	64 69 76 5f 65 72 72 	imul   $0x6f727265,%fs:0x5f(%esi),%esi
  43:	6f 
  44:	72 00                	jb     46 <MULTIBOOT_HEADER_FLAGS+0x43>
  46:	35 05 00 00 64       	xor    $0x64000005,%eax
  4b:	6f                   	outsl  %ds:(%esi),(%dx)
  4c:	5f                   	pop    %edi
  4d:	64 65 62 75 67       	fs bound %esi,%fs:%gs:0x67(%ebp)
  52:	00 90 05 00 00 64    	add    %dl,0x64000005(%eax)
  58:	6f                   	outsl  %ds:(%esi),(%dx)
  59:	5f                   	pop    %edi
  5a:	62 72 65             	bound  %esi,0x65(%edx)
  5d:	61                   	popa   
  5e:	6b 70 6f 69          	imul   $0x69,0x6f(%eax),%esi
  62:	6e                   	outsb  %ds:(%esi),(%dx)
  63:	74 00                	je     65 <MULTIBOOT_HEADER_FLAGS+0x62>
  65:	b8 05 00 00 64       	mov    $0x64000005,%eax
  6a:	6f                   	outsl  %ds:(%esi),(%dx)
  6b:	5f                   	pop    %edi
  6c:	6f                   	outsl  %ds:(%esi),(%dx)
  6d:	76 65                	jbe    d4 <MULTIBOOT_HEADER_FLAGS+0xd1>
  6f:	72 66                	jb     d7 <MULTIBOOT_HEADER_FLAGS+0xd4>
  71:	6c                   	insb   (%dx),%es:(%edi)
  72:	6f                   	outsl  %ds:(%esi),(%dx)
  73:	77 00                	ja     75 <MULTIBOOT_HEADER_FLAGS+0x72>
  75:	13 06                	adc    (%esi),%eax
  77:	00 00                	add    %al,(%eax)
  79:	64 6f                	outsl  %fs:(%esi),(%dx)
  7b:	5f                   	pop    %edi
  7c:	6f                   	outsl  %ds:(%esi),(%dx)
  7d:	76 65                	jbe    e4 <MULTIBOOT_HEADER_FLAGS+0xe1>
  7f:	72 62                	jb     e3 <MULTIBOOT_HEADER_FLAGS+0xe0>
  81:	6f                   	outsl  %ds:(%esi),(%dx)
  82:	75 6e                	jne    f2 <MULTIBOOT_HEADER_FLAGS+0xef>
  84:	64 00 6e 06          	add    %ch,%fs:0x6(%esi)
  88:	00 00                	add    %al,(%eax)
  8a:	64 6f                	outsl  %fs:(%esi),(%dx)
  8c:	5f                   	pop    %edi
  8d:	75 6e                	jne    fd <MULTIBOOT_HEADER_FLAGS+0xfa>
  8f:	64 65 66 69 6e 65 00 	fs imul $0xc900,%fs:%gs:0x65(%esi),%bp
  96:	c9 
  97:	06                   	push   %es
  98:	00 00                	add    %al,(%eax)
  9a:	64 6f                	outsl  %fs:(%esi),(%dx)
  9c:	5f                   	pop    %edi
  9d:	6e                   	outsb  %ds:(%esi),(%dx)
  9e:	6d                   	insl   (%dx),%es:(%edi)
  9f:	00 24 07             	add    %ah,(%edi,%eax,1)
  a2:	00 00                	add    %al,(%eax)
  a4:	64 6f                	outsl  %fs:(%esi),(%dx)
  a6:	5f                   	pop    %edi
  a7:	64 6f                	outsl  %fs:(%esi),(%dx)
  a9:	75 62                	jne    10d <MULTIBOOT_HEADER_FLAGS+0x10a>
  ab:	6c                   	insb   (%dx),%es:(%edi)
  ac:	65                   	gs
  ad:	66 61                	popaw  
  af:	75 6c                	jne    11d <MULTIBOOT_HEADER_FLAGS+0x11a>
  b1:	74 00                	je     b3 <MULTIBOOT_HEADER_FLAGS+0xb0>
  b3:	7f 07                	jg     bc <MULTIBOOT_HEADER_FLAGS+0xb9>
  b5:	00 00                	add    %al,(%eax)
  b7:	64 6f                	outsl  %fs:(%esi),(%dx)
  b9:	5f                   	pop    %edi
  ba:	63 6f 70             	arpl   %bp,0x70(%edi)
  bd:	00 da                	add    %bl,%dl
  bf:	07                   	pop    %es
  c0:	00 00                	add    %al,(%eax)
  c2:	64 6f                	outsl  %fs:(%esi),(%dx)
  c4:	5f                   	pop    %edi
  c5:	74 73                	je     13a <MULTIBOOT_HEADER_FLAGS+0x137>
  c7:	73 00                	jae    c9 <MULTIBOOT_HEADER_FLAGS+0xc6>
  c9:	35 08 00 00 64       	xor    $0x64000008,%eax
  ce:	6f                   	outsl  %ds:(%esi),(%dx)
  cf:	5f                   	pop    %edi
  d0:	73 65                	jae    137 <MULTIBOOT_HEADER_FLAGS+0x134>
  d2:	67 5f                	addr16 pop %edi
  d4:	66 61                	popaw  
  d6:	75 6c                	jne    144 <MULTIBOOT_HEADER_FLAGS+0x141>
  d8:	74 00                	je     da <MULTIBOOT_HEADER_FLAGS+0xd7>
  da:	90                   	nop
  db:	08 00                	or     %al,(%eax)
  dd:	00 64 6f 5f          	add    %ah,0x5f(%edi,%ebp,2)
  e1:	73 74                	jae    157 <MULTIBOOT_HEADER_FLAGS+0x154>
  e3:	61                   	popa   
  e4:	63 6b 5f             	arpl   %bp,0x5f(%ebx)
  e7:	66 61                	popaw  
  e9:	75 6c                	jne    157 <MULTIBOOT_HEADER_FLAGS+0x154>
  eb:	74 00                	je     ed <MULTIBOOT_HEADER_FLAGS+0xea>
  ed:	eb 08                	jmp    f7 <MULTIBOOT_HEADER_FLAGS+0xf4>
  ef:	00 00                	add    %al,(%eax)
  f1:	64 6f                	outsl  %fs:(%esi),(%dx)
  f3:	5f                   	pop    %edi
  f4:	67 65 6e             	outsb  %gs:(%si),(%dx)
  f7:	65                   	gs
  f8:	72 61                	jb     15b <MULTIBOOT_HEADER_FLAGS+0x158>
  fa:	6c                   	insb   (%dx),%es:(%edi)
  fb:	5f                   	pop    %edi
  fc:	70 72                	jo     170 <MULTIBOOT_HEADER_FLAGS+0x16d>
  fe:	6f                   	outsl  %ds:(%esi),(%dx)
  ff:	74 65                	je     166 <MULTIBOOT_HEADER_FLAGS+0x163>
 101:	63 74 00 46          	arpl   %si,0x46(%eax,%eax,1)
 105:	09 00                	or     %eax,(%eax)
 107:	00 64 6f 5f          	add    %ah,0x5f(%edi,%ebp,2)
 10b:	66                   	data16
 10c:	70 75                	jo     183 <MULTIBOOT_HEADER_FLAGS+0x180>
 10e:	5f                   	pop    %edi
 10f:	65                   	gs
 110:	72 72                	jb     184 <MULTIBOOT_HEADER_FLAGS+0x181>
 112:	6f                   	outsl  %ds:(%esi),(%dx)
 113:	72 00                	jb     115 <MULTIBOOT_HEADER_FLAGS+0x112>
 115:	a1 09 00 00 64       	mov    0x64000009,%eax
 11a:	6f                   	outsl  %ds:(%esi),(%dx)
 11b:	5f                   	pop    %edi
 11c:	61                   	popa   
 11d:	6c                   	insb   (%dx),%es:(%edi)
 11e:	69 67 6e 5f 63 68 65 	imul   $0x6568635f,0x6e(%edi),%esp
 125:	63 6b 00             	arpl   %bp,0x0(%ebx)
 128:	fc                   	cld    
 129:	09 00                	or     %eax,(%eax)
 12b:	00 64 6f 5f          	add    %ah,0x5f(%edi,%ebp,2)
 12f:	6d                   	insl   (%dx),%es:(%edi)
 130:	61                   	popa   
 131:	63 68 69             	arpl   %bp,0x69(%eax)
 134:	6e                   	outsb  %ds:(%esi),(%dx)
 135:	65                   	gs
 136:	5f                   	pop    %edi
 137:	63 68 65             	arpl   %bp,0x65(%eax)
 13a:	63 6b 00             	arpl   %bp,0x0(%ebx)
 13d:	57                   	push   %edi
 13e:	0a 00                	or     (%eax),%al
 140:	00 64 6f 5f          	add    %ah,0x5f(%edi,%ebp,2)
 144:	73 69                	jae    1af <MULTIBOOT_HEADER_FLAGS+0x1ac>
 146:	6d                   	insl   (%dx),%es:(%edi)
 147:	64                   	fs
 148:	5f                   	pop    %edi
 149:	66 61                	popaw  
 14b:	75 6c                	jne    1b9 <MULTIBOOT_HEADER_FLAGS+0x1b6>
 14d:	74 00                	je     14f <MULTIBOOT_HEADER_FLAGS+0x14c>
 14f:	b2 0a                	mov    $0xa,%dl
 151:	00 00                	add    %al,(%eax)
 153:	64 6f                	outsl  %fs:(%esi),(%dx)
 155:	5f                   	pop    %edi
 156:	69 6e 74 5f 74 69 6d 	imul   $0x6d69745f,0x74(%esi),%ebp
 15d:	65                   	gs
 15e:	72 00                	jb     160 <MULTIBOOT_HEADER_FLAGS+0x15d>
 160:	20 0b                	and    %cl,(%ebx)
 162:	00 00                	add    %al,(%eax)
 164:	64 6f                	outsl  %fs:(%esi),(%dx)
 166:	5f                   	pop    %edi
 167:	69 6e 74 5f 68 64 00 	imul   $0x64685f,0x74(%esi),%ebp
 16e:	7b 0b                	jnp    17b <MULTIBOOT_HEADER_FLAGS+0x178>
 170:	00 00                	add    %al,(%eax)
 172:	73 79                	jae    1ed <MULTIBOOT_HEADER_FLAGS+0x1ea>
 174:	73 5f                	jae    1d5 <MULTIBOOT_HEADER_FLAGS+0x1d2>
 176:	63 61 6c             	arpl   %sp,0x6c(%ecx)
 179:	6c                   	insb   (%dx),%es:(%edi)
 17a:	00 a5 0c 00 00 70    	add    %ah,0x7000000c(%ebp)
 180:	72 6f                	jb     1f1 <MULTIBOOT_HEADER_FLAGS+0x1ee>
 182:	63 65 73             	arpl   %sp,0x73(%ebp)
 185:	73 00                	jae    187 <MULTIBOOT_HEADER_FLAGS+0x184>
 187:	b7 0c                	mov    $0xc,%bh
 189:	00 00                	add    %al,(%eax)
 18b:	74 69                	je     1f6 <MULTIBOOT_HEADER_FLAGS+0x1f3>
 18d:	6d                   	insl   (%dx),%es:(%edi)
 18e:	65                   	gs
 18f:	00 c9                	add    %cl,%cl
 191:	0c 00                	or     $0x0,%al
 193:	00 5f 74             	add    %bl,0x74(%edi)
 196:	69 63 6b 00 db 0c 00 	imul   $0xcdb00,0x6b(%ebx),%esp
 19d:	00 68 61             	add    %ch,0x61(%eax)
 1a0:	6e                   	outsb  %ds:(%esi),(%dx)
 1a1:	64                   	fs
 1a2:	6c                   	insb   (%dx),%es:(%edi)
 1a3:	65                   	gs
 1a4:	72 73                	jb     219 <MULTIBOOT_HEADER_FLAGS+0x216>
 1a6:	00 ed                	add    %ch,%ch
 1a8:	0c 00                	or     $0x0,%al
 1aa:	00 70 5f             	add    %dh,0x5f(%eax)
 1ad:	69 6e 74 00 ff 0c 00 	imul   $0xcff00,0x74(%esi),%ebp
 1b4:	00 68 64             	add    %ch,0x64(%eax)
 1b7:	5f                   	pop    %edi
 1b8:	62 75 66             	bound  %esi,0x66(%ebp)
 1bb:	00 00                	add    %al,(%eax)
 1bd:	00 00                	add    %al,(%eax)
 1bf:	00 6f 00             	add    %ch,0x0(%edi)
 1c2:	00 00                	add    %al,(%eax)
 1c4:	02 00                	add    (%eax),%al
 1c6:	12 0d 00 00 f7 04    	adc    0x4f70000,%cl
 1cc:	00 00                	add    %al,(%eax)
 1ce:	aa                   	stos   %al,%es:(%edi)
 1cf:	03 00                	add    (%eax),%eax
 1d1:	00 6b 65             	add    %ch,0x65(%ebx)
 1d4:	72 6e                	jb     244 <MULTIBOOT_HEADER_FLAGS+0x241>
 1d6:	65                   	gs
 1d7:	6c                   	insb   (%dx),%es:(%edi)
 1d8:	5f                   	pop    %edi
 1d9:	6d                   	insl   (%dx),%es:(%edi)
 1da:	61                   	popa   
 1db:	69 6e 00 f8 03 00 00 	imul   $0x3f8,0x0(%esi),%ebp
 1e2:	54                   	push   %esp
 1e3:	61                   	popa   
 1e4:	73 6b                	jae    251 <MULTIBOOT_HEADER_FLAGS+0x24e>
 1e6:	30 00                	xor    %al,(%eax)
 1e8:	0c 04                	or     $0x4,%al
 1ea:	00 00                	add    %al,(%eax)
 1ec:	54                   	push   %esp
 1ed:	61                   	popa   
 1ee:	73 6b                	jae    25b <MULTIBOOT_HEADER_FLAGS+0x258>
 1f0:	31 00                	xor    %eax,(%eax)
 1f2:	20 04 00             	and    %al,(%eax,%eax,1)
 1f5:	00 54 61 73          	add    %dl,0x73(%ecx,%eiz,2)
 1f9:	6b 32 00             	imul   $0x0,(%edx),%esi
 1fc:	34 04                	xor    $0x4,%al
 1fe:	00 00                	add    %al,(%eax)
 200:	72 65                	jb     267 <MULTIBOOT_HEADER_FLAGS+0x264>
 202:	62 6f 6f             	bound  %ebp,0x6f(%edi)
 205:	74 00                	je     207 <MULTIBOOT_HEADER_FLAGS+0x204>
 207:	9d                   	popf   
 208:	04 00                	add    $0x0,%al
 20a:	00 70 72             	add    %dh,0x72(%eax)
 20d:	6f                   	outsl  %ds:(%esi),(%dx)
 20e:	63 65 73             	arpl   %sp,0x73(%ebp)
 211:	73 00                	jae    213 <MULTIBOOT_HEADER_FLAGS+0x210>
 213:	af                   	scas   %es:(%edi),%eax
 214:	04 00                	add    $0x0,%al
 216:	00 74 69 6d          	add    %dh,0x6d(%ecx,%ebp,2)
 21a:	65                   	gs
 21b:	00 d2                	add    %dl,%dl
 21d:	04 00                	add    $0x0,%al
 21f:	00 6d 6d             	add    %ch,0x6d(%ebp)
 222:	5f                   	pop    %edi
 223:	6d                   	insl   (%dx),%es:(%edi)
 224:	61                   	popa   
 225:	70 00                	jo     227 <MULTIBOOT_HEADER_FLAGS+0x224>
 227:	e4 04                	in     $0x4,%al
 229:	00 00                	add    %al,(%eax)
 22b:	70 6f                	jo     29c <MULTIBOOT_HEADER_FLAGS+0x299>
 22d:	73 00                	jae    22f <MULTIBOOT_HEADER_FLAGS+0x22c>
 22f:	00 00                	add    %al,(%eax)
 231:	00 00                	add    %al,(%eax)
 233:	27                   	daa    
 234:	00 00                	add    %al,(%eax)
 236:	00 02                	add    %al,(%edx)
 238:	00 09                	add    %cl,(%ecx)
 23a:	12 00                	adc    (%eax),%al
 23c:	00 53 04             	add    %dl,0x4(%ebx)
 23f:	00 00                	add    %al,(%eax)
 241:	43                   	inc    %ebx
 242:	03 00                	add    (%eax),%eax
 244:	00 69 6e             	add    %ch,0x6e(%ecx)
 247:	69 74 5f 67 64 74 00 	imul   $0x40007464,0x67(%edi,%ebx,2),%esi
 24e:	40 
 24f:	04 00                	add    $0x0,%al
 251:	00 70 72             	add    %dh,0x72(%eax)
 254:	6f                   	outsl  %ds:(%esi),(%dx)
 255:	63 65 73             	arpl   %sp,0x73(%ebp)
 258:	73 00                	jae    25a <MULTIBOOT_HEADER_FLAGS+0x257>
 25a:	00 00                	add    %al,(%eax)
 25c:	00 00                	add    %al,(%eax)
 25e:	be 00 00 00 02       	mov    $0x2000000,%esi
 263:	00 5c 16 00          	add    %bl,0x0(%esi,%edx,1)
 267:	00 1f                	add    %bl,(%edi)
 269:	06                   	push   %es
 26a:	00 00                	add    %al,(%eax)
 26c:	43                   	inc    %ebx
 26d:	03 00                	add    (%eax),%eax
 26f:	00 69 6e             	add    %ch,0x6e(%ecx)
 272:	69 74 5f 70 61 67 65 	imul   $0x656761,0x70(%edi,%ebx,2),%esi
 279:	00 
 27a:	89 03                	mov    %eax,(%ebx)
 27c:	00 00                	add    %al,(%eax)
 27e:	67                   	addr16
 27f:	65                   	gs
 280:	74 5f                	je     2e1 <MULTIBOOT_HEADER_FLAGS+0x2de>
 282:	70 64                	jo     2e8 <MULTIBOOT_HEADER_FLAGS+0x2e5>
 284:	65                   	gs
 285:	5f                   	pop    %edi
 286:	62 79 5f             	bound  %edi,0x5f(%ecx)
 289:	76 69                	jbe    2f4 <MULTIBOOT_HEADER_FLAGS+0x2f1>
 28b:	72 00                	jb     28d <MULTIBOOT_HEADER_FLAGS+0x28a>
 28d:	c8 03 00 00          	enter  $0x3,$0x0
 291:	64 6f                	outsl  %fs:(%esi),(%dx)
 293:	5f                   	pop    %edi
 294:	70 61                	jo     2f7 <MULTIBOOT_HEADER_FLAGS+0x2f4>
 296:	67                   	addr16
 297:	65                   	gs
 298:	5f                   	pop    %edi
 299:	66 61                	popaw  
 29b:	75 6c                	jne    309 <MULTIBOOT_HEADER_FLAGS+0x306>
 29d:	74 00                	je     29f <MULTIBOOT_HEADER_FLAGS+0x29c>
 29f:	37                   	aaa    
 2a0:	04 00                	add    $0x0,%al
 2a2:	00 70 75             	add    %dh,0x75(%eax)
 2a5:	74 5f                	je     306 <MULTIBOOT_HEADER_FLAGS+0x303>
 2a7:	70 61                	jo     30a <MULTIBOOT_HEADER_FLAGS+0x307>
 2a9:	67 65 00 9d 04 00    	add    %bl,%gs:0x4(%di)
 2af:	00 6b 67             	add    %ch,0x67(%ebx)
 2b2:	65                   	gs
 2b3:	74 5f                	je     314 <MULTIBOOT_HEADER_FLAGS+0x311>
 2b5:	66                   	data16
 2b6:	72 65                	jb     31d <MULTIBOOT_HEADER_FLAGS+0x31a>
 2b8:	65                   	gs
 2b9:	5f                   	pop    %edi
 2ba:	70 61                	jo     31d <MULTIBOOT_HEADER_FLAGS+0x31a>
 2bc:	67                   	addr16
 2bd:	65                   	gs
 2be:	00 d5                	add    %dl,%ch
 2c0:	04 00                	add    $0x0,%al
 2c2:	00 6b 66             	add    %ch,0x66(%ebx)
 2c5:	72 65                	jb     32c <MULTIBOOT_HEADER_FLAGS+0x329>
 2c7:	65                   	gs
 2c8:	5f                   	pop    %edi
 2c9:	70 61                	jo     32c <MULTIBOOT_HEADER_FLAGS+0x329>
 2cb:	67 65 00 a0 05 00    	add    %ah,%gs:0x5(%bx,%si)
 2d1:	00 70 72             	add    %dh,0x72(%eax)
 2d4:	6f                   	outsl  %ds:(%esi),(%dx)
 2d5:	63 65 73             	arpl   %sp,0x73(%ebp)
 2d8:	73 00                	jae    2da <MULTIBOOT_HEADER_FLAGS+0x2d7>
 2da:	b2 05                	mov    $0x5,%dl
 2dc:	00 00                	add    %al,(%eax)
 2de:	6d                   	insl   (%dx),%es:(%edi)
 2df:	6d                   	insl   (%dx),%es:(%edi)
 2e0:	5f                   	pop    %edi
 2e1:	6d                   	insl   (%dx),%es:(%edi)
 2e2:	61                   	popa   
 2e3:	70 00                	jo     2e5 <MULTIBOOT_HEADER_FLAGS+0x2e2>
 2e5:	c4 05 00 00 70 64    	les    0x64700000,%eax
 2eb:	65                   	gs
 2ec:	00 d6                	add    %dl,%dh
 2ee:	05 00 00 70 74       	add    $0x74700000,%eax
 2f3:	65                   	gs
 2f4:	00 e8                	add    %ch,%al
 2f6:	05 00 00 75 5f       	add    $0x5f750000,%eax
 2fb:	70 64                	jo     361 <MULTIBOOT_HEADER_FLAGS+0x35e>
 2fd:	65                   	gs
 2fe:	00 fa                	add    %bh,%dl
 300:	05 00 00 75 5f       	add    $0x5f750000,%eax
 305:	70 74                	jo     37b <MULTIBOOT_HEADER_FLAGS+0x378>
 307:	65 00 0c 06          	add    %cl,%gs:(%esi,%eax,1)
 30b:	00 00                	add    %al,(%eax)
 30d:	70 6f                	jo     37e <MULTIBOOT_HEADER_FLAGS+0x37b>
 30f:	73 5f                	jae    370 <MULTIBOOT_HEADER_FLAGS+0x36d>
 311:	70 61                	jo     374 <MULTIBOOT_HEADER_FLAGS+0x371>
 313:	67                   	addr16
 314:	65                   	gs
 315:	5f                   	pop    %edi
 316:	66 61                	popaw  
 318:	75 6c                	jne    386 <MULTIBOOT_HEADER_FLAGS+0x383>
 31a:	74 00                	je     31c <MULTIBOOT_HEADER_FLAGS+0x319>
 31c:	00 00                	add    %al,(%eax)
 31e:	00 00                	add    %al,(%eax)
 320:	81 00 00 00 02 00    	addl   $0x20000,(%eax)
 326:	7b 1c                	jnp    344 <MULTIBOOT_HEADER_FLAGS+0x341>
 328:	00 00                	add    %al,(%eax)
 32a:	c4 03                	les    (%ebx),%eax
 32c:	00 00                	add    %al,(%eax)
 32e:	4c                   	dec    %esp
 32f:	00 00                	add    %al,(%eax)
 331:	00 69 74             	add    %ch,0x74(%ecx)
 334:	6f                   	outsl  %ds:(%esi),(%dx)
 335:	61                   	popa   
 336:	00 bd 00 00 00 69    	add    %bh,0x69000000(%ebp)
 33c:	74 6f                	je     3ad <MULTIBOOT_HEADER_FLAGS+0x3aa>
 33e:	61                   	popa   
 33f:	68 00 27 01 00       	push   $0x12700
 344:	00 73 74             	add    %dh,0x74(%ebx)
 347:	72 63                	jb     3ac <MULTIBOOT_HEADER_FLAGS+0x3a9>
 349:	70 79                	jo     3c4 <MULTIBOOT_HEADER_FLAGS+0x3c1>
 34b:	00 6f 01             	add    %ch,0x1(%edi)
 34e:	00 00                	add    %al,(%eax)
 350:	73 74                	jae    3c6 <MULTIBOOT_HEADER_FLAGS+0x3c3>
 352:	72 63                	jb     3b7 <MULTIBOOT_HEADER_FLAGS+0x3b4>
 354:	6d                   	insl   (%dx),%es:(%edi)
 355:	70 00                	jo     357 <MULTIBOOT_HEADER_FLAGS+0x354>
 357:	cf                   	iret   
 358:	01 00                	add    %eax,(%eax)
 35a:	00 76 73             	add    %dh,0x73(%esi)
 35d:	70 72                	jo     3d1 <MULTIBOOT_HEADER_FLAGS+0x3ce>
 35f:	69 6e 74 66 00 3a 02 	imul   $0x23a0066,0x74(%esi),%ebp
 366:	00 00                	add    %al,(%eax)
 368:	73 70                	jae    3da <MULTIBOOT_HEADER_FLAGS+0x3d7>
 36a:	72 69                	jb     3d5 <MULTIBOOT_HEADER_FLAGS+0x3d2>
 36c:	6e                   	outsb  %ds:(%esi),(%dx)
 36d:	74 66                	je     3d5 <MULTIBOOT_HEADER_FLAGS+0x3d2>
 36f:	00 8b 02 00 00 70    	add    %cl,0x70000002(%ebx)
 375:	72 69                	jb     3e0 <MULTIBOOT_HEADER_FLAGS+0x3dd>
 377:	6e                   	outsb  %ds:(%esi),(%dx)
 378:	74 66                	je     3e0 <MULTIBOOT_HEADER_FLAGS+0x3dd>
 37a:	00 ec                	add    %ch,%ah
 37c:	02 00                	add    (%eax),%al
 37e:	00 77 61             	add    %dh,0x61(%edi)
 381:	69 74 5f 74 69 6d 65 	imul   $0x656d69,0x74(%edi,%ebx,2),%esi
 388:	00 
 389:	28 03                	sub    %al,(%ebx)
 38b:	00 00                	add    %al,(%eax)
 38d:	70 61                	jo     3f0 <MULTIBOOT_HEADER_FLAGS+0x3ed>
 38f:	6e                   	outsb  %ds:(%esi),(%dx)
 390:	69 63 00 a4 03 00 00 	imul   $0x3a4,0x0(%ebx),%esp
 397:	70 6f                	jo     408 <MULTIBOOT_HEADER_FLAGS+0x405>
 399:	73 5f                	jae    3fa <MULTIBOOT_HEADER_FLAGS+0x3f7>
 39b:	70 61                	jo     3fe <MULTIBOOT_HEADER_FLAGS+0x3fb>
 39d:	6e                   	outsb  %ds:(%esi),(%dx)
 39e:	69 63 00 00 00 00 00 	imul   $0x0,0x0(%ebx),%esp
 3a5:	53                   	push   %ebx
 3a6:	00 00                	add    %al,(%eax)
 3a8:	00 02                	add    %al,(%edx)
 3aa:	00 3f                	add    %bh,(%edi)
 3ac:	20 00                	and    %al,(%eax)
 3ae:	00 90 02 00 00 8c    	add    %dl,-0x73fffffe(%eax)
 3b4:	00 00                	add    %al,(%eax)
 3b6:	00 69 6e             	add    %ch,0x6e(%ecx)
 3b9:	69 74 5f 74 69 6d 65 	imul   $0x656d69,0x74(%edi,%ebx,2),%esi
 3c0:	00 
 3c1:	a9 01 00 00 6d       	test   $0x6d000001,%eax
 3c6:	6b 5f 74 69          	imul   $0x69,0x74(%edi),%ebx
 3ca:	6d                   	insl   (%dx),%es:(%edi)
 3cb:	65 00 47 02          	add    %al,%gs:0x2(%edi)
 3cf:	00 00                	add    %al,(%eax)
 3d1:	73 74                	jae    447 <MULTIBOOT_HEADER_FLAGS+0x444>
 3d3:	61                   	popa   
 3d4:	72 74                	jb     44a <MULTIBOOT_HEADER_FLAGS+0x447>
 3d6:	75 70                	jne    448 <MULTIBOOT_HEADER_FLAGS+0x445>
 3d8:	5f                   	pop    %edi
 3d9:	74 69                	je     444 <MULTIBOOT_HEADER_FLAGS+0x441>
 3db:	6d                   	insl   (%dx),%es:(%edi)
 3dc:	65 00 59 02          	add    %bl,%gs:0x2(%ecx)
 3e0:	00 00                	add    %al,(%eax)
 3e2:	6d                   	insl   (%dx),%es:(%edi)
 3e3:	6f                   	outsl  %ds:(%esi),(%dx)
 3e4:	6e                   	outsb  %ds:(%esi),(%dx)
 3e5:	73 00                	jae    3e7 <MULTIBOOT_HEADER_FLAGS+0x3e4>
 3e7:	6b 02 00             	imul   $0x0,(%edx),%eax
 3ea:	00 74 69 6d          	add    %dh,0x6d(%ecx,%ebp,2)
 3ee:	65 00 7d 02          	add    %bh,%gs:0x2(%ebp)
 3f2:	00 00                	add    %al,(%eax)
 3f4:	62 75 66             	bound  %esi,0x66(%ebp)
 3f7:	00 00                	add    %al,(%eax)
 3f9:	00 00                	add    %al,(%eax)
 3fb:	00 27                	add    %ah,(%edi)
 3fd:	00 00                	add    %al,(%eax)
 3ff:	00 02                	add    %al,(%edx)
 401:	00 cf                	add    %cl,%bh
 403:	22 00                	and    (%eax),%al
 405:	00 0b                	add    %cl,(%ebx)
 407:	04 00                	add    $0x0,%al
 409:	00 43 03             	add    %al,0x3(%ebx)
 40c:	00 00                	add    %al,(%eax)
 40e:	73 63                	jae    473 <MULTIBOOT_HEADER_FLAGS+0x470>
 410:	68 65 64 75 6c       	push   $0x6c756465
 415:	65                   	gs
 416:	00 f8                	add    %bh,%al
 418:	03 00                	add    (%eax),%eax
 41a:	00 70 72             	add    %dh,0x72(%eax)
 41d:	6f                   	outsl  %ds:(%esi),(%dx)
 41e:	63 65 73             	arpl   %sp,0x73(%ebp)
 421:	73 00                	jae    423 <MULTIBOOT_HEADER_FLAGS+0x420>
 423:	00 00                	add    %al,(%eax)
 425:	00 00                	add    %al,(%eax)
 427:	4e                   	dec    %esi
 428:	00 00                	add    %al,(%eax)
 42a:	00 02                	add    %al,(%edx)
 42c:	00 da                	add    %bl,%dl
 42e:	26 00 00             	add    %al,%es:(%eax)
 431:	cb                   	lret   
 432:	05 00 00 c6 03       	add    $0x3c60000,%eax
 437:	00 00                	add    %al,(%eax)
 439:	69 6e 69 74 5f 68 64 	imul   $0x64685f74,0x69(%esi),%ebp
 440:	00 af 04 00 00 68    	add    %ch,0x68000004(%edi)
 446:	64                   	fs
 447:	5f                   	pop    %edi
 448:	6f                   	outsl  %ds:(%esi),(%dx)
 449:	75 74                	jne    4bf <MULTIBOOT_HEADER_FLAGS+0x4bc>
 44b:	00 71 05             	add    %dh,0x5(%ecx)
 44e:	00 00                	add    %al,(%eax)
 450:	70 72                	jo     4c4 <MULTIBOOT_HEADER_FLAGS+0x4c1>
 452:	6f                   	outsl  %ds:(%esi),(%dx)
 453:	63 65 73             	arpl   %sp,0x73(%ebp)
 456:	73 00                	jae    458 <MULTIBOOT_HEADER_FLAGS+0x455>
 458:	93                   	xchg   %eax,%ebx
 459:	05 00 00 68 64       	add    $0x64680000,%eax
 45e:	5f                   	pop    %edi
 45f:	72 65                	jb     4c6 <MULTIBOOT_HEADER_FLAGS+0x4c3>
 461:	71 75                	jno    4d8 <MULTIBOOT_HEADER_FLAGS+0x4d5>
 463:	65                   	gs
 464:	73 74                	jae    4da <MULTIBOOT_HEADER_FLAGS+0x4d7>
 466:	00 a5 05 00 00 68    	add    %ah,0x68000005(%ebp)
 46c:	64                   	fs
 46d:	5f                   	pop    %edi
 46e:	72 71                	jb     4e1 <MULTIBOOT_HEADER_FLAGS+0x4de>
 470:	5f                   	pop    %edi
 471:	63 75 72             	arpl   %si,0x72(%ebp)
 474:	00 00                	add    %al,(%eax)
 476:	00 00                	add    %al,(%eax)
 478:	00 48 00             	add    %cl,0x0(%eax)
 47b:	00 00                	add    %al,(%eax)
 47d:	02 00                	add    (%eax),%al
 47f:	a5                   	movsl  %ds:(%esi),%es:(%edi)
 480:	2c 00                	sub    $0x0,%al
 482:	00 3a                	add    %bh,(%edx)
 484:	01 00                	add    %eax,(%eax)
 486:	00 94 00 00 00 64 6f 	add    %dl,0x6f640000(%eax,%eax,1)
 48d:	5f                   	pop    %edi
 48e:	69 6e 74 5f 6b 65 79 	imul   $0x79656b5f,0x74(%esi),%ebp
 495:	62 6f 61             	bound  %ebp,0x61(%edi)
 498:	72 64                	jb     4fe <MULTIBOOT_HEADER_FLAGS+0x4fb>
 49a:	00 fd                	add    %bh,%ch
 49c:	00 00                	add    %al,(%eax)
 49e:	00 73 63             	add    %dh,0x63(%ebx)
 4a1:	72 65                	jb     508 <MULTIBOOT_HEADER_FLAGS+0x505>
 4a3:	65 6e                	outsb  %gs:(%esi),(%dx)
 4a5:	00 15 01 00 00 70    	add    %dl,0x70000001
 4ab:	5f                   	pop    %edi
 4ac:	6f                   	outsl  %ds:(%esi),(%dx)
 4ad:	75 74                	jne    523 <MULTIBOOT_HEADER_FLAGS+0x520>
 4af:	00 27                	add    %ah,(%edi)
 4b1:	01 00                	add    %eax,(%eax)
 4b3:	00 6b 65             	add    %ch,0x65(%ebx)
 4b6:	79 62                	jns    51a <MULTIBOOT_HEADER_FLAGS+0x517>
 4b8:	6f                   	outsl  %ds:(%esi),(%dx)
 4b9:	61                   	popa   
 4ba:	72 64                	jb     520 <MULTIBOOT_HEADER_FLAGS+0x51d>
 4bc:	5f                   	pop    %edi
 4bd:	62 75 66             	bound  %esi,0x66(%ebp)
 4c0:	00 00                	add    %al,(%eax)
 4c2:	00 00                	add    %al,(%eax)
 4c4:	00 83 00 00 00 02    	add    %al,0x2000000(%ebx)
 4ca:	00 df                	add    %bl,%bh
 4cc:	2d 00 00 c5 05       	sub    $0x5c50000,%eax
 4d1:	00 00                	add    %al,(%eax)
 4d3:	ab                   	stos   %eax,%es:(%edi)
 4d4:	03 00                	add    (%eax),%eax
 4d6:	00 74 61 73          	add    %dh,0x73(%ecx,%eiz,2)
 4da:	6b 5f 73 68          	imul   $0x68,0x73(%edi),%ebx
 4de:	65                   	gs
 4df:	6c                   	insb   (%dx),%es:(%edi)
 4e0:	6c                   	insb   (%dx),%es:(%edi)
 4e1:	00 1f                	add    %bl,(%edi)
 4e3:	04 00                	add    $0x0,%al
 4e5:	00 69 6e             	add    %ch,0x6e(%ecx)
 4e8:	69 74 5f 73 68 65 6c 	imul   $0x6c6c6568,0x73(%edi,%ebx,2),%esi
 4ef:	6c 
 4f0:	00 44 04 00          	add    %al,0x0(%esp,%eax,1)
 4f4:	00 6d 6f             	add    %ch,0x6f(%ebp)
 4f7:	76 65                	jbe    55e <MULTIBOOT_HEADER_FLAGS+0x55b>
 4f9:	5f                   	pop    %edi
 4fa:	74 6f                	je     56b <MULTIBOOT_HEADER_FLAGS+0x568>
 4fc:	5f                   	pop    %edi
 4fd:	74 6f                	je     56e <MULTIBOOT_HEADER_FLAGS+0x56b>
 4ff:	70 00                	jo     501 <MULTIBOOT_HEADER_FLAGS+0x4fe>
 501:	3e                   	ds
 502:	05 00 00 6b 65       	add    $0x656b0000,%eax
 507:	79 6d                	jns    576 <MULTIBOOT_HEADER_FLAGS+0x573>
 509:	61                   	popa   
 50a:	70 00                	jo     50c <MULTIBOOT_HEADER_FLAGS+0x509>
 50c:	5d                   	pop    %ebp
 50d:	05 00 00 70 72       	add    $0x72700000,%eax
 512:	6f                   	outsl  %ds:(%esi),(%dx)
 513:	63 65 73             	arpl   %sp,0x73(%ebp)
 516:	73 00                	jae    518 <MULTIBOOT_HEADER_FLAGS+0x515>
 518:	6f                   	outsl  %ds:(%esi),(%dx)
 519:	05 00 00 68 69       	add    $0x69680000,%eax
 51e:	6e                   	outsb  %ds:(%esi),(%dx)
 51f:	74 00                	je     521 <MULTIBOOT_HEADER_FLAGS+0x51e>
 521:	81 05 00 00 6f 75 74 	addl   $0x74757074,0x756f0000
 528:	70 75 74 
 52b:	5f                   	pop    %edi
 52c:	70 6f                	jo     59d <MULTIBOOT_HEADER_FLAGS+0x59a>
 52e:	73 00                	jae    530 <MULTIBOOT_HEADER_FLAGS+0x52d>
 530:	93                   	xchg   %eax,%ebx
 531:	05 00 00 6b 65       	add    $0x656b0000,%eax
 536:	79 5f                	jns    597 <MULTIBOOT_HEADER_FLAGS+0x594>
 538:	66                   	data16
 539:	6c                   	insb   (%dx),%es:(%edi)
 53a:	61                   	popa   
 53b:	67 73 00             	addr16 jae 53e <MULTIBOOT_HEADER_FLAGS+0x53b>
 53e:	a5                   	movsl  %ds:(%esi),%es:(%edi)
 53f:	05 00 00 63 6f       	add    $0x6f630000,%eax
 544:	6c                   	insb   (%dx),%es:(%edi)
 545:	6f                   	outsl  %ds:(%esi),(%dx)
 546:	72 00                	jb     548 <MULTIBOOT_HEADER_FLAGS+0x545>
 548:	00 00                	add    %al,(%eax)
	...

Disassembly of section .debug_info:

00000000 <.debug_info>:
       0:	0e                   	push   %cs
       1:	0d 00 00 02 00       	or     $0x20000,%eax
       6:	00 00                	add    %al,(%eax)
       8:	00 00                	add    %al,(%eax)
       a:	04 01                	add    $0x1,%al
       c:	45                   	inc    %ebp
       d:	02 00                	add    (%eax),%al
       f:	00 01                	add    %al,(%ecx)
      11:	10 00                	adc    %al,(%eax)
      13:	00 00                	add    %al,(%eax)
      15:	f9                   	stc    
      16:	01 00                	add    %eax,(%eax)
      18:	00 fc                	add    %bh,%ah
      1a:	3a 10                	cmp    (%eax),%dl
      1c:	00 de                	add    %bl,%dh
      1e:	42                   	inc    %edx
      1f:	10 00                	adc    %al,(%eax)
      21:	00 00                	add    %al,(%eax)
      23:	00 00                	add    %al,(%eax)
      25:	02 da                	add    %dl,%bl
      27:	02 00                	add    (%eax),%al
      29:	00 08                	add    %cl,(%eax)
      2b:	02 5c d2 00          	add    0x0(%edx,%edx,8),%bl
      2f:	00 00                	add    %al,(%eax)
      31:	03 b2 00 00 00 02    	add    0x2000000(%edx),%esi
      37:	5d                   	pop    %ebp
      38:	d2 00                	rolb   %cl,(%eax)
      3a:	00 00                	add    %al,(%eax)
      3c:	02 23                	add    (%ebx),%ah
      3e:	00 03                	add    %al,(%ebx)
      40:	a5                   	movsl  %ds:(%esi),%es:(%edi)
      41:	01 00                	add    %eax,(%eax)
      43:	00 02                	add    %al,(%edx)
      45:	5e                   	pop    %esi
      46:	d2 00                	rolb   %cl,(%eax)
      48:	00 00                	add    %al,(%eax)
      4a:	02 23                	add    (%ebx),%ah
      4c:	02 04 ac             	add    (%esp,%ebp,4),%al
      4f:	01 00                	add    %eax,(%eax)
      51:	00 02                	add    %al,(%edx)
      53:	5f                   	pop    %edi
      54:	d2 00                	rolb   %cl,(%eax)
      56:	00 00                	add    %al,(%eax)
      58:	02 08                	add    (%eax),%cl
      5a:	08 02                	or     %al,(%edx)
      5c:	23 04 04             	and    (%esp,%eax,1),%eax
      5f:	83 01 00             	addl   $0x0,(%ecx)
      62:	00 02                	add    %al,(%edx)
      64:	60                   	pusha  
      65:	d2 00                	rolb   %cl,(%eax)
      67:	00 00                	add    %al,(%eax)
      69:	02 04 04             	add    (%esp,%eax,1),%al
      6c:	02 23                	add    (%ebx),%ah
      6e:	04 05                	add    $0x5,%al
      70:	73 00                	jae    72 <MULTIBOOT_HEADER_FLAGS+0x6f>
      72:	02 61 d2             	add    -0x2e(%ecx),%ah
      75:	00 00                	add    %al,(%eax)
      77:	00 02                	add    %al,(%edx)
      79:	01 03                	add    %eax,(%ebx)
      7b:	02 23                	add    (%ebx),%ah
      7d:	04 05                	add    $0x5,%al
      7f:	64                   	fs
      80:	70 6c                	jo     ee <MULTIBOOT_HEADER_FLAGS+0xeb>
      82:	00 02                	add    %al,(%edx)
      84:	62                   	(bad)  
      85:	d2 00                	rolb   %cl,(%eax)
      87:	00 00                	add    %al,(%eax)
      89:	02 02                	add    (%edx),%al
      8b:	01 02                	add    %eax,(%edx)
      8d:	23 04 05 70 00 02 63 	and    0x63020070(,%eax,1),%eax
      94:	d2 00                	rolb   %cl,(%eax)
      96:	00 00                	add    %al,(%eax)
      98:	02 01                	add    (%ecx),%al
      9a:	00 02                	add    %al,(%edx)
      9c:	23 04 04             	and    (%esp,%eax,1),%eax
      9f:	aa                   	stos   %al,%es:(%edi)
      a0:	00 00                	add    %al,(%eax)
      a2:	00 02                	add    %al,(%edx)
      a4:	64 d2 00             	rolb   %cl,%fs:(%eax)
      a7:	00 00                	add    %al,(%eax)
      a9:	02 04 0c             	add    (%esp,%ecx,1),%al
      ac:	02 23                	add    (%ebx),%ah
      ae:	06                   	push   %es
      af:	04 c6                	add    $0xc6,%al
      b1:	02 00                	add    (%eax),%al
      b3:	00 02                	add    %al,(%edx)
      b5:	65 d2 00             	rolb   %cl,%gs:(%eax)
      b8:	00 00                	add    %al,(%eax)
      ba:	02 04 08             	add    (%eax,%ecx,1),%al
      bd:	02 23                	add    (%ebx),%ah
      bf:	06                   	push   %es
      c0:	04 91                	add    $0x91,%al
      c2:	01 00                	add    %eax,(%eax)
      c4:	00 02                	add    %al,(%edx)
      c6:	66                   	data16
      c7:	d2 00                	rolb   %cl,(%eax)
      c9:	00 00                	add    %al,(%eax)
      cb:	02 08                	add    (%eax),%cl
      cd:	00 02                	add    %al,(%edx)
      cf:	23 06                	and    (%esi),%eax
      d1:	00 06                	add    %al,(%esi)
      d3:	02 07                	add    (%edi),%al
      d5:	be 01 00 00 07       	mov    $0x7000001,%esi
      da:	74 73                	je     14f <MULTIBOOT_HEADER_FLAGS+0x14c>
      dc:	73 00                	jae    de <MULTIBOOT_HEADER_FLAGS+0xdb>
      de:	68 02 99 4c 02       	push   $0x24c9902
      e3:	00 00                	add    %al,(%eax)
      e5:	03 2f                	add    (%edi),%ebp
      e7:	00 00                	add    %al,(%eax)
      e9:	00 02                	add    %al,(%edx)
      eb:	9a 4c 02 00 00 02 23 	lcall  $0x2302,$0x24c
      f2:	00 03                	add    %al,(%ebx)
      f4:	d9 01                	flds   (%ecx)
      f6:	00 00                	add    %al,(%eax)
      f8:	02 9b 4c 02 00 00    	add    0x24c(%ebx),%bl
      fe:	02 23                	add    (%ebx),%ah
     100:	04 08                	add    $0x8,%al
     102:	73 73                	jae    177 <MULTIBOOT_HEADER_FLAGS+0x174>
     104:	30 00                	xor    %al,(%eax)
     106:	02 9b 4c 02 00 00    	add    0x24c(%ebx),%bl
     10c:	02 23                	add    (%ebx),%ah
     10e:	08 03                	or     %al,(%ebx)
     110:	de 01                	fiadd  (%ecx)
     112:	00 00                	add    %al,(%eax)
     114:	02 9b 4c 02 00 00    	add    0x24c(%ebx),%bl
     11a:	02 23                	add    (%ebx),%ah
     11c:	0c 08                	or     $0x8,%al
     11e:	73 73                	jae    193 <MULTIBOOT_HEADER_FLAGS+0x190>
     120:	31 00                	xor    %eax,(%eax)
     122:	02 9b 4c 02 00 00    	add    0x24c(%ebx),%bl
     128:	02 23                	add    (%ebx),%ah
     12a:	10 03                	adc    %al,(%ebx)
     12c:	e3 01                	jecxz  12f <MULTIBOOT_HEADER_FLAGS+0x12c>
     12e:	00 00                	add    %al,(%eax)
     130:	02 9b 4c 02 00 00    	add    0x24c(%ebx),%bl
     136:	02 23                	add    (%ebx),%ah
     138:	14 08                	adc    $0x8,%al
     13a:	73 73                	jae    1af <MULTIBOOT_HEADER_FLAGS+0x1ac>
     13c:	32 00                	xor    (%eax),%al
     13e:	02 9b 4c 02 00 00    	add    0x24c(%ebx),%bl
     144:	02 23                	add    (%ebx),%ah
     146:	18 08                	sbb    %cl,(%eax)
     148:	63 72 33             	arpl   %si,0x33(%edx)
     14b:	00 02                	add    %al,(%edx)
     14d:	9c                   	pushf  
     14e:	4c                   	dec    %esp
     14f:	02 00                	add    (%eax),%al
     151:	00 02                	add    %al,(%edx)
     153:	23 1c 08             	and    (%eax,%ecx,1),%ebx
     156:	65 69 70 00 02 9c 4c 	imul   $0x24c9c02,%gs:0x0(%eax),%esi
     15d:	02 
     15e:	00 00                	add    %al,(%eax)
     160:	02 23                	add    (%ebx),%ah
     162:	20 03                	and    %al,(%ebx)
     164:	53                   	push   %ebx
     165:	00 00                	add    %al,(%eax)
     167:	00 02                	add    %al,(%edx)
     169:	9c                   	pushf  
     16a:	4c                   	dec    %esp
     16b:	02 00                	add    (%eax),%al
     16d:	00 02                	add    %al,(%edx)
     16f:	23 24 08             	and    (%eax,%ecx,1),%esp
     172:	65                   	gs
     173:	61                   	popa   
     174:	78 00                	js     176 <MULTIBOOT_HEADER_FLAGS+0x173>
     176:	02 9c 4c 02 00 00 02 	add    0x2000002(%esp,%ecx,2),%bl
     17d:	23 28                	and    (%eax),%ebp
     17f:	08 65 63             	or     %ah,0x63(%ebp)
     182:	78 00                	js     184 <MULTIBOOT_HEADER_FLAGS+0x181>
     184:	02 9c 4c 02 00 00 02 	add    0x2000002(%esp,%ecx,2),%bl
     18b:	23 2c 08             	and    (%eax,%ecx,1),%ebp
     18e:	65                   	gs
     18f:	64                   	fs
     190:	78 00                	js     192 <MULTIBOOT_HEADER_FLAGS+0x18f>
     192:	02 9c 4c 02 00 00 02 	add    0x2000002(%esp,%ecx,2),%bl
     199:	23 30                	and    (%eax),%esi
     19b:	08 65 62             	or     %ah,0x62(%ebp)
     19e:	78 00                	js     1a0 <MULTIBOOT_HEADER_FLAGS+0x19d>
     1a0:	02 9c 4c 02 00 00 02 	add    0x2000002(%esp,%ecx,2),%bl
     1a7:	23 34 08             	and    (%eax,%ecx,1),%esi
     1aa:	65                   	gs
     1ab:	73 70                	jae    21d <MULTIBOOT_HEADER_FLAGS+0x21a>
     1ad:	00 02                	add    %al,(%edx)
     1af:	9c                   	pushf  
     1b0:	4c                   	dec    %esp
     1b1:	02 00                	add    (%eax),%al
     1b3:	00 02                	add    %al,(%edx)
     1b5:	23 38                	and    (%eax),%edi
     1b7:	08 65 62             	or     %ah,0x62(%ebp)
     1ba:	70 00                	jo     1bc <MULTIBOOT_HEADER_FLAGS+0x1b9>
     1bc:	02 9c 4c 02 00 00 02 	add    0x2000002(%esp,%ecx,2),%bl
     1c3:	23 3c 08             	and    (%eax,%ecx,1),%edi
     1c6:	65                   	gs
     1c7:	73 69                	jae    232 <MULTIBOOT_HEADER_FLAGS+0x22f>
     1c9:	00 02                	add    %al,(%edx)
     1cb:	9c                   	pushf  
     1cc:	4c                   	dec    %esp
     1cd:	02 00                	add    (%eax),%al
     1cf:	00 02                	add    %al,(%edx)
     1d1:	23 40 08             	and    0x8(%eax),%eax
     1d4:	65 64 69 00 02 9c 4c 	gs imul $0x24c9c02,%fs:%gs:(%eax),%eax
     1db:	02 
     1dc:	00 00                	add    %al,(%eax)
     1de:	02 23                	add    (%ebx),%ah
     1e0:	44                   	inc    %esp
     1e1:	08 65 73             	or     %ah,0x73(%ebp)
     1e4:	00 02                	add    %al,(%edx)
     1e6:	9d                   	popf   
     1e7:	4c                   	dec    %esp
     1e8:	02 00                	add    (%eax),%al
     1ea:	00 02                	add    %al,(%edx)
     1ec:	23 48 08             	and    0x8(%eax),%ecx
     1ef:	63 73 00             	arpl   %si,0x0(%ebx)
     1f2:	02 9d 4c 02 00 00    	add    0x24c(%ebp),%bl
     1f8:	02 23                	add    (%ebx),%ah
     1fa:	4c                   	dec    %esp
     1fb:	08 73 73             	or     %dh,0x73(%ebx)
     1fe:	00 02                	add    %al,(%edx)
     200:	9d                   	popf   
     201:	4c                   	dec    %esp
     202:	02 00                	add    (%eax),%al
     204:	00 02                	add    %al,(%edx)
     206:	23 50 08             	and    0x8(%eax),%edx
     209:	64                   	fs
     20a:	73 00                	jae    20c <MULTIBOOT_HEADER_FLAGS+0x209>
     20c:	02 9d 4c 02 00 00    	add    0x24c(%ebp),%bl
     212:	02 23                	add    (%ebx),%ah
     214:	54                   	push   %esp
     215:	08 66 73             	or     %ah,0x73(%esi)
     218:	00 02                	add    %al,(%edx)
     21a:	9d                   	popf   
     21b:	4c                   	dec    %esp
     21c:	02 00                	add    (%eax),%al
     21e:	00 02                	add    %al,(%edx)
     220:	23 58 08             	and    0x8(%eax),%ebx
     223:	67 73 00             	addr16 jae 226 <MULTIBOOT_HEADER_FLAGS+0x223>
     226:	02 9d 4c 02 00 00    	add    0x24c(%ebp),%bl
     22c:	02 23                	add    (%ebx),%ah
     22e:	5c                   	pop    %esp
     22f:	08 6c 64 74          	or     %ch,0x74(%esp,%eiz,2)
     233:	00 02                	add    %al,(%edx)
     235:	9d                   	popf   
     236:	4c                   	dec    %esp
     237:	02 00                	add    (%eax),%al
     239:	00 02                	add    %al,(%edx)
     23b:	23 60 03             	and    0x3(%eax),%esp
     23e:	51                   	push   %ecx
     23f:	02 00                	add    (%eax),%al
     241:	00 02                	add    %al,(%edx)
     243:	9d                   	popf   
     244:	4c                   	dec    %esp
     245:	02 00                	add    (%eax),%al
     247:	00 02                	add    %al,(%edx)
     249:	23 64 00 06          	and    0x6(%eax,%eax,1),%esp
     24d:	04 07                	add    $0x7,%al
     24f:	19 01                	sbb    %eax,(%ecx)
     251:	00 00                	add    %al,(%eax)
     253:	02 66 01             	add    0x1(%esi),%ah
     256:	00 00                	add    %al,(%eax)
     258:	08 02                	or     %al,(%edx)
     25a:	9f                   	lahf   
     25b:	ec                   	in     (%dx),%al
     25c:	02 00                	add    (%eax),%al
     25e:	00 03                	add    %al,(%ebx)
     260:	62 02                	bound  %eax,(%edx)
     262:	00 00                	add    %al,(%eax)
     264:	02 a0 d2 00 00 00    	add    0xd2(%eax),%ah
     26a:	02 23                	add    (%ebx),%ah
     26c:	00 03                	add    %al,(%ebx)
     26e:	64 00 00             	add    %al,%fs:(%eax)
     271:	00 02                	add    %al,(%edx)
     273:	a1 d2 00 00 00       	mov    0xd2,%eax
     278:	02 23                	add    (%ebx),%ah
     27a:	02 04 26             	add    (%esi,%eiz,1),%al
     27d:	01 00                	add    %eax,(%eax)
     27f:	00 02                	add    %al,(%edx)
     281:	a2 d2 00 00 00       	mov    %al,0xd2
     286:	02 05 0b 02 23 04    	add    0x423020b,%al
     28c:	05 72 65 73 00       	add    $0x736572,%eax
     291:	02 a3 d2 00 00 00    	add    0xd2(%ebx),%ah
     297:	02 03                	add    (%ebx),%al
     299:	08 02                	or     %al,(%edx)
     29b:	23 04 04             	and    (%esp,%eax,1),%eax
     29e:	83 01 00             	addl   $0x0,(%ecx)
     2a1:	00 02                	add    %al,(%edx)
     2a3:	a4                   	movsb  %ds:(%esi),%es:(%edi)
     2a4:	d2 00                	rolb   %cl,(%eax)
     2a6:	00 00                	add    %al,(%eax)
     2a8:	02 04 04             	add    (%esp,%eax,1),%al
     2ab:	02 23                	add    (%ebx),%ah
     2ad:	04 05                	add    $0x5,%al
     2af:	73 00                	jae    2b1 <MULTIBOOT_HEADER_FLAGS+0x2ae>
     2b1:	02 a5 d2 00 00 00    	add    0xd2(%ebp),%ah
     2b7:	02 01                	add    (%ecx),%al
     2b9:	03 02                	add    (%edx),%eax
     2bb:	23 04 05 64 70 6c 00 	and    0x6c7064(,%eax,1),%eax
     2c2:	02 a6 d2 00 00 00    	add    0xd2(%esi),%ah
     2c8:	02 02                	add    (%edx),%al
     2ca:	01 02                	add    %eax,(%edx)
     2cc:	23 04 05 70 00 02 a7 	and    -0x58fdff90(,%eax,1),%eax
     2d3:	d2 00                	rolb   %cl,(%eax)
     2d5:	00 00                	add    %al,(%eax)
     2d7:	02 01                	add    (%ecx),%al
     2d9:	00 02                	add    %al,(%edx)
     2db:	23 04 03             	and    (%ebx,%eax,1),%eax
     2de:	59                   	pop    %ecx
     2df:	02 00                	add    (%eax),%al
     2e1:	00 02                	add    %al,(%edx)
     2e3:	a8 d2                	test   $0xd2,%al
     2e5:	00 00                	add    %al,(%eax)
     2e7:	00 02                	add    %al,(%edx)
     2e9:	23 06                	and    (%esi),%eax
     2eb:	00 09                	add    %cl,(%ecx)
     2ed:	81 00 00 00 b0 08    	addl   $0x8b00000,(%eax)
     2f3:	02 b8 b4 03 00 00    	add    0x3b4(%eax),%bh
     2f9:	08 70 69             	or     %dh,0x69(%eax)
     2fc:	64 00 02             	add    %al,%fs:(%edx)
     2ff:	b9 4c 02 00 00       	mov    $0x24c,%ecx
     304:	02 23                	add    (%ebx),%ah
     306:	00 03                	add    %al,(%ebx)
     308:	54                   	push   %esp
     309:	01 00                	add    %eax,(%eax)
     30b:	00 02                	add    %al,(%edx)
     30d:	ba 4c 02 00 00       	mov    $0x24c,%edx
     312:	02 23                	add    (%ebx),%ah
     314:	04 03                	add    $0x3,%al
     316:	36 00 00             	add    %al,%ss:(%eax)
     319:	00 02                	add    %al,(%edx)
     31b:	bb 4c 02 00 00       	mov    $0x24c,%ebx
     320:	02 23                	add    (%ebx),%ah
     322:	08 03                	or     %al,(%ebx)
     324:	b3 01                	mov    $0x1,%bl
     326:	00 00                	add    %al,(%eax)
     328:	02 bc 4c 02 00 00 02 	add    0x2000002(%esp,%ecx,2),%bh
     32f:	23 0c 03             	and    (%ebx,%eax,1),%ecx
     332:	ba 00 00 00 02       	mov    $0x2000000,%edx
     337:	bd 4c 02 00 00       	mov    $0x24c,%ebp
     33c:	02 23                	add    (%ebx),%ah
     33e:	10 03                	adc    %al,(%ebx)
     340:	26 00 00             	add    %al,%es:(%eax)
     343:	00 02                	add    %al,(%edx)
     345:	be 4c 02 00 00       	mov    $0x24c,%esi
     34a:	02 23                	add    (%ebx),%ah
     34c:	14 03                	adc    $0x3,%al
     34e:	e8 01 00 00 02       	call   2000354 <_end+0x1eae828>
     353:	bf 4c 02 00 00       	mov    $0x24c,%edi
     358:	02 23                	add    (%ebx),%ah
     35a:	18 03                	sbb    %al,(%ebx)
     35c:	60                   	pusha  
     35d:	00 00                	add    %al,(%eax)
     35f:	00 02                	add    %al,(%edx)
     361:	c0 d2 00             	rcl    $0x0,%dl
     364:	00 00                	add    %al,(%eax)
     366:	02 23                	add    (%ebx),%ah
     368:	1c 08                	sbb    $0x8,%al
     36a:	74 73                	je     3df <MULTIBOOT_HEADER_FLAGS+0x3dc>
     36c:	73 00                	jae    36e <MULTIBOOT_HEADER_FLAGS+0x36b>
     36e:	02 c1                	add    %cl,%al
     370:	d9 00                	flds   (%eax)
     372:	00 00                	add    %al,(%eax)
     374:	02 23                	add    (%ebx),%ah
     376:	20 03                	and    %al,(%ebx)
     378:	b9 02 00 00 02       	mov    $0x2000002,%ecx
     37d:	c2 d2 00             	ret    $0xd2
     380:	00 00                	add    %al,(%eax)
     382:	03 23                	add    (%ebx),%esp
     384:	88 01                	mov    %al,(%ecx)
     386:	08 6c 64 74          	or     %ch,0x74(%esp,%eiz,2)
     38a:	00 02                	add    %al,(%edx)
     38c:	c3                   	ret    
     38d:	b4 03                	mov    $0x3,%ah
     38f:	00 00                	add    %al,(%eax)
     391:	03 23                	add    (%ebx),%esp
     393:	90                   	nop
     394:	01 03                	add    %eax,(%ebx)
     396:	46                   	inc    %esi
     397:	00 00                	add    %al,(%eax)
     399:	00 02                	add    %al,(%edx)
     39b:	c4                   	(bad)  
     39c:	c4 03                	les    (%ebx),%eax
     39e:	00 00                	add    %al,(%eax)
     3a0:	03 23                	add    (%ebx),%esp
     3a2:	b0 01                	mov    $0x1,%al
     3a4:	03 3a                	add    (%edx),%edi
     3a6:	02 00                	add    (%eax),%al
     3a8:	00 02                	add    %al,(%edx)
     3aa:	c5 c4 03             	(bad)  
     3ad:	00 00                	add    %al,(%eax)
     3af:	03 23                	add    (%ebx),%esp
     3b1:	b0 09                	mov    $0x9,%al
     3b3:	00 0a                	add    %cl,(%edx)
     3b5:	25 00 00 00 c4       	and    $0xc4000000,%eax
     3ba:	03 00                	add    (%eax),%eax
     3bc:	00 0b                	add    %cl,(%ebx)
     3be:	4c                   	dec    %esp
     3bf:	02 00                	add    (%eax),%al
     3c1:	00 03                	add    %al,(%ebx)
     3c3:	00 0a                	add    %cl,(%edx)
     3c5:	d5 03                	aad    $0x3
     3c7:	00 00                	add    %al,(%eax)
     3c9:	d5 03                	aad    $0x3
     3cb:	00 00                	add    %al,(%eax)
     3cd:	0c 4c                	or     $0x4c,%al
     3cf:	02 00                	add    (%eax),%al
     3d1:	00 ff                	add    %bh,%bh
     3d3:	03 00                	add    (%eax),%eax
     3d5:	06                   	push   %es
     3d6:	01 08                	add    %ecx,(%eax)
     3d8:	46                   	inc    %esi
     3d9:	01 00                	add    %eax,(%eax)
     3db:	00 07                	add    %al,(%edi)
     3dd:	74 6d                	je     44c <MULTIBOOT_HEADER_FLAGS+0x449>
     3df:	00 18                	add    %bl,(%eax)
     3e1:	03 15 3c 04 00 00    	add    0x43c,%edx
     3e7:	03 9c 02 00 00 03 16 	add    0x16030000(%edx,%eax,1),%ebx
     3ee:	3c 04                	cmp    $0x4,%al
     3f0:	00 00                	add    %al,(%eax)
     3f2:	02 23                	add    (%ebx),%ah
     3f4:	00 03                	add    %al,(%ebx)
     3f6:	33 02                	xor    (%edx),%eax
     3f8:	00 00                	add    %al,(%eax)
     3fa:	03 16                	add    (%esi),%edx
     3fc:	3c 04                	cmp    $0x4,%al
     3fe:	00 00                	add    %al,(%eax)
     400:	02 23                	add    (%ebx),%ah
     402:	04 03                	add    $0x3,%al
     404:	00 01                	add    %al,(%ecx)
     406:	00 00                	add    %al,(%eax)
     408:	03 16                	add    (%esi),%edx
     40a:	3c 04                	cmp    $0x4,%al
     40c:	00 00                	add    %al,(%eax)
     40e:	02 23                	add    (%ebx),%ah
     410:	08 03                	or     %al,(%ebx)
     412:	72 01                	jb     415 <MULTIBOOT_HEADER_FLAGS+0x412>
     414:	00 00                	add    %al,(%eax)
     416:	03 16                	add    (%esi),%edx
     418:	3c 04                	cmp    $0x4,%al
     41a:	00 00                	add    %al,(%eax)
     41c:	02 23                	add    (%ebx),%ah
     41e:	0c 03                	or     $0x3,%al
     420:	08 01                	or     %al,(%ecx)
     422:	00 00                	add    %al,(%eax)
     424:	03 16                	add    (%esi),%edx
     426:	3c 04                	cmp    $0x4,%al
     428:	00 00                	add    %al,(%eax)
     42a:	02 23                	add    (%ebx),%ah
     42c:	10 03                	adc    %al,(%ebx)
     42e:	d1 01                	roll   (%ecx)
     430:	00 00                	add    %al,(%eax)
     432:	03 16                	add    (%esi),%edx
     434:	3c 04                	cmp    $0x4,%al
     436:	00 00                	add    %al,(%eax)
     438:	02 23                	add    (%ebx),%ah
     43a:	14 00                	adc    $0x0,%al
     43c:	0d 04 05 69 6e       	or     $0x6e690504,%eax
     441:	74 00                	je     443 <MULTIBOOT_HEADER_FLAGS+0x440>
     443:	0e                   	push   %cs
     444:	01 6b 01             	add    %ebp,0x1(%ebx)
     447:	00 00                	add    %al,(%eax)
     449:	01 10                	add    %edx,(%eax)
     44b:	fc                   	cld    
     44c:	3a 10                	cmp    (%eax),%dl
     44e:	00 01                	add    %al,(%ecx)
     450:	3b 10                	cmp    (%eax),%edx
     452:	00 00                	add    %al,(%eax)
     454:	00 00                	add    %al,(%eax)
     456:	00 0e                	add    %cl,(%esi)
     458:	01 6b 02             	add    %ebp,0x2(%ebx)
     45b:	00 00                	add    %al,(%eax)
     45d:	01 2a                	add    %ebp,(%edx)
     45f:	01 3b                	add    %edi,(%ebx)
     461:	10 00                	adc    %al,(%eax)
     463:	06                   	push   %es
     464:	3b 10                	cmp    (%eax),%edx
     466:	00 38                	add    %bh,(%eax)
     468:	00 00                	add    %al,(%eax)
     46a:	00 0f                	add    %cl,(%edi)
     46c:	01 7a 01             	add    %edi,0x1(%edx)
     46f:	00 00                	add    %al,(%eax)
     471:	01 50 06             	add    %edx,0x6(%eax)
     474:	3b 10                	cmp    (%eax),%edx
     476:	00 24 3c             	add    %ah,(%esp,%edi,1)
     479:	10 00                	adc    %al,(%eax)
     47b:	70 00                	jo     47d <MULTIBOOT_HEADER_FLAGS+0x47a>
     47d:	00 00                	add    %al,(%eax)
     47f:	c0 04 00 00          	rolb   $0x0,(%eax,%eax,1)
     483:	10 69 00             	adc    %ch,0x0(%ecx)
     486:	01 57 3c             	add    %edx,0x3c(%edi)
     489:	04 00                	add    $0x0,%al
     48b:	00 02                	add    %al,(%edx)
     48d:	91                   	xchg   %eax,%ecx
     48e:	6c                   	insb   (%dx),%es:(%edi)
     48f:	11 a6 3b 10 00 c1    	adc    %esp,-0x3effefc5(%esi)
     495:	3b 10                	cmp    (%eax),%edx
     497:	00 a9 04 00 00 10    	add    %ch,0x10000004(%ecx)
     49d:	70 00                	jo     49f <MULTIBOOT_HEADER_FLAGS+0x49c>
     49f:	01 5d c0             	add    %ebx,-0x40(%ebp)
     4a2:	04 00                	add    $0x0,%al
     4a4:	00 02                	add    %al,(%edx)
     4a6:	91                   	xchg   %eax,%ecx
     4a7:	68 00 12 c1 3b       	push   $0x3bc11200
     4ac:	10 00                	adc    %al,(%eax)
     4ae:	de 3b                	fidivr (%ebx)
     4b0:	10 00                	adc    %al,(%eax)
     4b2:	10 70 00             	adc    %dh,0x0(%eax)
     4b5:	01 5e c0             	add    %ebx,-0x40(%esi)
     4b8:	04 00                	add    $0x0,%al
     4ba:	00 02                	add    %al,(%edx)
     4bc:	91                   	xchg   %eax,%ecx
     4bd:	64 00 00             	add    %al,%fs:(%eax)
     4c0:	13 04 d5 03 00 00 14 	adc    0x14000003(,%edx,8),%eax
     4c7:	01 13                	add    %edx,(%ebx)
     4c9:	02 00                	add    (%eax),%al
     4cb:	00 01                	add    %al,(%ecx)
     4cd:	68 01 24 3c 10       	push   $0x103c2401
     4d2:	00 79 3c             	add    %bh,0x3c(%ecx)
     4d5:	10 00                	adc    %al,(%eax)
     4d7:	a8 00                	test   $0x0,%al
     4d9:	00 00                	add    %al,(%eax)
     4db:	21 05 00 00 15 e6    	and    %eax,0xe6150000
     4e1:	00 00                	add    %al,(%eax)
     4e3:	00 01                	add    %al,(%ecx)
     4e5:	68 4c 02 00 00       	push   $0x24c
     4ea:	02 91 00 12 2a 3c    	add    0x3c2a1200(%ecx),%dl
     4f0:	10 00                	adc    %al,(%eax)
     4f2:	6a 3c                	push   $0x3c
     4f4:	10 00                	adc    %al,(%eax)
     4f6:	16                   	push   %ss
     4f7:	af                   	scas   %es:(%edi),%eax
     4f8:	04 00                	add    $0x0,%al
     4fa:	00 01                	add    %al,(%ecx)
     4fc:	6a 21                	push   $0x21
     4fe:	05 00 00 02 91       	add    $0x91020000,%eax
     503:	74 10                	je     515 <MULTIBOOT_HEADER_FLAGS+0x512>
     505:	70 6f                	jo     576 <MULTIBOOT_HEADER_FLAGS+0x573>
     507:	73 00                	jae    509 <MULTIBOOT_HEADER_FLAGS+0x506>
     509:	01 6a 3c             	add    %ebp,0x3c(%edx)
     50c:	04 00                	add    $0x0,%al
     50e:	00 02                	add    %al,(%edx)
     510:	91                   	xchg   %eax,%ecx
     511:	70 10                	jo     523 <MULTIBOOT_HEADER_FLAGS+0x520>
     513:	63 68 00             	arpl   %bp,0x0(%eax)
     516:	01 6a 2e             	add    %ebp,0x2e(%edx)
     519:	05 00 00 02 91       	add    $0x91020000,%eax
     51e:	6e                   	outsb  %ds:(%esi),(%dx)
     51f:	00 00                	add    %al,(%eax)
     521:	13 04 27             	adc    (%edi,%eiz,1),%eax
     524:	05 00 00 06 01       	add    $0x1060000,%eax
     529:	06                   	push   %es
     52a:	4f                   	dec    %edi
     52b:	01 00                	add    %eax,(%eax)
     52d:	00 06                	add    %al,(%esi)
     52f:	02 05 3c 00 00 00    	add    0x3c,%al
     535:	14 01                	adc    $0x1,%al
     537:	07                   	pop    %es
     538:	00 00                	add    %al,(%eax)
     53a:	00 01                	add    %al,(%ecx)
     53c:	6e                   	outsb  %ds:(%esi),(%dx)
     53d:	01 79 3c             	add    %edi,0x3c(%ecx)
     540:	10 00                	adc    %al,(%eax)
     542:	ce                   	into   
     543:	3c 10                	cmp    $0x10,%al
     545:	00 e0                	add    %ah,%al
     547:	00 00                	add    %al,(%eax)
     549:	00 90 05 00 00 15    	add    %dl,0x15000005(%eax)
     54f:	e6 00                	out    %al,$0x0
     551:	00 00                	add    %al,(%eax)
     553:	01 6e 4c             	add    %ebp,0x4c(%esi)
     556:	02 00                	add    (%eax),%al
     558:	00 02                	add    %al,(%edx)
     55a:	91                   	xchg   %eax,%ecx
     55b:	00 12                	add    %dl,(%edx)
     55d:	7f 3c                	jg     59b <MULTIBOOT_HEADER_FLAGS+0x598>
     55f:	10 00                	adc    %al,(%eax)
     561:	bf 3c 10 00 16       	mov    $0x1600103c,%edi
     566:	af                   	scas   %es:(%edi),%eax
     567:	04 00                	add    $0x0,%al
     569:	00 01                	add    %al,(%ecx)
     56b:	70 21                	jo     58e <MULTIBOOT_HEADER_FLAGS+0x58b>
     56d:	05 00 00 02 91       	add    $0x91020000,%eax
     572:	74 10                	je     584 <MULTIBOOT_HEADER_FLAGS+0x581>
     574:	70 6f                	jo     5e5 <MULTIBOOT_HEADER_FLAGS+0x5e2>
     576:	73 00                	jae    578 <MULTIBOOT_HEADER_FLAGS+0x575>
     578:	01 70 3c             	add    %esi,0x3c(%eax)
     57b:	04 00                	add    $0x0,%al
     57d:	00 02                	add    %al,(%edx)
     57f:	91                   	xchg   %eax,%ecx
     580:	70 10                	jo     592 <MULTIBOOT_HEADER_FLAGS+0x58f>
     582:	63 68 00             	arpl   %bp,0x0(%eax)
     585:	01 70 2e             	add    %esi,0x2e(%eax)
     588:	05 00 00 02 91       	add    $0x91020000,%eax
     58d:	6e                   	outsb  %ds:(%esi),(%dx)
     58e:	00 00                	add    %al,(%eax)
     590:	14 01                	adc    $0x1,%al
     592:	c5 00                	lds    (%eax),%eax
     594:	00 00                	add    %al,(%eax)
     596:	01 75 01             	add    %esi,0x1(%ebp)
     599:	ce                   	into   
     59a:	3c 10                	cmp    $0x10,%al
     59c:	00 d3                	add    %dl,%bl
     59e:	3c 10                	cmp    $0x10,%al
     5a0:	00 18                	add    %bl,(%eax)
     5a2:	01 00                	add    %eax,(%eax)
     5a4:	00 b8 05 00 00 15    	add    %bh,0x15000005(%eax)
     5aa:	e6 00                	out    %al,$0x0
     5ac:	00 00                	add    %al,(%eax)
     5ae:	01 75 4c             	add    %esi,0x4c(%ebp)
     5b1:	02 00                	add    (%eax),%al
     5b3:	00 02                	add    %al,(%edx)
     5b5:	91                   	xchg   %eax,%ecx
     5b6:	00 00                	add    %al,(%eax)
     5b8:	14 01                	adc    $0x1,%al
     5ba:	5a                   	pop    %edx
     5bb:	01 00                	add    %eax,(%eax)
     5bd:	00 01                	add    %al,(%ecx)
     5bf:	7b 01                	jnp    5c2 <MULTIBOOT_HEADER_FLAGS+0x5bf>
     5c1:	d3 3c 10             	sarl   %cl,(%eax,%edx,1)
     5c4:	00 28                	add    %ch,(%eax)
     5c6:	3d 10 00 50 01       	cmp    $0x1500010,%eax
     5cb:	00 00                	add    %al,(%eax)
     5cd:	13 06                	adc    (%esi),%eax
     5cf:	00 00                	add    %al,(%eax)
     5d1:	15 e6 00 00 00       	adc    $0xe6,%eax
     5d6:	01 7b 4c             	add    %edi,0x4c(%ebx)
     5d9:	02 00                	add    (%eax),%al
     5db:	00 02                	add    %al,(%edx)
     5dd:	91                   	xchg   %eax,%ecx
     5de:	00 12                	add    %dl,(%edx)
     5e0:	d9 3c 10             	fnstcw (%eax,%edx,1)
     5e3:	00 19                	add    %bl,(%ecx)
     5e5:	3d 10 00 16 af       	cmp    $0xaf160010,%eax
     5ea:	04 00                	add    $0x0,%al
     5ec:	00 01                	add    %al,(%ecx)
     5ee:	7d 21                	jge    611 <MULTIBOOT_HEADER_FLAGS+0x60e>
     5f0:	05 00 00 02 91       	add    $0x91020000,%eax
     5f5:	74 10                	je     607 <MULTIBOOT_HEADER_FLAGS+0x604>
     5f7:	70 6f                	jo     668 <MULTIBOOT_HEADER_FLAGS+0x665>
     5f9:	73 00                	jae    5fb <MULTIBOOT_HEADER_FLAGS+0x5f8>
     5fb:	01 7d 3c             	add    %edi,0x3c(%ebp)
     5fe:	04 00                	add    $0x0,%al
     600:	00 02                	add    %al,(%edx)
     602:	91                   	xchg   %eax,%ecx
     603:	70 10                	jo     615 <MULTIBOOT_HEADER_FLAGS+0x612>
     605:	63 68 00             	arpl   %bp,0x0(%eax)
     608:	01 7d 2e             	add    %edi,0x2e(%ebp)
     60b:	05 00 00 02 91       	add    $0x91020000,%eax
     610:	6e                   	outsb  %ds:(%esi),(%dx)
     611:	00 00                	add    %al,(%eax)
     613:	14 01                	adc    $0x1,%al
     615:	98                   	cwtl   
     616:	01 00                	add    %eax,(%eax)
     618:	00 01                	add    %al,(%ecx)
     61a:	81 01 28 3d 10 00    	addl   $0x103d28,(%ecx)
     620:	7d 3d                	jge    65f <MULTIBOOT_HEADER_FLAGS+0x65c>
     622:	10 00                	adc    %al,(%eax)
     624:	88 01                	mov    %al,(%ecx)
     626:	00 00                	add    %al,(%eax)
     628:	6e                   	outsb  %ds:(%esi),(%dx)
     629:	06                   	push   %es
     62a:	00 00                	add    %al,(%eax)
     62c:	15 e6 00 00 00       	adc    $0xe6,%eax
     631:	01 81 4c 02 00 00    	add    %eax,0x24c(%ecx)
     637:	02 91 00 12 2e 3d    	add    0x3d2e1200(%ecx),%dl
     63d:	10 00                	adc    %al,(%eax)
     63f:	6e                   	outsb  %ds:(%esi),(%dx)
     640:	3d 10 00 16 af       	cmp    $0xaf160010,%eax
     645:	04 00                	add    $0x0,%al
     647:	00 01                	add    %al,(%ecx)
     649:	83 21 05             	andl   $0x5,(%ecx)
     64c:	00 00                	add    %al,(%eax)
     64e:	02 91 74 10 70 6f    	add    0x6f701074(%ecx),%dl
     654:	73 00                	jae    656 <MULTIBOOT_HEADER_FLAGS+0x653>
     656:	01 83 3c 04 00 00    	add    %eax,0x43c(%ebx)
     65c:	02 91 70 10 63 68    	add    0x68631070(%ecx),%dl
     662:	00 01                	add    %al,(%ecx)
     664:	83 2e 05             	subl   $0x5,(%esi)
     667:	00 00                	add    %al,(%eax)
     669:	02 91 6e 00 00 14    	add    0x1400006e(%ecx),%dl
     66f:	01 9e 00 00 00 01    	add    %ebx,0x1000000(%esi)
     675:	87 01                	xchg   %eax,(%ecx)
     677:	7d 3d                	jge    6b6 <MULTIBOOT_HEADER_FLAGS+0x6b3>
     679:	10 00                	adc    %al,(%eax)
     67b:	d2 3d 10 00 c0 01    	sarb   %cl,0x1c00010
     681:	00 00                	add    %al,(%eax)
     683:	c9                   	leave  
     684:	06                   	push   %es
     685:	00 00                	add    %al,(%eax)
     687:	15 e6 00 00 00       	adc    $0xe6,%eax
     68c:	01 87 4c 02 00 00    	add    %eax,0x24c(%edi)
     692:	02 91 00 12 83 3d    	add    0x3d831200(%ecx),%dl
     698:	10 00                	adc    %al,(%eax)
     69a:	c3                   	ret    
     69b:	3d 10 00 16 af       	cmp    $0xaf160010,%eax
     6a0:	04 00                	add    $0x0,%al
     6a2:	00 01                	add    %al,(%ecx)
     6a4:	89 21                	mov    %esp,(%ecx)
     6a6:	05 00 00 02 91       	add    $0x91020000,%eax
     6ab:	74 10                	je     6bd <MULTIBOOT_HEADER_FLAGS+0x6ba>
     6ad:	70 6f                	jo     71e <MULTIBOOT_HEADER_FLAGS+0x71b>
     6af:	73 00                	jae    6b1 <MULTIBOOT_HEADER_FLAGS+0x6ae>
     6b1:	01 89 3c 04 00 00    	add    %ecx,0x43c(%ecx)
     6b7:	02 91 70 10 63 68    	add    0x68631070(%ecx),%dl
     6bd:	00 01                	add    %al,(%ecx)
     6bf:	89 2e                	mov    %ebp,(%esi)
     6c1:	05 00 00 02 91       	add    $0x91020000,%eax
     6c6:	6e                   	outsb  %ds:(%esi),(%dx)
     6c7:	00 00                	add    %al,(%eax)
     6c9:	14 01                	adc    $0x1,%al
     6cb:	20 02                	and    %al,(%edx)
     6cd:	00 00                	add    %al,(%eax)
     6cf:	01 8d 01 d2 3d 10    	add    %ecx,0x103dd201(%ebp)
     6d5:	00 27                	add    %ah,(%edi)
     6d7:	3e 10 00             	adc    %al,%ds:(%eax)
     6da:	f8                   	clc    
     6db:	01 00                	add    %eax,(%eax)
     6dd:	00 24 07             	add    %ah,(%edi,%eax,1)
     6e0:	00 00                	add    %al,(%eax)
     6e2:	15 e6 00 00 00       	adc    $0xe6,%eax
     6e7:	01 8d 4c 02 00 00    	add    %ecx,0x24c(%ebp)
     6ed:	02 91 00 12 d8 3d    	add    0x3dd81200(%ecx),%dl
     6f3:	10 00                	adc    %al,(%eax)
     6f5:	18 3e                	sbb    %bh,(%esi)
     6f7:	10 00                	adc    %al,(%eax)
     6f9:	16                   	push   %ss
     6fa:	af                   	scas   %es:(%edi),%eax
     6fb:	04 00                	add    $0x0,%al
     6fd:	00 01                	add    %al,(%ecx)
     6ff:	8f                   	(bad)  
     700:	21 05 00 00 02 91    	and    %eax,0x91020000
     706:	74 10                	je     718 <MULTIBOOT_HEADER_FLAGS+0x715>
     708:	70 6f                	jo     779 <MULTIBOOT_HEADER_FLAGS+0x776>
     70a:	73 00                	jae    70c <MULTIBOOT_HEADER_FLAGS+0x709>
     70c:	01 8f 3c 04 00 00    	add    %ecx,0x43c(%edi)
     712:	02 91 70 10 63 68    	add    0x68631070(%ecx),%dl
     718:	00 01                	add    %al,(%ecx)
     71a:	8f                   	(bad)  
     71b:	2e                   	cs
     71c:	05 00 00 02 91       	add    $0x91020000,%eax
     721:	6e                   	outsb  %ds:(%esi),(%dx)
     722:	00 00                	add    %al,(%eax)
     724:	14 01                	adc    $0x1,%al
     726:	f1                   	icebp  
     727:	00 00                	add    %al,(%eax)
     729:	00 01                	add    %al,(%ecx)
     72b:	93                   	xchg   %eax,%ebx
     72c:	01 27                	add    %esp,(%edi)
     72e:	3e 10 00             	adc    %al,%ds:(%eax)
     731:	7c 3e                	jl     771 <MULTIBOOT_HEADER_FLAGS+0x76e>
     733:	10 00                	adc    %al,(%eax)
     735:	30 02                	xor    %al,(%edx)
     737:	00 00                	add    %al,(%eax)
     739:	7f 07                	jg     742 <MULTIBOOT_HEADER_FLAGS+0x73f>
     73b:	00 00                	add    %al,(%eax)
     73d:	15 e6 00 00 00       	adc    $0xe6,%eax
     742:	01 93 4c 02 00 00    	add    %edx,0x24c(%ebx)
     748:	02 91 00 12 2d 3e    	add    0x3e2d1200(%ecx),%dl
     74e:	10 00                	adc    %al,(%eax)
     750:	6d                   	insl   (%dx),%es:(%edi)
     751:	3e 10 00             	adc    %al,%ds:(%eax)
     754:	16                   	push   %ss
     755:	af                   	scas   %es:(%edi),%eax
     756:	04 00                	add    $0x0,%al
     758:	00 01                	add    %al,(%ecx)
     75a:	95                   	xchg   %eax,%ebp
     75b:	21 05 00 00 02 91    	and    %eax,0x91020000
     761:	74 10                	je     773 <MULTIBOOT_HEADER_FLAGS+0x770>
     763:	70 6f                	jo     7d4 <MULTIBOOT_HEADER_FLAGS+0x7d1>
     765:	73 00                	jae    767 <MULTIBOOT_HEADER_FLAGS+0x764>
     767:	01 95 3c 04 00 00    	add    %edx,0x43c(%ebp)
     76d:	02 91 70 10 63 68    	add    0x68631070(%ecx),%dl
     773:	00 01                	add    %al,(%ecx)
     775:	95                   	xchg   %eax,%ebp
     776:	2e                   	cs
     777:	05 00 00 02 91       	add    $0x91020000,%eax
     77c:	6e                   	outsb  %ds:(%esi),(%dx)
     77d:	00 00                	add    %al,(%eax)
     77f:	14 01                	adc    $0x1,%al
     781:	b2 02                	mov    $0x2,%dl
     783:	00 00                	add    %al,(%eax)
     785:	01 99 01 7c 3e 10    	add    %ebx,0x103e7c01(%ecx)
     78b:	00 d1                	add    %dl,%cl
     78d:	3e 10 00             	adc    %al,%ds:(%eax)
     790:	68 02 00 00 da       	push   $0xda000002
     795:	07                   	pop    %es
     796:	00 00                	add    %al,(%eax)
     798:	15 e6 00 00 00       	adc    $0xe6,%eax
     79d:	01 99 4c 02 00 00    	add    %ebx,0x24c(%ecx)
     7a3:	02 91 00 12 82 3e    	add    0x3e821200(%ecx),%dl
     7a9:	10 00                	adc    %al,(%eax)
     7ab:	c2 3e 10             	ret    $0x103e
     7ae:	00 16                	add    %dl,(%esi)
     7b0:	af                   	scas   %es:(%edi),%eax
     7b1:	04 00                	add    $0x0,%al
     7b3:	00 01                	add    %al,(%ecx)
     7b5:	9b                   	fwait
     7b6:	21 05 00 00 02 91    	and    %eax,0x91020000
     7bc:	74 10                	je     7ce <MULTIBOOT_HEADER_FLAGS+0x7cb>
     7be:	70 6f                	jo     82f <gdt_len+0x1f>
     7c0:	73 00                	jae    7c2 <MULTIBOOT_HEADER_FLAGS+0x7bf>
     7c2:	01 9b 3c 04 00 00    	add    %ebx,0x43c(%ebx)
     7c8:	02 91 70 10 63 68    	add    0x68631070(%ecx),%dl
     7ce:	00 01                	add    %al,(%ecx)
     7d0:	9b                   	fwait
     7d1:	2e                   	cs
     7d2:	05 00 00 02 91       	add    $0x91020000,%eax
     7d7:	6e                   	outsb  %ds:(%esi),(%dx)
     7d8:	00 00                	add    %al,(%eax)
     7da:	14 01                	adc    $0x1,%al
     7dc:	95                   	xchg   %eax,%ebp
     7dd:	02 00                	add    (%eax),%al
     7df:	00 01                	add    %al,(%ecx)
     7e1:	9f                   	lahf   
     7e2:	01 d1                	add    %edx,%ecx
     7e4:	3e 10 00             	adc    %al,%ds:(%eax)
     7e7:	26                   	es
     7e8:	3f                   	aas    
     7e9:	10 00                	adc    %al,(%eax)
     7eb:	a0 02 00 00 35       	mov    0x35000002,%al
     7f0:	08 00                	or     %al,(%eax)
     7f2:	00 15 e6 00 00 00    	add    %dl,0xe6
     7f8:	01 9f 4c 02 00 00    	add    %ebx,0x24c(%edi)
     7fe:	02 91 00 12 d7 3e    	add    0x3ed71200(%ecx),%dl
     804:	10 00                	adc    %al,(%eax)
     806:	17                   	pop    %ss
     807:	3f                   	aas    
     808:	10 00                	adc    %al,(%eax)
     80a:	16                   	push   %ss
     80b:	af                   	scas   %es:(%edi),%eax
     80c:	04 00                	add    $0x0,%al
     80e:	00 01                	add    %al,(%ecx)
     810:	a1 21 05 00 00       	mov    0x521,%eax
     815:	02 91 74 10 70 6f    	add    0x6f701074(%ecx),%dl
     81b:	73 00                	jae    81d <gdt_len+0xd>
     81d:	01 a1 3c 04 00 00    	add    %esp,0x43c(%ecx)
     823:	02 91 70 10 63 68    	add    0x68631070(%ecx),%dl
     829:	00 01                	add    %al,(%ecx)
     82b:	a1 2e 05 00 00       	mov    0x52e,%eax
     830:	02 91 6e 00 00 14    	add    0x1400006e(%ecx),%dl
     836:	01 76 02             	add    %esi,0x2(%esi)
     839:	00 00                	add    %al,(%eax)
     83b:	01 a5 01 26 3f 10    	add    %esp,0x103f2601(%ebp)
     841:	00 7b 3f             	add    %bh,0x3f(%ebx)
     844:	10 00                	adc    %al,(%eax)
     846:	d8 02                	fadds  (%edx)
     848:	00 00                	add    %al,(%eax)
     84a:	90                   	nop
     84b:	08 00                	or     %al,(%eax)
     84d:	00 15 e6 00 00 00    	add    %dl,0xe6
     853:	01 a5 4c 02 00 00    	add    %esp,0x24c(%ebp)
     859:	02 91 00 12 2c 3f    	add    0x3f2c1200(%ecx),%dl
     85f:	10 00                	adc    %al,(%eax)
     861:	6c                   	insb   (%dx),%es:(%edi)
     862:	3f                   	aas    
     863:	10 00                	adc    %al,(%eax)
     865:	16                   	push   %ss
     866:	af                   	scas   %es:(%edi),%eax
     867:	04 00                	add    $0x0,%al
     869:	00 01                	add    %al,(%ecx)
     86b:	a7                   	cmpsl  %es:(%edi),%ds:(%esi)
     86c:	21 05 00 00 02 91    	and    %eax,0x91020000
     872:	74 10                	je     884 <gdt_len+0x74>
     874:	70 6f                	jo     8e5 <gdt_len+0xd5>
     876:	73 00                	jae    878 <gdt_len+0x68>
     878:	01 a7 3c 04 00 00    	add    %esp,0x43c(%edi)
     87e:	02 91 70 10 63 68    	add    0x68631070(%ecx),%dl
     884:	00 01                	add    %al,(%ecx)
     886:	a7                   	cmpsl  %es:(%edi),%ds:(%esi)
     887:	2e                   	cs
     888:	05 00 00 02 91       	add    $0x91020000,%eax
     88d:	6e                   	outsb  %ds:(%esi),(%dx)
     88e:	00 00                	add    %al,(%eax)
     890:	14 01                	adc    $0x1,%al
     892:	37                   	aaa    
     893:	01 00                	add    %eax,(%eax)
     895:	00 01                	add    %al,(%ecx)
     897:	ab                   	stos   %eax,%es:(%edi)
     898:	01 7b 3f             	add    %edi,0x3f(%ebx)
     89b:	10 00                	adc    %al,(%eax)
     89d:	d0 3f                	sarb   (%edi)
     89f:	10 00                	adc    %al,(%eax)
     8a1:	10 03                	adc    %al,(%ebx)
     8a3:	00 00                	add    %al,(%eax)
     8a5:	eb 08                	jmp    8af <gdt_len+0x9f>
     8a7:	00 00                	add    %al,(%eax)
     8a9:	15 e6 00 00 00       	adc    $0xe6,%eax
     8ae:	01 ab 4c 02 00 00    	add    %ebp,0x24c(%ebx)
     8b4:	02 91 00 12 81 3f    	add    0x3f811200(%ecx),%dl
     8ba:	10 00                	adc    %al,(%eax)
     8bc:	c1 3f 10             	sarl   $0x10,(%edi)
     8bf:	00 16                	add    %dl,(%esi)
     8c1:	af                   	scas   %es:(%edi),%eax
     8c2:	04 00                	add    $0x0,%al
     8c4:	00 01                	add    %al,(%ecx)
     8c6:	ad                   	lods   %ds:(%esi),%eax
     8c7:	21 05 00 00 02 91    	and    %eax,0x91020000
     8cd:	74 10                	je     8df <gdt_len+0xcf>
     8cf:	70 6f                	jo     940 <gdt_len+0x130>
     8d1:	73 00                	jae    8d3 <gdt_len+0xc3>
     8d3:	01 ad 3c 04 00 00    	add    %ebp,0x43c(%ebp)
     8d9:	02 91 70 10 63 68    	add    0x68631070(%ecx),%dl
     8df:	00 01                	add    %al,(%ecx)
     8e1:	ad                   	lods   %ds:(%esi),%eax
     8e2:	2e                   	cs
     8e3:	05 00 00 02 91       	add    $0x91020000,%eax
     8e8:	6e                   	outsb  %ds:(%esi),(%dx)
     8e9:	00 00                	add    %al,(%eax)
     8eb:	14 01                	adc    $0x1,%al
     8ed:	d3 00                	roll   %cl,(%eax)
     8ef:	00 00                	add    %al,(%eax)
     8f1:	01 b1 01 d0 3f 10    	add    %esi,0x103fd001(%ecx)
     8f7:	00 25 40 10 00 48    	add    %ah,0x48001040
     8fd:	03 00                	add    (%eax),%eax
     8ff:	00 46 09             	add    %al,0x9(%esi)
     902:	00 00                	add    %al,(%eax)
     904:	15 e6 00 00 00       	adc    $0xe6,%eax
     909:	01 b1 4c 02 00 00    	add    %esi,0x24c(%ecx)
     90f:	02 91 00 12 d6 3f    	add    0x3fd61200(%ecx),%dl
     915:	10 00                	adc    %al,(%eax)
     917:	16                   	push   %ss
     918:	40                   	inc    %eax
     919:	10 00                	adc    %al,(%eax)
     91b:	16                   	push   %ss
     91c:	af                   	scas   %es:(%edi),%eax
     91d:	04 00                	add    $0x0,%al
     91f:	00 01                	add    %al,(%ecx)
     921:	b3 21                	mov    $0x21,%bl
     923:	05 00 00 02 91       	add    $0x91020000,%eax
     928:	74 10                	je     93a <gdt_len+0x12a>
     92a:	70 6f                	jo     99b <gdt_len+0x18b>
     92c:	73 00                	jae    92e <gdt_len+0x11e>
     92e:	01 b3 3c 04 00 00    	add    %esi,0x43c(%ebx)
     934:	02 91 70 10 63 68    	add    0x68631070(%ecx),%dl
     93a:	00 01                	add    %al,(%ecx)
     93c:	b3 2e                	mov    $0x2e,%bl
     93e:	05 00 00 02 91       	add    $0x91020000,%eax
     943:	6e                   	outsb  %ds:(%esi),(%dx)
     944:	00 00                	add    %al,(%eax)
     946:	14 01                	adc    $0x1,%al
     948:	cd 02                	int    $0x2
     94a:	00 00                	add    %al,(%eax)
     94c:	01 ba 01 25 40 10    	add    %edi,0x10402501(%edx)
     952:	00 7a 40             	add    %bh,0x40(%edx)
     955:	10 00                	adc    %al,(%eax)
     957:	80 03 00             	addb   $0x0,(%ebx)
     95a:	00 a1 09 00 00 15    	add    %ah,0x15000009(%ecx)
     960:	e6 00                	out    %al,$0x0
     962:	00 00                	add    %al,(%eax)
     964:	01 ba 4c 02 00 00    	add    %edi,0x24c(%edx)
     96a:	02 91 00 12 2b 40    	add    0x402b1200(%ecx),%dl
     970:	10 00                	adc    %al,(%eax)
     972:	6b 40 10 00          	imul   $0x0,0x10(%eax),%eax
     976:	16                   	push   %ss
     977:	af                   	scas   %es:(%edi),%eax
     978:	04 00                	add    $0x0,%al
     97a:	00 01                	add    %al,(%ecx)
     97c:	bc 21 05 00 00       	mov    $0x521,%esp
     981:	02 91 74 10 70 6f    	add    0x6f701074(%ecx),%dl
     987:	73 00                	jae    989 <gdt_len+0x179>
     989:	01 bc 3c 04 00 00 02 	add    %edi,0x2000004(%esp,%edi,1)
     990:	91                   	xchg   %eax,%ecx
     991:	70 10                	jo     9a3 <gdt_len+0x193>
     993:	63 68 00             	arpl   %bp,0x0(%eax)
     996:	01 bc 2e 05 00 00 02 	add    %edi,0x2000005(%esi,%ebp,1)
     99d:	91                   	xchg   %eax,%ecx
     99e:	6e                   	outsb  %ds:(%esi),(%dx)
     99f:	00 00                	add    %al,(%eax)
     9a1:	14 01                	adc    $0x1,%al
     9a3:	a3 02 00 00 01       	mov    %eax,0x1000002
     9a8:	c0 01 7a             	rolb   $0x7a,(%ecx)
     9ab:	40                   	inc    %eax
     9ac:	10 00                	adc    %al,(%eax)
     9ae:	cf                   	iret   
     9af:	40                   	inc    %eax
     9b0:	10 00                	adc    %al,(%eax)
     9b2:	b8 03 00 00 fc       	mov    $0xfc000003,%eax
     9b7:	09 00                	or     %eax,(%eax)
     9b9:	00 15 e6 00 00 00    	add    %dl,0xe6
     9bf:	01 c0                	add    %eax,%eax
     9c1:	4c                   	dec    %esp
     9c2:	02 00                	add    (%eax),%al
     9c4:	00 02                	add    %al,(%edx)
     9c6:	91                   	xchg   %eax,%ecx
     9c7:	00 12                	add    %dl,(%edx)
     9c9:	80 40 10 00          	addb   $0x0,0x10(%eax)
     9cd:	c0 40 10 00          	rolb   $0x0,0x10(%eax)
     9d1:	16                   	push   %ss
     9d2:	af                   	scas   %es:(%edi),%eax
     9d3:	04 00                	add    $0x0,%al
     9d5:	00 01                	add    %al,(%ecx)
     9d7:	c2 21 05             	ret    $0x521
     9da:	00 00                	add    %al,(%eax)
     9dc:	02 91 74 10 70 6f    	add    0x6f701074(%ecx),%dl
     9e2:	73 00                	jae    9e4 <gdt_len+0x1d4>
     9e4:	01 c2                	add    %eax,%edx
     9e6:	3c 04                	cmp    $0x4,%al
     9e8:	00 00                	add    %al,(%eax)
     9ea:	02 91 70 10 63 68    	add    0x68631070(%ecx),%dl
     9f0:	00 01                	add    %al,(%ecx)
     9f2:	c2 2e 05             	ret    $0x52e
     9f5:	00 00                	add    %al,(%eax)
     9f7:	02 91 6e 00 00 14    	add    0x1400006e(%ecx),%dl
     9fd:	01 8d 00 00 00 01    	add    %ecx,0x1000000(%ebp)
     a03:	c6 01 cf             	movb   $0xcf,(%ecx)
     a06:	40                   	inc    %eax
     a07:	10 00                	adc    %al,(%eax)
     a09:	24 41                	and    $0x41,%al
     a0b:	10 00                	adc    %al,(%eax)
     a0d:	f0 03 00             	lock add (%eax),%eax
     a10:	00 57 0a             	add    %dl,0xa(%edi)
     a13:	00 00                	add    %al,(%eax)
     a15:	15 e6 00 00 00       	adc    $0xe6,%eax
     a1a:	01 c6                	add    %eax,%esi
     a1c:	4c                   	dec    %esp
     a1d:	02 00                	add    (%eax),%al
     a1f:	00 02                	add    %al,(%edx)
     a21:	91                   	xchg   %eax,%ecx
     a22:	00 12                	add    %dl,(%edx)
     a24:	d5 40                	aad    $0x40
     a26:	10 00                	adc    %al,(%eax)
     a28:	15 41 10 00 16       	adc    $0x16001041,%eax
     a2d:	af                   	scas   %es:(%edi),%eax
     a2e:	04 00                	add    $0x0,%al
     a30:	00 01                	add    %al,(%ecx)
     a32:	c8 21 05 00          	enter  $0x521,$0x0
     a36:	00 02                	add    %al,(%edx)
     a38:	91                   	xchg   %eax,%ecx
     a39:	74 10                	je     a4b <gdt_len+0x23b>
     a3b:	70 6f                	jo     aac <gdt_len+0x29c>
     a3d:	73 00                	jae    a3f <gdt_len+0x22f>
     a3f:	01 c8                	add    %ecx,%eax
     a41:	3c 04                	cmp    $0x4,%al
     a43:	00 00                	add    %al,(%eax)
     a45:	02 91 70 10 63 68    	add    0x68631070(%ecx),%dl
     a4b:	00 01                	add    %al,(%ecx)
     a4d:	c8 2e 05 00          	enter  $0x52e,$0x0
     a51:	00 02                	add    %al,(%edx)
     a53:	91                   	xchg   %eax,%ecx
     a54:	6e                   	outsb  %ds:(%esi),(%dx)
     a55:	00 00                	add    %al,(%eax)
     a57:	14 01                	adc    $0x1,%al
     a59:	6d                   	insl   (%dx),%es:(%edi)
     a5a:	00 00                	add    %al,(%eax)
     a5c:	00 01                	add    %al,(%ecx)
     a5e:	cc                   	int3   
     a5f:	01 24 41             	add    %esp,(%ecx,%eax,2)
     a62:	10 00                	adc    %al,(%eax)
     a64:	79 41                	jns    aa7 <gdt_len+0x297>
     a66:	10 00                	adc    %al,(%eax)
     a68:	28 04 00             	sub    %al,(%eax,%eax,1)
     a6b:	00 b2 0a 00 00 15    	add    %dh,0x1500000a(%edx)
     a71:	e6 00                	out    %al,$0x0
     a73:	00 00                	add    %al,(%eax)
     a75:	01 cc                	add    %ecx,%esp
     a77:	4c                   	dec    %esp
     a78:	02 00                	add    (%eax),%al
     a7a:	00 02                	add    %al,(%edx)
     a7c:	91                   	xchg   %eax,%ecx
     a7d:	00 12                	add    %dl,(%edx)
     a7f:	2a 41 10             	sub    0x10(%ecx),%al
     a82:	00 6a 41             	add    %ch,0x41(%edx)
     a85:	10 00                	adc    %al,(%eax)
     a87:	16                   	push   %ss
     a88:	af                   	scas   %es:(%edi),%eax
     a89:	04 00                	add    $0x0,%al
     a8b:	00 01                	add    %al,(%ecx)
     a8d:	ce                   	into   
     a8e:	21 05 00 00 02 91    	and    %eax,0x91020000
     a94:	74 10                	je     aa6 <gdt_len+0x296>
     a96:	70 6f                	jo     b07 <gdt_len+0x2f7>
     a98:	73 00                	jae    a9a <gdt_len+0x28a>
     a9a:	01 ce                	add    %ecx,%esi
     a9c:	3c 04                	cmp    $0x4,%al
     a9e:	00 00                	add    %al,(%eax)
     aa0:	02 91 70 10 63 68    	add    0x68631070(%ecx),%dl
     aa6:	00 01                	add    %al,(%ecx)
     aa8:	ce                   	into   
     aa9:	2e                   	cs
     aaa:	05 00 00 02 91       	add    $0x91020000,%eax
     aaf:	6e                   	outsb  %ds:(%esi),(%dx)
     ab0:	00 00                	add    %al,(%eax)
     ab2:	14 01                	adc    $0x1,%al
     ab4:	26 02 00             	add    %es:(%eax),%al
     ab7:	00 01                	add    %al,(%ecx)
     ab9:	d3 01                	roll   %cl,(%ecx)
     abb:	79 41                	jns    afe <gdt_len+0x2ee>
     abd:	10 00                	adc    %al,(%eax)
     abf:	ef                   	out    %eax,(%dx)
     ac0:	41                   	inc    %ecx
     ac1:	10 00                	adc    %al,(%eax)
     ac3:	60                   	pusha  
     ac4:	04 00                	add    $0x0,%al
     ac6:	00 20                	add    %ah,(%eax)
     ac8:	0b 00                	or     (%eax),%eax
     aca:	00 15 e6 00 00 00    	add    %dl,0xe6
     ad0:	01 d3                	add    %edx,%ebx
     ad2:	4c                   	dec    %esp
     ad3:	02 00                	add    (%eax),%al
     ad5:	00 02                	add    %al,(%edx)
     ad7:	91                   	xchg   %eax,%ecx
     ad8:	00 17                	add    %dl,(%edi)
     ada:	01 83 02 00 00 01    	add    %eax,0x1000002(%ebx)
     ae0:	d9 3c 04             	fnstcw (%esp,%eax,1)
     ae3:	00 00                	add    %al,(%eax)
     ae5:	01 ec                	add    %ebp,%esp
     ae7:	0a 00                	or     (%eax),%al
     ae9:	00 18                	add    %bl,(%eax)
     aeb:	00 12                	add    %dl,(%edx)
     aed:	7f 41                	jg     b30 <gdt_len+0x320>
     aef:	10 00                	adc    %al,(%eax)
     af1:	bf 41 10 00 16       	mov    $0x16001041,%edi
     af6:	af                   	scas   %es:(%edi),%eax
     af7:	04 00                	add    $0x0,%al
     af9:	00 01                	add    %al,(%ecx)
     afb:	d5 21                	aad    $0x21
     afd:	05 00 00 02 91       	add    $0x91020000,%eax
     b02:	6c                   	insb   (%dx),%es:(%edi)
     b03:	10 70 6f             	adc    %dh,0x6f(%eax)
     b06:	73 00                	jae    b08 <gdt_len+0x2f8>
     b08:	01 d5                	add    %edx,%ebp
     b0a:	3c 04                	cmp    $0x4,%al
     b0c:	00 00                	add    %al,(%eax)
     b0e:	02 91 68 10 63 68    	add    0x68631068(%ecx),%dl
     b14:	00 01                	add    %al,(%ecx)
     b16:	d5 2e                	aad    $0x2e
     b18:	05 00 00 02 91       	add    $0x91020000,%eax
     b1d:	66                   	data16
     b1e:	00 00                	add    %al,(%eax)
     b20:	14 01                	adc    $0x1,%al
     b22:	ef                   	out    %eax,(%dx)
     b23:	01 00                	add    %eax,(%eax)
     b25:	00 01                	add    %al,(%ecx)
     b27:	de 01                	fiadd  (%ecx)
     b29:	ef                   	out    %eax,(%dx)
     b2a:	41                   	inc    %ecx
     b2b:	10 00                	adc    %al,(%eax)
     b2d:	80 42 10 00          	addb   $0x0,0x10(%edx)
     b31:	98                   	cwtl   
     b32:	04 00                	add    $0x0,%al
     b34:	00 7b 0b             	add    %bh,0xb(%ebx)
     b37:	00 00                	add    %al,(%eax)
     b39:	15 e6 00 00 00       	adc    $0xe6,%eax
     b3e:	01 de                	add    %ebx,%esi
     b40:	4c                   	dec    %esp
     b41:	02 00                	add    (%eax),%al
     b43:	00 02                	add    %al,(%edx)
     b45:	91                   	xchg   %eax,%ecx
     b46:	00 12                	add    %dl,(%edx)
     b48:	f7 41 10 00 37 42 10 	testl  $0x10423700,0x10(%ecx)
     b4f:	00 16                	add    %dl,(%esi)
     b51:	af                   	scas   %es:(%edi),%eax
     b52:	04 00                	add    $0x0,%al
     b54:	00 01                	add    %al,(%ecx)
     b56:	e0 21                	loopne b79 <gdt_len+0x369>
     b58:	05 00 00 02 91       	add    $0x91020000,%eax
     b5d:	6c                   	insb   (%dx),%es:(%edi)
     b5e:	10 70 6f             	adc    %dh,0x6f(%eax)
     b61:	73 00                	jae    b63 <gdt_len+0x353>
     b63:	01 e0                	add    %esp,%eax
     b65:	3c 04                	cmp    $0x4,%al
     b67:	00 00                	add    %al,(%eax)
     b69:	02 91 68 10 63 68    	add    0x68631068(%ecx),%dl
     b6f:	00 01                	add    %al,(%ecx)
     b71:	e0 2e                	loopne ba1 <gdt_len+0x391>
     b73:	05 00 00 02 91       	add    $0x91020000,%eax
     b78:	66                   	data16
     b79:	00 00                	add    %al,(%eax)
     b7b:	14 01                	adc    $0x1,%al
     b7d:	2e 01 00             	add    %eax,%cs:(%eax)
     b80:	00 01                	add    %al,(%ecx)
     b82:	e7 01                	out    %eax,$0x1
     b84:	80 42 10 00          	addb   $0x0,0x10(%edx)
     b88:	de 42 10             	fiadd  0x10(%edx)
     b8b:	00 d0                	add    %dl,%al
     b8d:	04 00                	add    $0x0,%al
     b8f:	00 e5                	add    %ah,%ch
     b91:	0b 00                	or     (%eax),%eax
     b93:	00 19                	add    %bl,(%ecx)
     b95:	65                   	gs
     b96:	61                   	popa   
     b97:	78 00                	js     b99 <gdt_len+0x389>
     b99:	01 e7                	add    %esp,%edi
     b9b:	3c 04                	cmp    $0x4,%al
     b9d:	00 00                	add    %al,(%eax)
     b9f:	02 91 00 19 65 62    	add    0x62651900(%ecx),%dl
     ba5:	78 00                	js     ba7 <gdt_len+0x397>
     ba7:	01 e7                	add    %esp,%edi
     ba9:	3c 04                	cmp    $0x4,%al
     bab:	00 00                	add    %al,(%eax)
     bad:	02 91 04 19 65 63    	add    0x63651904(%ecx),%dl
     bb3:	78 00                	js     bb5 <gdt_len+0x3a5>
     bb5:	01 e7                	add    %esp,%edi
     bb7:	3c 04                	cmp    $0x4,%al
     bb9:	00 00                	add    %al,(%eax)
     bbb:	02 91 08 19 65 64    	add    0x64651908(%ecx),%dl
     bc1:	78 00                	js     bc3 <gdt_len+0x3b3>
     bc3:	01 e7                	add    %esp,%edi
     bc5:	3c 04                	cmp    $0x4,%al
     bc7:	00 00                	add    %al,(%eax)
     bc9:	02 91 0c 12 8c 42    	add    0x428c120c(%ecx),%dl
     bcf:	10 00                	adc    %al,(%eax)
     bd1:	dc 42 10             	faddl  0x10(%edx)
     bd4:	00 16                	add    %dl,(%esi)
     bd6:	8c 02                	mov    %es,(%edx)
     bd8:	00 00                	add    %al,(%eax)
     bda:	01 ea                	add    %ebp,%edx
     bdc:	d2 00                	rolb   %cl,(%eax)
     bde:	00 00                	add    %al,(%eax)
     be0:	02 91 76 00 00 0a    	add    0xa000076(%ecx),%dl
     be6:	d5 03                	aad    $0x3
     be8:	00 00                	add    %al,(%eax)
     bea:	f5                   	cmc    
     beb:	0b 00                	or     (%eax),%eax
     bed:	00 0b                	add    %cl,(%ebx)
     bef:	4c                   	dec    %esp
     bf0:	02 00                	add    (%eax),%al
     bf2:	00 07                	add    %al,(%edi)
     bf4:	00 1a                	add    %bl,(%edx)
     bf6:	1e                   	push   %ds
     bf7:	00 00                	add    %al,(%eax)
     bf9:	00 02                	add    %al,(%edx)
     bfb:	b4 e5                	mov    $0xe5,%ah
     bfd:	0b 00                	or     (%eax),%eax
     bff:	00 01                	add    %al,(%ecx)
     c01:	01 0a                	add    %ecx,(%edx)
     c03:	53                   	push   %ebx
     c04:	02 00                	add    (%eax),%al
     c06:	00 12                	add    %dl,(%edx)
     c08:	0c 00                	or     $0x0,%al
     c0a:	00 0b                	add    %cl,(%ebx)
     c0c:	4c                   	dec    %esp
     c0d:	02 00                	add    (%eax),%al
     c0f:	00 fe                	add    %bh,%dh
     c11:	00 1b                	add    %bl,(%ebx)
     c13:	69 64 74 00 02 b5 02 	imul   $0xc02b502,0x0(%esp,%esi,2),%esp
     c1a:	0c 
     c1b:	00 00                	add    %al,(%eax)
     c1d:	01 01                	add    %eax,(%ecx)
     c1f:	1a 5a 00             	sbb    0x0(%edx),%bl
     c22:	00 00                	add    %al,(%eax)
     c24:	03 3c 2c             	add    (%esp,%ebp,1),%edi
     c27:	0c 00                	or     $0x0,%al
     c29:	00 01                	add    %al,(%ecx)
     c2b:	01 06                	add    %eax,(%esi)
     c2d:	08 07                	or     %al,(%edi)
     c2f:	0f 01 00             	sgdtl  (%eax)
     c32:	00 0a                	add    %cl,(%edx)
     c34:	4c                   	dec    %esp
     c35:	02 00                	add    (%eax),%al
     c37:	00 43 0c             	add    %al,0xc(%ebx)
     c3a:	00 00                	add    %al,(%eax)
     c3c:	0b 4c 02 00          	or     0x0(%edx,%eax,1),%ecx
     c40:	00 fe                	add    %bh,%dh
     c42:	00 1a                	add    %bl,(%edx)
     c44:	88 01                	mov    %al,(%ecx)
     c46:	00 00                	add    %al,(%eax)
     c48:	01 3a                	add    %edi,(%edx)
     c4a:	33 0c 00             	xor    (%eax,%eax,1),%ecx
     c4d:	00 01                	add    %al,(%ecx)
     c4f:	01 1a                	add    %ebx,(%edx)
     c51:	7b 00                	jnp    c53 <gdt_len+0x443>
     c53:	00 00                	add    %al,(%eax)
     c55:	01 65 3c             	add    %esp,0x3c(%ebp)
     c58:	04 00                	add    $0x0,%al
     c5a:	00 01                	add    %al,(%ecx)
     c5c:	01 0a                	add    %ecx,(%edx)
     c5e:	27                   	daa    
     c5f:	05 00 00 6e 0c       	add    $0xc6e0000,%eax
     c64:	00 00                	add    %al,(%eax)
     c66:	0c 4c                	or     $0x4c,%al
     c68:	02 00                	add    (%eax),%al
     c6a:	00 ff                	add    %bh,%bh
     c6c:	03 00                	add    (%eax),%eax
     c6e:	1a 00                	sbb    (%eax),%al
     c70:	00 00                	add    %al,(%eax)
     c72:	00 01                	add    %al,(%ecx)
     c74:	dd 5d 0c             	fstpl  0xc(%ebp)
     c77:	00 00                	add    %al,(%eax)
     c79:	01 01                	add    %eax,(%ecx)
     c7b:	1a 1e                	sbb    (%esi),%bl
     c7d:	00 00                	add    %al,(%eax)
     c7f:	00 02                	add    %al,(%edx)
     c81:	b4 e5                	mov    $0xe5,%ah
     c83:	0b 00                	or     (%eax),%eax
     c85:	00 01                	add    %al,(%ecx)
     c87:	01 1b                	add    %ebx,(%ebx)
     c89:	69 64 74 00 02 b5 02 	imul   $0xc02b502,0x0(%esp,%esi,2),%esp
     c90:	0c 
     c91:	00 00                	add    %al,(%eax)
     c93:	01 01                	add    %eax,(%ecx)
     c95:	0a ec                	or     %ah,%ch
     c97:	02 00                	add    (%eax),%al
     c99:	00 a5 0c 00 00 0b    	add    %ah,0xb00000c(%ebp)
     c9f:	4c                   	dec    %esp
     ca0:	02 00                	add    (%eax),%al
     ca2:	00 7f 00             	add    %bh,0x0(%edi)
     ca5:	1c 16                	sbb    $0x16,%al
     ca7:	00 00                	add    %al,(%eax)
     ca9:	00 02                	add    %al,(%edx)
     cab:	cd 95                	int    $0x95
     cad:	0c 00                	or     $0x0,%al
     caf:	00 01                	add    %al,(%ecx)
     cb1:	05 03 80 b9 10       	add    $0x10b98003,%eax
     cb6:	00 1c 74             	add    %bl,(%esp,%esi,2)
     cb9:	04 00                	add    $0x0,%al
     cbb:	00 03                	add    %al,(%ebx)
     cbd:	38 dc                	cmp    %bl,%ah
     cbf:	03 00                	add    (%eax),%eax
     cc1:	00 01                	add    %al,(%ecx)
     cc3:	05 03 80 11 15       	add    $0x15118003,%eax
     cc8:	00 1c 5a             	add    %bl,(%edx,%ebx,2)
     ccb:	00 00                	add    %al,(%eax)
     ccd:	00 01                	add    %al,(%ecx)
     ccf:	08 2c 0c             	or     %ch,(%esp,%ecx,1)
     cd2:	00 00                	add    %al,(%eax)
     cd4:	01 05 03 20 75 10    	add    %eax,0x10752003
     cda:	00 1c 88             	add    %bl,(%eax,%ecx,4)
     cdd:	01 00                	add    %eax,(%eax)
     cdf:	00 01                	add    %al,(%ecx)
     ce1:	3a 33                	cmp    (%ebx),%dh
     ce3:	0c 00                	or     $0x0,%al
     ce5:	00 01                	add    %al,(%ecx)
     ce7:	05 03 a0 6a 10       	add    $0x106aa003,%eax
     cec:	00 1c 7b             	add    %bl,(%ebx,%edi,2)
     cef:	00 00                	add    %al,(%eax)
     cf1:	00 01                	add    %al,(%ecx)
     cf3:	65                   	gs
     cf4:	3c 04                	cmp    $0x4,%al
     cf6:	00 00                	add    %al,(%eax)
     cf8:	01 05 03 28 75 10    	add    %eax,0x10752803
     cfe:	00 1c 00             	add    %bl,(%eax,%eax,1)
     d01:	00 00                	add    %al,(%eax)
     d03:	00 01                	add    %al,(%ecx)
     d05:	dd 5d 0c             	fstpl  0xc(%ebp)
     d08:	00 00                	add    %al,(%eax)
     d0a:	01 05 03 a0 11 15    	add    %eax,0x1511a003
     d10:	00 00                	add    %al,(%eax)
     d12:	f3 04 00             	repz add $0x0,%al
     d15:	00 02                	add    %al,(%edx)
     d17:	00 9d 01 00 00 04    	add    %bl,0x4000001(%ebp)
     d1d:	01 45 02             	add    %eax,0x2(%ebp)
     d20:	00 00                	add    %al,(%eax)
     d22:	01 f5                	add    %esi,%ebp
     d24:	02 00                	add    (%eax),%al
     d26:	00 f9                	add    %bh,%cl
     d28:	01 00                	add    %eax,(%eax)
     d2a:	00 e0                	add    %ah,%al
     d2c:	42                   	inc    %edx
     d2d:	10 00                	adc    %al,(%eax)
     d2f:	36                   	ss
     d30:	44                   	inc    %esp
     d31:	10 00                	adc    %al,(%eax)
     d33:	ef                   	out    %eax,(%dx)
     d34:	01 00                	add    %eax,(%eax)
     d36:	00 02                	add    %al,(%edx)
     d38:	da 02                	fiaddl (%edx)
     d3a:	00 00                	add    %al,(%eax)
     d3c:	08 02                	or     %al,(%edx)
     d3e:	5c                   	pop    %esp
     d3f:	d2 00                	rolb   %cl,(%eax)
     d41:	00 00                	add    %al,(%eax)
     d43:	03 b2 00 00 00 02    	add    0x2000000(%edx),%esi
     d49:	5d                   	pop    %ebp
     d4a:	d2 00                	rolb   %cl,(%eax)
     d4c:	00 00                	add    %al,(%eax)
     d4e:	02 23                	add    (%ebx),%ah
     d50:	00 03                	add    %al,(%ebx)
     d52:	a5                   	movsl  %ds:(%esi),%es:(%edi)
     d53:	01 00                	add    %eax,(%eax)
     d55:	00 02                	add    %al,(%edx)
     d57:	5e                   	pop    %esi
     d58:	d2 00                	rolb   %cl,(%eax)
     d5a:	00 00                	add    %al,(%eax)
     d5c:	02 23                	add    (%ebx),%ah
     d5e:	02 04 ac             	add    (%esp,%ebp,4),%al
     d61:	01 00                	add    %eax,(%eax)
     d63:	00 02                	add    %al,(%edx)
     d65:	5f                   	pop    %edi
     d66:	d2 00                	rolb   %cl,(%eax)
     d68:	00 00                	add    %al,(%eax)
     d6a:	02 08                	add    (%eax),%cl
     d6c:	08 02                	or     %al,(%edx)
     d6e:	23 04 04             	and    (%esp,%eax,1),%eax
     d71:	83 01 00             	addl   $0x0,(%ecx)
     d74:	00 02                	add    %al,(%edx)
     d76:	60                   	pusha  
     d77:	d2 00                	rolb   %cl,(%eax)
     d79:	00 00                	add    %al,(%eax)
     d7b:	02 04 04             	add    (%esp,%eax,1),%al
     d7e:	02 23                	add    (%ebx),%ah
     d80:	04 05                	add    $0x5,%al
     d82:	73 00                	jae    d84 <gdt_len+0x574>
     d84:	02 61 d2             	add    -0x2e(%ecx),%ah
     d87:	00 00                	add    %al,(%eax)
     d89:	00 02                	add    %al,(%edx)
     d8b:	01 03                	add    %eax,(%ebx)
     d8d:	02 23                	add    (%ebx),%ah
     d8f:	04 05                	add    $0x5,%al
     d91:	64                   	fs
     d92:	70 6c                	jo     e00 <gdt_len+0x5f0>
     d94:	00 02                	add    %al,(%edx)
     d96:	62                   	(bad)  
     d97:	d2 00                	rolb   %cl,(%eax)
     d99:	00 00                	add    %al,(%eax)
     d9b:	02 02                	add    (%edx),%al
     d9d:	01 02                	add    %eax,(%edx)
     d9f:	23 04 05 70 00 02 63 	and    0x63020070(,%eax,1),%eax
     da6:	d2 00                	rolb   %cl,(%eax)
     da8:	00 00                	add    %al,(%eax)
     daa:	02 01                	add    (%ecx),%al
     dac:	00 02                	add    %al,(%edx)
     dae:	23 04 04             	and    (%esp,%eax,1),%eax
     db1:	aa                   	stos   %al,%es:(%edi)
     db2:	00 00                	add    %al,(%eax)
     db4:	00 02                	add    %al,(%edx)
     db6:	64 d2 00             	rolb   %cl,%fs:(%eax)
     db9:	00 00                	add    %al,(%eax)
     dbb:	02 04 0c             	add    (%esp,%ecx,1),%al
     dbe:	02 23                	add    (%ebx),%ah
     dc0:	06                   	push   %es
     dc1:	04 c6                	add    $0xc6,%al
     dc3:	02 00                	add    (%eax),%al
     dc5:	00 02                	add    %al,(%edx)
     dc7:	65 d2 00             	rolb   %cl,%gs:(%eax)
     dca:	00 00                	add    %al,(%eax)
     dcc:	02 04 08             	add    (%eax,%ecx,1),%al
     dcf:	02 23                	add    (%ebx),%ah
     dd1:	06                   	push   %es
     dd2:	04 91                	add    $0x91,%al
     dd4:	01 00                	add    %eax,(%eax)
     dd6:	00 02                	add    %al,(%edx)
     dd8:	66                   	data16
     dd9:	d2 00                	rolb   %cl,(%eax)
     ddb:	00 00                	add    %al,(%eax)
     ddd:	02 08                	add    (%eax),%cl
     ddf:	00 02                	add    %al,(%edx)
     de1:	23 06                	and    (%esi),%eax
     de3:	00 06                	add    %al,(%esi)
     de5:	02 07                	add    (%edi),%al
     de7:	be 01 00 00 07       	mov    $0x7000001,%esi
     dec:	74 73                	je     e61 <gdt_len+0x651>
     dee:	73 00                	jae    df0 <gdt_len+0x5e0>
     df0:	68 02 99 4c 02       	push   $0x24c9902
     df5:	00 00                	add    %al,(%eax)
     df7:	03 2f                	add    (%edi),%ebp
     df9:	00 00                	add    %al,(%eax)
     dfb:	00 02                	add    %al,(%edx)
     dfd:	9a 4c 02 00 00 02 23 	lcall  $0x2302,$0x24c
     e04:	00 03                	add    %al,(%ebx)
     e06:	d9 01                	flds   (%ecx)
     e08:	00 00                	add    %al,(%eax)
     e0a:	02 9b 4c 02 00 00    	add    0x24c(%ebx),%bl
     e10:	02 23                	add    (%ebx),%ah
     e12:	04 08                	add    $0x8,%al
     e14:	73 73                	jae    e89 <gdt_len+0x679>
     e16:	30 00                	xor    %al,(%eax)
     e18:	02 9b 4c 02 00 00    	add    0x24c(%ebx),%bl
     e1e:	02 23                	add    (%ebx),%ah
     e20:	08 03                	or     %al,(%ebx)
     e22:	de 01                	fiadd  (%ecx)
     e24:	00 00                	add    %al,(%eax)
     e26:	02 9b 4c 02 00 00    	add    0x24c(%ebx),%bl
     e2c:	02 23                	add    (%ebx),%ah
     e2e:	0c 08                	or     $0x8,%al
     e30:	73 73                	jae    ea5 <gdt_len+0x695>
     e32:	31 00                	xor    %eax,(%eax)
     e34:	02 9b 4c 02 00 00    	add    0x24c(%ebx),%bl
     e3a:	02 23                	add    (%ebx),%ah
     e3c:	10 03                	adc    %al,(%ebx)
     e3e:	e3 01                	jecxz  e41 <gdt_len+0x631>
     e40:	00 00                	add    %al,(%eax)
     e42:	02 9b 4c 02 00 00    	add    0x24c(%ebx),%bl
     e48:	02 23                	add    (%ebx),%ah
     e4a:	14 08                	adc    $0x8,%al
     e4c:	73 73                	jae    ec1 <gdt_len+0x6b1>
     e4e:	32 00                	xor    (%eax),%al
     e50:	02 9b 4c 02 00 00    	add    0x24c(%ebx),%bl
     e56:	02 23                	add    (%ebx),%ah
     e58:	18 08                	sbb    %cl,(%eax)
     e5a:	63 72 33             	arpl   %si,0x33(%edx)
     e5d:	00 02                	add    %al,(%edx)
     e5f:	9c                   	pushf  
     e60:	4c                   	dec    %esp
     e61:	02 00                	add    (%eax),%al
     e63:	00 02                	add    %al,(%edx)
     e65:	23 1c 08             	and    (%eax,%ecx,1),%ebx
     e68:	65 69 70 00 02 9c 4c 	imul   $0x24c9c02,%gs:0x0(%eax),%esi
     e6f:	02 
     e70:	00 00                	add    %al,(%eax)
     e72:	02 23                	add    (%ebx),%ah
     e74:	20 03                	and    %al,(%ebx)
     e76:	53                   	push   %ebx
     e77:	00 00                	add    %al,(%eax)
     e79:	00 02                	add    %al,(%edx)
     e7b:	9c                   	pushf  
     e7c:	4c                   	dec    %esp
     e7d:	02 00                	add    (%eax),%al
     e7f:	00 02                	add    %al,(%edx)
     e81:	23 24 08             	and    (%eax,%ecx,1),%esp
     e84:	65                   	gs
     e85:	61                   	popa   
     e86:	78 00                	js     e88 <gdt_len+0x678>
     e88:	02 9c 4c 02 00 00 02 	add    0x2000002(%esp,%ecx,2),%bl
     e8f:	23 28                	and    (%eax),%ebp
     e91:	08 65 63             	or     %ah,0x63(%ebp)
     e94:	78 00                	js     e96 <gdt_len+0x686>
     e96:	02 9c 4c 02 00 00 02 	add    0x2000002(%esp,%ecx,2),%bl
     e9d:	23 2c 08             	and    (%eax,%ecx,1),%ebp
     ea0:	65                   	gs
     ea1:	64                   	fs
     ea2:	78 00                	js     ea4 <gdt_len+0x694>
     ea4:	02 9c 4c 02 00 00 02 	add    0x2000002(%esp,%ecx,2),%bl
     eab:	23 30                	and    (%eax),%esi
     ead:	08 65 62             	or     %ah,0x62(%ebp)
     eb0:	78 00                	js     eb2 <gdt_len+0x6a2>
     eb2:	02 9c 4c 02 00 00 02 	add    0x2000002(%esp,%ecx,2),%bl
     eb9:	23 34 08             	and    (%eax,%ecx,1),%esi
     ebc:	65                   	gs
     ebd:	73 70                	jae    f2f <gdt_len+0x71f>
     ebf:	00 02                	add    %al,(%edx)
     ec1:	9c                   	pushf  
     ec2:	4c                   	dec    %esp
     ec3:	02 00                	add    (%eax),%al
     ec5:	00 02                	add    %al,(%edx)
     ec7:	23 38                	and    (%eax),%edi
     ec9:	08 65 62             	or     %ah,0x62(%ebp)
     ecc:	70 00                	jo     ece <gdt_len+0x6be>
     ece:	02 9c 4c 02 00 00 02 	add    0x2000002(%esp,%ecx,2),%bl
     ed5:	23 3c 08             	and    (%eax,%ecx,1),%edi
     ed8:	65                   	gs
     ed9:	73 69                	jae    f44 <gdt_len+0x734>
     edb:	00 02                	add    %al,(%edx)
     edd:	9c                   	pushf  
     ede:	4c                   	dec    %esp
     edf:	02 00                	add    (%eax),%al
     ee1:	00 02                	add    %al,(%edx)
     ee3:	23 40 08             	and    0x8(%eax),%eax
     ee6:	65 64 69 00 02 9c 4c 	gs imul $0x24c9c02,%fs:%gs:(%eax),%eax
     eed:	02 
     eee:	00 00                	add    %al,(%eax)
     ef0:	02 23                	add    (%ebx),%ah
     ef2:	44                   	inc    %esp
     ef3:	08 65 73             	or     %ah,0x73(%ebp)
     ef6:	00 02                	add    %al,(%edx)
     ef8:	9d                   	popf   
     ef9:	4c                   	dec    %esp
     efa:	02 00                	add    (%eax),%al
     efc:	00 02                	add    %al,(%edx)
     efe:	23 48 08             	and    0x8(%eax),%ecx
     f01:	63 73 00             	arpl   %si,0x0(%ebx)
     f04:	02 9d 4c 02 00 00    	add    0x24c(%ebp),%bl
     f0a:	02 23                	add    (%ebx),%ah
     f0c:	4c                   	dec    %esp
     f0d:	08 73 73             	or     %dh,0x73(%ebx)
     f10:	00 02                	add    %al,(%edx)
     f12:	9d                   	popf   
     f13:	4c                   	dec    %esp
     f14:	02 00                	add    (%eax),%al
     f16:	00 02                	add    %al,(%edx)
     f18:	23 50 08             	and    0x8(%eax),%edx
     f1b:	64                   	fs
     f1c:	73 00                	jae    f1e <gdt_len+0x70e>
     f1e:	02 9d 4c 02 00 00    	add    0x24c(%ebp),%bl
     f24:	02 23                	add    (%ebx),%ah
     f26:	54                   	push   %esp
     f27:	08 66 73             	or     %ah,0x73(%esi)
     f2a:	00 02                	add    %al,(%edx)
     f2c:	9d                   	popf   
     f2d:	4c                   	dec    %esp
     f2e:	02 00                	add    (%eax),%al
     f30:	00 02                	add    %al,(%edx)
     f32:	23 58 08             	and    0x8(%eax),%ebx
     f35:	67 73 00             	addr16 jae f38 <gdt_len+0x728>
     f38:	02 9d 4c 02 00 00    	add    0x24c(%ebp),%bl
     f3e:	02 23                	add    (%ebx),%ah
     f40:	5c                   	pop    %esp
     f41:	08 6c 64 74          	or     %ch,0x74(%esp,%eiz,2)
     f45:	00 02                	add    %al,(%edx)
     f47:	9d                   	popf   
     f48:	4c                   	dec    %esp
     f49:	02 00                	add    (%eax),%al
     f4b:	00 02                	add    %al,(%edx)
     f4d:	23 60 03             	and    0x3(%eax),%esp
     f50:	51                   	push   %ecx
     f51:	02 00                	add    (%eax),%al
     f53:	00 02                	add    %al,(%edx)
     f55:	9d                   	popf   
     f56:	4c                   	dec    %esp
     f57:	02 00                	add    (%eax),%al
     f59:	00 02                	add    %al,(%edx)
     f5b:	23 64 00 06          	and    0x6(%eax,%eax,1),%esp
     f5f:	04 07                	add    $0x7,%al
     f61:	19 01                	sbb    %eax,(%ecx)
     f63:	00 00                	add    %al,(%eax)
     f65:	09 81 00 00 00 b0    	or     %eax,-0x50000000(%ecx)
     f6b:	08 02                	or     %al,(%edx)
     f6d:	b8 1b 03 00 00       	mov    $0x31b,%eax
     f72:	08 70 69             	or     %dh,0x69(%eax)
     f75:	64 00 02             	add    %al,%fs:(%edx)
     f78:	b9 4c 02 00 00       	mov    $0x24c,%ecx
     f7d:	02 23                	add    (%ebx),%ah
     f7f:	00 03                	add    %al,(%ebx)
     f81:	54                   	push   %esp
     f82:	01 00                	add    %eax,(%eax)
     f84:	00 02                	add    %al,(%edx)
     f86:	ba 4c 02 00 00       	mov    $0x24c,%edx
     f8b:	02 23                	add    (%ebx),%ah
     f8d:	04 03                	add    $0x3,%al
     f8f:	36 00 00             	add    %al,%ss:(%eax)
     f92:	00 02                	add    %al,(%edx)
     f94:	bb 4c 02 00 00       	mov    $0x24c,%ebx
     f99:	02 23                	add    (%ebx),%ah
     f9b:	08 03                	or     %al,(%ebx)
     f9d:	b3 01                	mov    $0x1,%bl
     f9f:	00 00                	add    %al,(%eax)
     fa1:	02 bc 4c 02 00 00 02 	add    0x2000002(%esp,%ecx,2),%bh
     fa8:	23 0c 03             	and    (%ebx,%eax,1),%ecx
     fab:	ba 00 00 00 02       	mov    $0x2000000,%edx
     fb0:	bd 4c 02 00 00       	mov    $0x24c,%ebp
     fb5:	02 23                	add    (%ebx),%ah
     fb7:	10 03                	adc    %al,(%ebx)
     fb9:	26 00 00             	add    %al,%es:(%eax)
     fbc:	00 02                	add    %al,(%edx)
     fbe:	be 4c 02 00 00       	mov    $0x24c,%esi
     fc3:	02 23                	add    (%ebx),%ah
     fc5:	14 03                	adc    $0x3,%al
     fc7:	e8 01 00 00 02       	call   2000fcd <_end+0x1eaf4a1>
     fcc:	bf 4c 02 00 00       	mov    $0x24c,%edi
     fd1:	02 23                	add    (%ebx),%ah
     fd3:	18 03                	sbb    %al,(%ebx)
     fd5:	60                   	pusha  
     fd6:	00 00                	add    %al,(%eax)
     fd8:	00 02                	add    %al,(%edx)
     fda:	c0 d2 00             	rcl    $0x0,%dl
     fdd:	00 00                	add    %al,(%eax)
     fdf:	02 23                	add    (%ebx),%ah
     fe1:	1c 08                	sbb    $0x8,%al
     fe3:	74 73                	je     1058 <gdt_len+0x848>
     fe5:	73 00                	jae    fe7 <gdt_len+0x7d7>
     fe7:	02 c1                	add    %cl,%al
     fe9:	d9 00                	flds   (%eax)
     feb:	00 00                	add    %al,(%eax)
     fed:	02 23                	add    (%ebx),%ah
     fef:	20 03                	and    %al,(%ebx)
     ff1:	b9 02 00 00 02       	mov    $0x2000002,%ecx
     ff6:	c2 d2 00             	ret    $0xd2
     ff9:	00 00                	add    %al,(%eax)
     ffb:	03 23                	add    (%ebx),%esp
     ffd:	88 01                	mov    %al,(%ecx)
     fff:	08 6c 64 74          	or     %ch,0x74(%esp,%eiz,2)
    1003:	00 02                	add    %al,(%edx)
    1005:	c3                   	ret    
    1006:	1b 03                	sbb    (%ebx),%eax
    1008:	00 00                	add    %al,(%eax)
    100a:	03 23                	add    (%ebx),%esp
    100c:	90                   	nop
    100d:	01 03                	add    %eax,(%ebx)
    100f:	46                   	inc    %esi
    1010:	00 00                	add    %al,(%eax)
    1012:	00 02                	add    %al,(%edx)
    1014:	c4 2b                	les    (%ebx),%ebp
    1016:	03 00                	add    (%eax),%eax
    1018:	00 03                	add    %al,(%ebx)
    101a:	23 b0 01 03 3a 02    	and    0x23a0301(%eax),%esi
    1020:	00 00                	add    %al,(%eax)
    1022:	02 c5                	add    %ch,%al
    1024:	2b 03                	sub    (%ebx),%eax
    1026:	00 00                	add    %al,(%eax)
    1028:	03 23                	add    (%ebx),%esp
    102a:	b0 09                	mov    $0x9,%al
    102c:	00 0a                	add    %cl,(%edx)
    102e:	25 00 00 00 2b       	and    $0x2b000000,%eax
    1033:	03 00                	add    (%eax),%eax
    1035:	00 0b                	add    %cl,(%ebx)
    1037:	4c                   	dec    %esp
    1038:	02 00                	add    (%eax),%al
    103a:	00 03                	add    %al,(%ebx)
    103c:	00 0a                	add    %cl,(%edx)
    103e:	3c 03                	cmp    $0x3,%al
    1040:	00 00                	add    %al,(%eax)
    1042:	3c 03                	cmp    $0x3,%al
    1044:	00 00                	add    %al,(%eax)
    1046:	0c 4c                	or     $0x4c,%al
    1048:	02 00                	add    (%eax),%al
    104a:	00 ff                	add    %bh,%bh
    104c:	03 00                	add    (%eax),%eax
    104e:	06                   	push   %es
    104f:	01 08                	add    %ecx,(%eax)
    1051:	46                   	inc    %esi
    1052:	01 00                	add    %eax,(%eax)
    1054:	00 07                	add    %al,(%edi)
    1056:	74 6d                	je     10c5 <gdt_len+0x8b5>
    1058:	00 18                	add    %bl,(%eax)
    105a:	03 15 a3 03 00 00    	add    0x3a3,%edx
    1060:	03 9c 02 00 00 03 16 	add    0x16030000(%edx,%eax,1),%ebx
    1067:	a3 03 00 00 02       	mov    %eax,0x2000003
    106c:	23 00                	and    (%eax),%eax
    106e:	03 33                	add    (%ebx),%esi
    1070:	02 00                	add    (%eax),%al
    1072:	00 03                	add    %al,(%ebx)
    1074:	16                   	push   %ss
    1075:	a3 03 00 00 02       	mov    %eax,0x2000003
    107a:	23 04 03             	and    (%ebx,%eax,1),%eax
    107d:	00 01                	add    %al,(%ecx)
    107f:	00 00                	add    %al,(%eax)
    1081:	03 16                	add    (%esi),%edx
    1083:	a3 03 00 00 02       	mov    %eax,0x2000003
    1088:	23 08                	and    (%eax),%ecx
    108a:	03 72 01             	add    0x1(%edx),%esi
    108d:	00 00                	add    %al,(%eax)
    108f:	03 16                	add    (%esi),%edx
    1091:	a3 03 00 00 02       	mov    %eax,0x2000003
    1096:	23 0c 03             	and    (%ebx,%eax,1),%ecx
    1099:	08 01                	or     %al,(%ecx)
    109b:	00 00                	add    %al,(%eax)
    109d:	03 16                	add    (%esi),%edx
    109f:	a3 03 00 00 02       	mov    %eax,0x2000003
    10a4:	23 10                	and    (%eax),%edx
    10a6:	03 d1                	add    %ecx,%edx
    10a8:	01 00                	add    %eax,(%eax)
    10aa:	00 03                	add    %al,(%ebx)
    10ac:	16                   	push   %ss
    10ad:	a3 03 00 00 02       	mov    %eax,0x2000003
    10b2:	23 14 00             	and    (%eax,%eax,1),%edx
    10b5:	0d 04 05 69 6e       	or     $0x6e690504,%eax
    10ba:	74 00                	je     10bc <gdt_len+0x8ac>
    10bc:	0e                   	push   %cs
    10bd:	01 32                	add    %esi,(%edx)
    10bf:	03 00                	add    (%eax),%eax
    10c1:	00 01                	add    %al,(%ecx)
    10c3:	0e                   	push   %cs
    10c4:	e0 42                	loopne 1108 <gdt_len+0x8f8>
    10c6:	10 00                	adc    %al,(%eax)
    10c8:	40                   	inc    %eax
    10c9:	43                   	inc    %ebx
    10ca:	10 00                	adc    %al,(%eax)
    10cc:	08 05 00 00 f8 03    	or     %al,0x3f80000
    10d2:	00 00                	add    %al,(%eax)
    10d4:	0f 01 7a 01          	invlpg 0x1(%edx)
    10d8:	00 00                	add    %al,(%eax)
    10da:	01 11                	add    %edx,(%ecx)
    10dc:	a3 03 00 00 01       	mov    %eax,0x1000003
    10e1:	d5 03                	aad    $0x3
    10e3:	00 00                	add    %al,(%eax)
    10e5:	10 00                	adc    %al,(%eax)
    10e7:	0f 01 15 03 00 00 01 	lgdtl  0x1000003
    10ee:	12 a3 03 00 00 01    	adc    0x1000003(%ebx),%ah
    10f4:	e8 03 00 00 10       	call   100010fc <_end+0xfeaf5d0>
    10f9:	00 11                	add    %dl,(%ecx)
    10fb:	01 e5                	add    %esp,%ebp
    10fd:	02 00                	add    (%eax),%al
    10ff:	00 01                	add    %al,(%ecx)
    1101:	13 a3 03 00 00 01    	adc    0x1000003(%ebx),%esp
    1107:	10 00                	adc    %al,(%eax)
    1109:	00 12                	add    %dl,(%edx)
    110b:	01 0f                	add    %ecx,(%edi)
    110d:	03 00                	add    (%eax),%eax
    110f:	00 01                	add    %al,(%ecx)
    1111:	29 40 43             	sub    %eax,0x43(%eax)
    1114:	10 00                	adc    %al,(%eax)
    1116:	80 43 10 00          	addb   $0x0,0x10(%ebx)
    111a:	40                   	inc    %eax
    111b:	05 00 00 12 01       	add    $0x1120000,%eax
    1120:	2c 03                	sub    $0x3,%al
    1122:	00 00                	add    %al,(%eax)
    1124:	01 36                	add    %esi,(%esi)
    1126:	80 43 10 00          	addb   $0x0,0x10(%ebx)
    112a:	b7 43                	mov    $0x43,%bh
    112c:	10 00                	adc    %al,(%eax)
    112e:	6c                   	insb   (%dx),%es:(%edi)
    112f:	05 00 00 12 01       	add    $0x1120000,%eax
    1134:	1f                   	pop    %ds
    1135:	03 00                	add    (%eax),%eax
    1137:	00 01                	add    %al,(%ecx)
    1139:	3f                   	aas    
    113a:	b7 43                	mov    $0x43,%bh
    113c:	10 00                	adc    %al,(%eax)
    113e:	ee                   	out    %al,(%dx)
    113f:	43                   	inc    %ebx
    1140:	10 00                	adc    %al,(%eax)
    1142:	98                   	cwtl   
    1143:	05 00 00 0e 01       	add    $0x10e0000,%eax
    1148:	25 03 00 00 01       	and    $0x1000003,%eax
    114d:	48                   	dec    %eax
    114e:	ee                   	out    %al,(%dx)
    114f:	43                   	inc    %ebx
    1150:	10 00                	adc    %al,(%eax)
    1152:	36                   	ss
    1153:	44                   	inc    %esp
    1154:	10 00                	adc    %al,(%eax)
    1156:	c4 05 00 00 73 04    	les    0x4730000,%eax
    115c:	00 00                	add    %al,(%eax)
    115e:	13 03                	adc    (%ebx),%eax
    1160:	03 00                	add    (%eax),%eax
    1162:	00 01                	add    %al,(%ecx)
    1164:	4a                   	dec    %edx
    1165:	3c 03                	cmp    $0x3,%al
    1167:	00 00                	add    %al,(%eax)
    1169:	02 91 73 14 fb 43    	add    0x43fb1473(%ecx),%dl
    116f:	10 00                	adc    %al,(%eax)
    1171:	13 44 10 00          	adc    0x0(%eax,%edx,1),%eax
    1175:	13 f0                	adc    %eax,%esi
    1177:	02 00                	add    (%eax),%al
    1179:	00 01                	add    %al,(%ecx)
    117b:	4c                   	dec    %esp
    117c:	3c 03                	cmp    $0x3,%al
    117e:	00 00                	add    %al,(%eax)
    1180:	02 91 72 00 00 0a    	add    0xa000072(%ecx),%dl
    1186:	53                   	push   %ebx
    1187:	02 00                	add    (%eax),%al
    1189:	00 83 04 00 00 0b    	add    %al,0xb000004(%ebx)
    118f:	4c                   	dec    %esp
    1190:	02 00                	add    (%eax),%al
    1192:	00 7f 00             	add    %bh,0x0(%edi)
    1195:	15 16 00 00 00       	adc    $0x16,%eax
    119a:	02 cd                	add    %ch,%cl
    119c:	73 04                	jae    11a2 <gdt_len+0x992>
    119e:	00 00                	add    %al,(%eax)
    11a0:	01 01                	add    %eax,(%ecx)
    11a2:	16                   	push   %ss
    11a3:	70 6f                	jo     1214 <gdt_len+0xa04>
    11a5:	73 00                	jae    11a7 <gdt_len+0x997>
    11a7:	01 28                	add    %ebp,(%eax)
    11a9:	4c                   	dec    %esp
    11aa:	02 00                	add    (%eax),%al
    11ac:	00 01                	add    %al,(%ecx)
    11ae:	01 17                	add    %edx,(%edi)
    11b0:	16                   	push   %ss
    11b1:	00 00                	add    %al,(%eax)
    11b3:	00 02                	add    %al,(%edx)
    11b5:	cd 73                	int    $0x73
    11b7:	04 00                	add    $0x0,%al
    11b9:	00 01                	add    %al,(%ecx)
    11bb:	05 03 80 b9 10       	add    $0x10b98003,%eax
    11c0:	00 17                	add    %dl,(%edi)
    11c2:	74 04                	je     11c8 <gdt_len+0x9b8>
    11c4:	00 00                	add    %al,(%eax)
    11c6:	03 38                	add    (%eax),%edi
    11c8:	43                   	inc    %ebx
    11c9:	03 00                	add    (%eax),%eax
    11cb:	00 01                	add    %al,(%ecx)
    11cd:	05 03 80 11 15       	add    $0x15118003,%eax
    11d2:	00 0a                	add    %cl,(%edx)
    11d4:	d2 00                	rolb   %cl,(%eax)
    11d6:	00 00                	add    %al,(%eax)
    11d8:	d2 04 00             	rolb   %cl,(%eax,%eax,1)
    11db:	00 0c 4c             	add    %cl,(%esp,%ecx,2)
    11de:	02 00                	add    (%eax),%al
    11e0:	00 ff                	add    %bh,%bh
    11e2:	1f                   	pop    %ds
    11e3:	00 17                	add    %dl,(%edi)
    11e5:	08 03                	or     %al,(%ebx)
    11e7:	00 00                	add    %al,(%eax)
    11e9:	04 1f                	add    $0x1f,%al
    11eb:	c1 04 00 00          	roll   $0x0,(%eax,%eax,1)
    11ef:	01 05 03 40 75 10    	add    %eax,0x10754003
    11f5:	00 18                	add    %bl,(%eax)
    11f7:	70 6f                	jo     1268 <gdt_len+0xa58>
    11f9:	73 00                	jae    11fb <gdt_len+0x9eb>
    11fb:	01 28                	add    %ebp,(%eax)
    11fd:	4c                   	dec    %esp
    11fe:	02 00                	add    (%eax),%al
    1200:	00 01                	add    %al,(%ecx)
    1202:	05 03 9c 6e 10       	add    $0x106e9c03,%eax
    1207:	00 00                	add    %al,(%eax)
    1209:	4f                   	dec    %edi
    120a:	04 00                	add    $0x0,%al
    120c:	00 02                	add    %al,(%edx)
    120e:	00 04 03             	add    %al,(%ebx,%eax,1)
    1211:	00 00                	add    %al,(%eax)
    1213:	04 01                	add    $0x1,%al
    1215:	45                   	inc    %ebp
    1216:	02 00                	add    (%eax),%al
    1218:	00 01                	add    %al,(%ecx)
    121a:	47                   	inc    %edi
    121b:	03 00                	add    (%eax),%eax
    121d:	00 f9                	add    %bh,%cl
    121f:	01 00                	add    %eax,(%eax)
    1221:	00 38                	add    %bh,(%eax)
    1223:	44                   	inc    %esp
    1224:	10 00                	adc    %al,(%eax)
    1226:	ed                   	in     (%dx),%eax
    1227:	46                   	inc    %esi
    1228:	10 00                	adc    %al,(%eax)
    122a:	a4                   	movsb  %ds:(%esi),%es:(%edi)
    122b:	02 00                	add    (%eax),%al
    122d:	00 02                	add    %al,(%edx)
    122f:	da 02                	fiaddl (%edx)
    1231:	00 00                	add    %al,(%eax)
    1233:	08 02                	or     %al,(%edx)
    1235:	5c                   	pop    %esp
    1236:	d2 00                	rolb   %cl,(%eax)
    1238:	00 00                	add    %al,(%eax)
    123a:	03 b2 00 00 00 02    	add    0x2000000(%edx),%esi
    1240:	5d                   	pop    %ebp
    1241:	d2 00                	rolb   %cl,(%eax)
    1243:	00 00                	add    %al,(%eax)
    1245:	02 23                	add    (%ebx),%ah
    1247:	00 03                	add    %al,(%ebx)
    1249:	a5                   	movsl  %ds:(%esi),%es:(%edi)
    124a:	01 00                	add    %eax,(%eax)
    124c:	00 02                	add    %al,(%edx)
    124e:	5e                   	pop    %esi
    124f:	d2 00                	rolb   %cl,(%eax)
    1251:	00 00                	add    %al,(%eax)
    1253:	02 23                	add    (%ebx),%ah
    1255:	02 04 ac             	add    (%esp,%ebp,4),%al
    1258:	01 00                	add    %eax,(%eax)
    125a:	00 02                	add    %al,(%edx)
    125c:	5f                   	pop    %edi
    125d:	d2 00                	rolb   %cl,(%eax)
    125f:	00 00                	add    %al,(%eax)
    1261:	02 08                	add    (%eax),%cl
    1263:	08 02                	or     %al,(%edx)
    1265:	23 04 04             	and    (%esp,%eax,1),%eax
    1268:	83 01 00             	addl   $0x0,(%ecx)
    126b:	00 02                	add    %al,(%edx)
    126d:	60                   	pusha  
    126e:	d2 00                	rolb   %cl,(%eax)
    1270:	00 00                	add    %al,(%eax)
    1272:	02 04 04             	add    (%esp,%eax,1),%al
    1275:	02 23                	add    (%ebx),%ah
    1277:	04 05                	add    $0x5,%al
    1279:	73 00                	jae    127b <gdt_len+0xa6b>
    127b:	02 61 d2             	add    -0x2e(%ecx),%ah
    127e:	00 00                	add    %al,(%eax)
    1280:	00 02                	add    %al,(%edx)
    1282:	01 03                	add    %eax,(%ebx)
    1284:	02 23                	add    (%ebx),%ah
    1286:	04 05                	add    $0x5,%al
    1288:	64                   	fs
    1289:	70 6c                	jo     12f7 <gdt_len+0xae7>
    128b:	00 02                	add    %al,(%edx)
    128d:	62                   	(bad)  
    128e:	d2 00                	rolb   %cl,(%eax)
    1290:	00 00                	add    %al,(%eax)
    1292:	02 02                	add    (%edx),%al
    1294:	01 02                	add    %eax,(%edx)
    1296:	23 04 05 70 00 02 63 	and    0x63020070(,%eax,1),%eax
    129d:	d2 00                	rolb   %cl,(%eax)
    129f:	00 00                	add    %al,(%eax)
    12a1:	02 01                	add    (%ecx),%al
    12a3:	00 02                	add    %al,(%edx)
    12a5:	23 04 04             	and    (%esp,%eax,1),%eax
    12a8:	aa                   	stos   %al,%es:(%edi)
    12a9:	00 00                	add    %al,(%eax)
    12ab:	00 02                	add    %al,(%edx)
    12ad:	64 d2 00             	rolb   %cl,%fs:(%eax)
    12b0:	00 00                	add    %al,(%eax)
    12b2:	02 04 0c             	add    (%esp,%ecx,1),%al
    12b5:	02 23                	add    (%ebx),%ah
    12b7:	06                   	push   %es
    12b8:	04 c6                	add    $0xc6,%al
    12ba:	02 00                	add    (%eax),%al
    12bc:	00 02                	add    %al,(%edx)
    12be:	65 d2 00             	rolb   %cl,%gs:(%eax)
    12c1:	00 00                	add    %al,(%eax)
    12c3:	02 04 08             	add    (%eax,%ecx,1),%al
    12c6:	02 23                	add    (%ebx),%ah
    12c8:	06                   	push   %es
    12c9:	04 91                	add    $0x91,%al
    12cb:	01 00                	add    %eax,(%eax)
    12cd:	00 02                	add    %al,(%edx)
    12cf:	66                   	data16
    12d0:	d2 00                	rolb   %cl,(%eax)
    12d2:	00 00                	add    %al,(%eax)
    12d4:	02 08                	add    (%eax),%cl
    12d6:	00 02                	add    %al,(%edx)
    12d8:	23 06                	and    (%esi),%eax
    12da:	00 06                	add    %al,(%esi)
    12dc:	02 07                	add    (%edi),%al
    12de:	be 01 00 00 07       	mov    $0x7000001,%esi
    12e3:	74 73                	je     1358 <gdt_len+0xb48>
    12e5:	73 00                	jae    12e7 <gdt_len+0xad7>
    12e7:	68 02 99 4c 02       	push   $0x24c9902
    12ec:	00 00                	add    %al,(%eax)
    12ee:	03 2f                	add    (%edi),%ebp
    12f0:	00 00                	add    %al,(%eax)
    12f2:	00 02                	add    %al,(%edx)
    12f4:	9a 4c 02 00 00 02 23 	lcall  $0x2302,$0x24c
    12fb:	00 03                	add    %al,(%ebx)
    12fd:	d9 01                	flds   (%ecx)
    12ff:	00 00                	add    %al,(%eax)
    1301:	02 9b 4c 02 00 00    	add    0x24c(%ebx),%bl
    1307:	02 23                	add    (%ebx),%ah
    1309:	04 08                	add    $0x8,%al
    130b:	73 73                	jae    1380 <gdt_len+0xb70>
    130d:	30 00                	xor    %al,(%eax)
    130f:	02 9b 4c 02 00 00    	add    0x24c(%ebx),%bl
    1315:	02 23                	add    (%ebx),%ah
    1317:	08 03                	or     %al,(%ebx)
    1319:	de 01                	fiadd  (%ecx)
    131b:	00 00                	add    %al,(%eax)
    131d:	02 9b 4c 02 00 00    	add    0x24c(%ebx),%bl
    1323:	02 23                	add    (%ebx),%ah
    1325:	0c 08                	or     $0x8,%al
    1327:	73 73                	jae    139c <gdt_len+0xb8c>
    1329:	31 00                	xor    %eax,(%eax)
    132b:	02 9b 4c 02 00 00    	add    0x24c(%ebx),%bl
    1331:	02 23                	add    (%ebx),%ah
    1333:	10 03                	adc    %al,(%ebx)
    1335:	e3 01                	jecxz  1338 <gdt_len+0xb28>
    1337:	00 00                	add    %al,(%eax)
    1339:	02 9b 4c 02 00 00    	add    0x24c(%ebx),%bl
    133f:	02 23                	add    (%ebx),%ah
    1341:	14 08                	adc    $0x8,%al
    1343:	73 73                	jae    13b8 <gdt_len+0xba8>
    1345:	32 00                	xor    (%eax),%al
    1347:	02 9b 4c 02 00 00    	add    0x24c(%ebx),%bl
    134d:	02 23                	add    (%ebx),%ah
    134f:	18 08                	sbb    %cl,(%eax)
    1351:	63 72 33             	arpl   %si,0x33(%edx)
    1354:	00 02                	add    %al,(%edx)
    1356:	9c                   	pushf  
    1357:	4c                   	dec    %esp
    1358:	02 00                	add    (%eax),%al
    135a:	00 02                	add    %al,(%edx)
    135c:	23 1c 08             	and    (%eax,%ecx,1),%ebx
    135f:	65 69 70 00 02 9c 4c 	imul   $0x24c9c02,%gs:0x0(%eax),%esi
    1366:	02 
    1367:	00 00                	add    %al,(%eax)
    1369:	02 23                	add    (%ebx),%ah
    136b:	20 03                	and    %al,(%ebx)
    136d:	53                   	push   %ebx
    136e:	00 00                	add    %al,(%eax)
    1370:	00 02                	add    %al,(%edx)
    1372:	9c                   	pushf  
    1373:	4c                   	dec    %esp
    1374:	02 00                	add    (%eax),%al
    1376:	00 02                	add    %al,(%edx)
    1378:	23 24 08             	and    (%eax,%ecx,1),%esp
    137b:	65                   	gs
    137c:	61                   	popa   
    137d:	78 00                	js     137f <gdt_len+0xb6f>
    137f:	02 9c 4c 02 00 00 02 	add    0x2000002(%esp,%ecx,2),%bl
    1386:	23 28                	and    (%eax),%ebp
    1388:	08 65 63             	or     %ah,0x63(%ebp)
    138b:	78 00                	js     138d <gdt_len+0xb7d>
    138d:	02 9c 4c 02 00 00 02 	add    0x2000002(%esp,%ecx,2),%bl
    1394:	23 2c 08             	and    (%eax,%ecx,1),%ebp
    1397:	65                   	gs
    1398:	64                   	fs
    1399:	78 00                	js     139b <gdt_len+0xb8b>
    139b:	02 9c 4c 02 00 00 02 	add    0x2000002(%esp,%ecx,2),%bl
    13a2:	23 30                	and    (%eax),%esi
    13a4:	08 65 62             	or     %ah,0x62(%ebp)
    13a7:	78 00                	js     13a9 <gdt_len+0xb99>
    13a9:	02 9c 4c 02 00 00 02 	add    0x2000002(%esp,%ecx,2),%bl
    13b0:	23 34 08             	and    (%eax,%ecx,1),%esi
    13b3:	65                   	gs
    13b4:	73 70                	jae    1426 <gdt_len+0xc16>
    13b6:	00 02                	add    %al,(%edx)
    13b8:	9c                   	pushf  
    13b9:	4c                   	dec    %esp
    13ba:	02 00                	add    (%eax),%al
    13bc:	00 02                	add    %al,(%edx)
    13be:	23 38                	and    (%eax),%edi
    13c0:	08 65 62             	or     %ah,0x62(%ebp)
    13c3:	70 00                	jo     13c5 <gdt_len+0xbb5>
    13c5:	02 9c 4c 02 00 00 02 	add    0x2000002(%esp,%ecx,2),%bl
    13cc:	23 3c 08             	and    (%eax,%ecx,1),%edi
    13cf:	65                   	gs
    13d0:	73 69                	jae    143b <gdt_len+0xc2b>
    13d2:	00 02                	add    %al,(%edx)
    13d4:	9c                   	pushf  
    13d5:	4c                   	dec    %esp
    13d6:	02 00                	add    (%eax),%al
    13d8:	00 02                	add    %al,(%edx)
    13da:	23 40 08             	and    0x8(%eax),%eax
    13dd:	65 64 69 00 02 9c 4c 	gs imul $0x24c9c02,%fs:%gs:(%eax),%eax
    13e4:	02 
    13e5:	00 00                	add    %al,(%eax)
    13e7:	02 23                	add    (%ebx),%ah
    13e9:	44                   	inc    %esp
    13ea:	08 65 73             	or     %ah,0x73(%ebp)
    13ed:	00 02                	add    %al,(%edx)
    13ef:	9d                   	popf   
    13f0:	4c                   	dec    %esp
    13f1:	02 00                	add    (%eax),%al
    13f3:	00 02                	add    %al,(%edx)
    13f5:	23 48 08             	and    0x8(%eax),%ecx
    13f8:	63 73 00             	arpl   %si,0x0(%ebx)
    13fb:	02 9d 4c 02 00 00    	add    0x24c(%ebp),%bl
    1401:	02 23                	add    (%ebx),%ah
    1403:	4c                   	dec    %esp
    1404:	08 73 73             	or     %dh,0x73(%ebx)
    1407:	00 02                	add    %al,(%edx)
    1409:	9d                   	popf   
    140a:	4c                   	dec    %esp
    140b:	02 00                	add    (%eax),%al
    140d:	00 02                	add    %al,(%edx)
    140f:	23 50 08             	and    0x8(%eax),%edx
    1412:	64                   	fs
    1413:	73 00                	jae    1415 <gdt_len+0xc05>
    1415:	02 9d 4c 02 00 00    	add    0x24c(%ebp),%bl
    141b:	02 23                	add    (%ebx),%ah
    141d:	54                   	push   %esp
    141e:	08 66 73             	or     %ah,0x73(%esi)
    1421:	00 02                	add    %al,(%edx)
    1423:	9d                   	popf   
    1424:	4c                   	dec    %esp
    1425:	02 00                	add    (%eax),%al
    1427:	00 02                	add    %al,(%edx)
    1429:	23 58 08             	and    0x8(%eax),%ebx
    142c:	67 73 00             	addr16 jae 142f <gdt_len+0xc1f>
    142f:	02 9d 4c 02 00 00    	add    0x24c(%ebp),%bl
    1435:	02 23                	add    (%ebx),%ah
    1437:	5c                   	pop    %esp
    1438:	08 6c 64 74          	or     %ch,0x74(%esp,%eiz,2)
    143c:	00 02                	add    %al,(%edx)
    143e:	9d                   	popf   
    143f:	4c                   	dec    %esp
    1440:	02 00                	add    (%eax),%al
    1442:	00 02                	add    %al,(%edx)
    1444:	23 60 03             	and    0x3(%eax),%esp
    1447:	51                   	push   %ecx
    1448:	02 00                	add    (%eax),%al
    144a:	00 02                	add    %al,(%edx)
    144c:	9d                   	popf   
    144d:	4c                   	dec    %esp
    144e:	02 00                	add    (%eax),%al
    1450:	00 02                	add    %al,(%edx)
    1452:	23 64 00 06          	and    0x6(%eax,%eax,1),%esp
    1456:	04 07                	add    $0x7,%al
    1458:	19 01                	sbb    %eax,(%ecx)
    145a:	00 00                	add    %al,(%eax)
    145c:	09 81 00 00 00 b0    	or     %eax,-0x50000000(%ecx)
    1462:	08 02                	or     %al,(%edx)
    1464:	b8 1b 03 00 00       	mov    $0x31b,%eax
    1469:	08 70 69             	or     %dh,0x69(%eax)
    146c:	64 00 02             	add    %al,%fs:(%edx)
    146f:	b9 4c 02 00 00       	mov    $0x24c,%ecx
    1474:	02 23                	add    (%ebx),%ah
    1476:	00 03                	add    %al,(%ebx)
    1478:	54                   	push   %esp
    1479:	01 00                	add    %eax,(%eax)
    147b:	00 02                	add    %al,(%edx)
    147d:	ba 4c 02 00 00       	mov    $0x24c,%edx
    1482:	02 23                	add    (%ebx),%ah
    1484:	04 03                	add    $0x3,%al
    1486:	36 00 00             	add    %al,%ss:(%eax)
    1489:	00 02                	add    %al,(%edx)
    148b:	bb 4c 02 00 00       	mov    $0x24c,%ebx
    1490:	02 23                	add    (%ebx),%ah
    1492:	08 03                	or     %al,(%ebx)
    1494:	b3 01                	mov    $0x1,%bl
    1496:	00 00                	add    %al,(%eax)
    1498:	02 bc 4c 02 00 00 02 	add    0x2000002(%esp,%ecx,2),%bh
    149f:	23 0c 03             	and    (%ebx,%eax,1),%ecx
    14a2:	ba 00 00 00 02       	mov    $0x2000000,%edx
    14a7:	bd 4c 02 00 00       	mov    $0x24c,%ebp
    14ac:	02 23                	add    (%ebx),%ah
    14ae:	10 03                	adc    %al,(%ebx)
    14b0:	26 00 00             	add    %al,%es:(%eax)
    14b3:	00 02                	add    %al,(%edx)
    14b5:	be 4c 02 00 00       	mov    $0x24c,%esi
    14ba:	02 23                	add    (%ebx),%ah
    14bc:	14 03                	adc    $0x3,%al
    14be:	e8 01 00 00 02       	call   20014c4 <_end+0x1eaf998>
    14c3:	bf 4c 02 00 00       	mov    $0x24c,%edi
    14c8:	02 23                	add    (%ebx),%ah
    14ca:	18 03                	sbb    %al,(%ebx)
    14cc:	60                   	pusha  
    14cd:	00 00                	add    %al,(%eax)
    14cf:	00 02                	add    %al,(%edx)
    14d1:	c0 d2 00             	rcl    $0x0,%dl
    14d4:	00 00                	add    %al,(%eax)
    14d6:	02 23                	add    (%ebx),%ah
    14d8:	1c 08                	sbb    $0x8,%al
    14da:	74 73                	je     154f <gdt_len+0xd3f>
    14dc:	73 00                	jae    14de <gdt_len+0xcce>
    14de:	02 c1                	add    %cl,%al
    14e0:	d9 00                	flds   (%eax)
    14e2:	00 00                	add    %al,(%eax)
    14e4:	02 23                	add    (%ebx),%ah
    14e6:	20 03                	and    %al,(%ebx)
    14e8:	b9 02 00 00 02       	mov    $0x2000002,%ecx
    14ed:	c2 d2 00             	ret    $0xd2
    14f0:	00 00                	add    %al,(%eax)
    14f2:	03 23                	add    (%ebx),%esp
    14f4:	88 01                	mov    %al,(%ecx)
    14f6:	08 6c 64 74          	or     %ch,0x74(%esp,%eiz,2)
    14fa:	00 02                	add    %al,(%edx)
    14fc:	c3                   	ret    
    14fd:	1b 03                	sbb    (%ebx),%eax
    14ff:	00 00                	add    %al,(%eax)
    1501:	03 23                	add    (%ebx),%esp
    1503:	90                   	nop
    1504:	01 03                	add    %eax,(%ebx)
    1506:	46                   	inc    %esi
    1507:	00 00                	add    %al,(%eax)
    1509:	00 02                	add    %al,(%edx)
    150b:	c4 2b                	les    (%ebx),%ebp
    150d:	03 00                	add    (%eax),%eax
    150f:	00 03                	add    %al,(%ebx)
    1511:	23 b0 01 03 3a 02    	and    0x23a0301(%eax),%esi
    1517:	00 00                	add    %al,(%eax)
    1519:	02 c5                	add    %ch,%al
    151b:	2b 03                	sub    (%ebx),%eax
    151d:	00 00                	add    %al,(%eax)
    151f:	03 23                	add    (%ebx),%esp
    1521:	b0 09                	mov    $0x9,%al
    1523:	00 0a                	add    %cl,(%edx)
    1525:	25 00 00 00 2b       	and    $0x2b000000,%eax
    152a:	03 00                	add    (%eax),%eax
    152c:	00 0b                	add    %cl,(%ebx)
    152e:	4c                   	dec    %esp
    152f:	02 00                	add    (%eax),%al
    1531:	00 03                	add    %al,(%ebx)
    1533:	00 0a                	add    %cl,(%edx)
    1535:	3c 03                	cmp    $0x3,%al
    1537:	00 00                	add    %al,(%eax)
    1539:	3c 03                	cmp    $0x3,%al
    153b:	00 00                	add    %al,(%eax)
    153d:	0c 4c                	or     $0x4c,%al
    153f:	02 00                	add    (%eax),%al
    1541:	00 ff                	add    %bh,%bh
    1543:	03 00                	add    (%eax),%eax
    1545:	06                   	push   %es
    1546:	01 08                	add    %ecx,(%eax)
    1548:	46                   	inc    %esi
    1549:	01 00                	add    %eax,(%eax)
    154b:	00 0d 01 3e 03 00    	add    %cl,0x33e01
    1551:	00 01                	add    %al,(%ecx)
    1553:	0e                   	push   %cs
    1554:	38 44 10 00          	cmp    %al,0x0(%eax,%edx,1)
    1558:	ed                   	in     (%dx),%eax
    1559:	46                   	inc    %esi
    155a:	10 00                	adc    %al,(%eax)
    155c:	fc                   	cld    
    155d:	05 00 00 0a 3c       	add    $0x3c0a0000,%eax
    1562:	03 00                	add    (%eax),%eax
    1564:	00 67 03             	add    %ah,0x3(%edi)
    1567:	00 00                	add    %al,(%eax)
    1569:	0b 4c 02 00          	or     0x0(%edx,%eax,1),%ecx
    156d:	00 05 00 0e 52 03    	add    %al,0x3520e00
    1573:	00 00                	add    %al,(%eax)
    1575:	02 b0 57 03 00 00    	add    0x357(%eax),%dh
    157b:	01 01                	add    %eax,(%ecx)
    157d:	0a 25 00 00 00 84    	or     0x84000000,%ah
    1583:	03 00                	add    (%eax),%eax
    1585:	00 0b                	add    %cl,(%ebx)
    1587:	4c                   	dec    %esp
    1588:	02 00                	add    (%eax),%al
    158a:	00 fe                	add    %bh,%dh
    158c:	00 0f                	add    %cl,(%edi)
    158e:	67                   	addr16
    158f:	64                   	fs
    1590:	74 00                	je     1592 <gdt_len+0xd82>
    1592:	02 b1 74 03 00 00    	add    0x374(%ecx),%dh
    1598:	01 01                	add    %eax,(%ecx)
    159a:	0a 25 00 00 00 a1    	or     0xa1000000,%ah
    15a0:	03 00                	add    (%eax),%eax
    15a2:	00 0b                	add    %cl,(%ebx)
    15a4:	4c                   	dec    %esp
    15a5:	02 00                	add    (%eax),%al
    15a7:	00 02                	add    %al,(%edx)
    15a9:	00 0e                	add    %cl,(%esi)
    15ab:	5f                   	pop    %edi
    15ac:	03 00                	add    (%eax),%eax
    15ae:	00 02                	add    %al,(%edx)
    15b0:	b1 91                	mov    $0x91,%cl
    15b2:	03 00                	add    (%eax),%eax
    15b4:	00 01                	add    %al,(%ecx)
    15b6:	01 0e                	add    %ecx,(%esi)
    15b8:	5a                   	pop    %edx
    15b9:	03 00                	add    (%eax),%eax
    15bb:	00 02                	add    %al,(%edx)
    15bd:	b1 91                	mov    $0x91,%cl
    15bf:	03 00                	add    (%eax),%eax
    15c1:	00 01                	add    %al,(%ecx)
    15c3:	01 0e                	add    %ecx,(%esi)
    15c5:	64 03 00             	add    %fs:(%eax),%eax
    15c8:	00 02                	add    %al,(%edx)
    15ca:	b2 d9                	mov    $0xd9,%dl
    15cc:	00 00                	add    %al,(%eax)
    15ce:	00 01                	add    %al,(%ecx)
    15d0:	01 0e                	add    %ecx,(%esi)
    15d2:	4d                   	dec    %ebp
    15d3:	03 00                	add    (%eax),%eax
    15d5:	00 02                	add    %al,(%edx)
    15d7:	b2 d9                	mov    $0xd9,%dl
    15d9:	00 00                	add    %al,(%eax)
    15db:	00 01                	add    %al,(%ecx)
    15dd:	01 0a                	add    %ecx,(%edx)
    15df:	53                   	push   %ebx
    15e0:	02 00                	add    (%eax),%al
    15e2:	00 e5                	add    %ah,%ch
    15e4:	03 00                	add    (%eax),%eax
    15e6:	00 0b                	add    %cl,(%ebx)
    15e8:	4c                   	dec    %esp
    15e9:	02 00                	add    (%eax),%al
    15eb:	00 7f 00             	add    %bh,0x0(%edi)
    15ee:	0e                   	push   %cs
    15ef:	16                   	push   %ss
    15f0:	00 00                	add    %al,(%eax)
    15f2:	00 02                	add    %al,(%edx)
    15f4:	cd d5                	int    $0xd5
    15f6:	03 00                	add    (%eax),%eax
    15f8:	00 01                	add    %al,(%ecx)
    15fa:	01 0e                	add    %ecx,(%esi)
    15fc:	52                   	push   %edx
    15fd:	03 00                	add    (%eax),%eax
    15ff:	00 02                	add    %al,(%edx)
    1601:	b3 57                	mov    $0x57,%bl
    1603:	03 00                	add    (%eax),%eax
    1605:	00 01                	add    %al,(%ecx)
    1607:	01 0f                	add    %ecx,(%edi)
    1609:	67                   	addr16
    160a:	64                   	fs
    160b:	74 00                	je     160d <gdt_len+0xdfd>
    160d:	02 b1 74 03 00 00    	add    0x374(%ecx),%dh
    1613:	01 01                	add    %eax,(%ecx)
    1615:	0e                   	push   %cs
    1616:	5f                   	pop    %edi
    1617:	03 00                	add    (%eax),%eax
    1619:	00 02                	add    %al,(%edx)
    161b:	b1 91                	mov    $0x91,%cl
    161d:	03 00                	add    (%eax),%eax
    161f:	00 01                	add    %al,(%ecx)
    1621:	01 0e                	add    %ecx,(%esi)
    1623:	5a                   	pop    %edx
    1624:	03 00                	add    (%eax),%eax
    1626:	00 02                	add    %al,(%edx)
    1628:	b1 91                	mov    $0x91,%cl
    162a:	03 00                	add    (%eax),%eax
    162c:	00 01                	add    %al,(%ecx)
    162e:	01 0e                	add    %ecx,(%esi)
    1630:	64 03 00             	add    %fs:(%eax),%eax
    1633:	00 02                	add    %al,(%edx)
    1635:	b2 d9                	mov    $0xd9,%dl
    1637:	00 00                	add    %al,(%eax)
    1639:	00 01                	add    %al,(%ecx)
    163b:	01 0e                	add    %ecx,(%esi)
    163d:	4d                   	dec    %ebp
    163e:	03 00                	add    (%eax),%eax
    1640:	00 02                	add    %al,(%edx)
    1642:	b2 d9                	mov    $0xd9,%dl
    1644:	00 00                	add    %al,(%eax)
    1646:	00 01                	add    %al,(%ecx)
    1648:	01 10                	add    %edx,(%eax)
    164a:	16                   	push   %ss
    164b:	00 00                	add    %al,(%eax)
    164d:	00 02                	add    %al,(%edx)
    164f:	cd d5                	int    $0xd5
    1651:	03 00                	add    (%eax),%eax
    1653:	00 01                	add    %al,(%ecx)
    1655:	05 03 80 b9 10       	add    $0x10b98003,%eax
    165a:	00 00                	add    %al,(%eax)
    165c:	1b 06                	sbb    (%esi),%eax
    165e:	00 00                	add    %al,(%eax)
    1660:	02 00                	add    (%eax),%al
    1662:	f9                   	stc    
    1663:	03 00                	add    (%eax),%eax
    1665:	00 04 01             	add    %al,(%ecx,%eax,1)
    1668:	45                   	inc    %ebp
    1669:	02 00                	add    (%eax),%al
    166b:	00 01                	add    %al,(%ecx)
    166d:	8b 03                	mov    (%ebx),%eax
    166f:	00 00                	add    %al,(%eax)
    1671:	f9                   	stc    
    1672:	01 00                	add    %eax,(%eax)
    1674:	00 f0                	add    %dh,%al
    1676:	46                   	inc    %esi
    1677:	10 00                	adc    %al,(%eax)
    1679:	58                   	pop    %eax
    167a:	49                   	dec    %ecx
    167b:	10 00                	adc    %al,(%eax)
    167d:	17                   	pop    %ss
    167e:	03 00                	add    (%eax),%eax
    1680:	00 02                	add    %al,(%edx)
    1682:	da 02                	fiaddl (%edx)
    1684:	00 00                	add    %al,(%eax)
    1686:	08 02                	or     %al,(%edx)
    1688:	5c                   	pop    %esp
    1689:	d2 00                	rolb   %cl,(%eax)
    168b:	00 00                	add    %al,(%eax)
    168d:	03 b2 00 00 00 02    	add    0x2000000(%edx),%esi
    1693:	5d                   	pop    %ebp
    1694:	d2 00                	rolb   %cl,(%eax)
    1696:	00 00                	add    %al,(%eax)
    1698:	02 23                	add    (%ebx),%ah
    169a:	00 03                	add    %al,(%ebx)
    169c:	a5                   	movsl  %ds:(%esi),%es:(%edi)
    169d:	01 00                	add    %eax,(%eax)
    169f:	00 02                	add    %al,(%edx)
    16a1:	5e                   	pop    %esi
    16a2:	d2 00                	rolb   %cl,(%eax)
    16a4:	00 00                	add    %al,(%eax)
    16a6:	02 23                	add    (%ebx),%ah
    16a8:	02 04 ac             	add    (%esp,%ebp,4),%al
    16ab:	01 00                	add    %eax,(%eax)
    16ad:	00 02                	add    %al,(%edx)
    16af:	5f                   	pop    %edi
    16b0:	d2 00                	rolb   %cl,(%eax)
    16b2:	00 00                	add    %al,(%eax)
    16b4:	02 08                	add    (%eax),%cl
    16b6:	08 02                	or     %al,(%edx)
    16b8:	23 04 04             	and    (%esp,%eax,1),%eax
    16bb:	83 01 00             	addl   $0x0,(%ecx)
    16be:	00 02                	add    %al,(%edx)
    16c0:	60                   	pusha  
    16c1:	d2 00                	rolb   %cl,(%eax)
    16c3:	00 00                	add    %al,(%eax)
    16c5:	02 04 04             	add    (%esp,%eax,1),%al
    16c8:	02 23                	add    (%ebx),%ah
    16ca:	04 05                	add    $0x5,%al
    16cc:	73 00                	jae    16ce <gdt_len+0xebe>
    16ce:	02 61 d2             	add    -0x2e(%ecx),%ah
    16d1:	00 00                	add    %al,(%eax)
    16d3:	00 02                	add    %al,(%edx)
    16d5:	01 03                	add    %eax,(%ebx)
    16d7:	02 23                	add    (%ebx),%ah
    16d9:	04 05                	add    $0x5,%al
    16db:	64                   	fs
    16dc:	70 6c                	jo     174a <gdt_len+0xf3a>
    16de:	00 02                	add    %al,(%edx)
    16e0:	62                   	(bad)  
    16e1:	d2 00                	rolb   %cl,(%eax)
    16e3:	00 00                	add    %al,(%eax)
    16e5:	02 02                	add    (%edx),%al
    16e7:	01 02                	add    %eax,(%edx)
    16e9:	23 04 05 70 00 02 63 	and    0x63020070(,%eax,1),%eax
    16f0:	d2 00                	rolb   %cl,(%eax)
    16f2:	00 00                	add    %al,(%eax)
    16f4:	02 01                	add    (%ecx),%al
    16f6:	00 02                	add    %al,(%edx)
    16f8:	23 04 04             	and    (%esp,%eax,1),%eax
    16fb:	aa                   	stos   %al,%es:(%edi)
    16fc:	00 00                	add    %al,(%eax)
    16fe:	00 02                	add    %al,(%edx)
    1700:	64 d2 00             	rolb   %cl,%fs:(%eax)
    1703:	00 00                	add    %al,(%eax)
    1705:	02 04 0c             	add    (%esp,%ecx,1),%al
    1708:	02 23                	add    (%ebx),%ah
    170a:	06                   	push   %es
    170b:	04 c6                	add    $0xc6,%al
    170d:	02 00                	add    (%eax),%al
    170f:	00 02                	add    %al,(%edx)
    1711:	65 d2 00             	rolb   %cl,%gs:(%eax)
    1714:	00 00                	add    %al,(%eax)
    1716:	02 04 08             	add    (%eax,%ecx,1),%al
    1719:	02 23                	add    (%ebx),%ah
    171b:	06                   	push   %es
    171c:	04 91                	add    $0x91,%al
    171e:	01 00                	add    %eax,(%eax)
    1720:	00 02                	add    %al,(%edx)
    1722:	66                   	data16
    1723:	d2 00                	rolb   %cl,(%eax)
    1725:	00 00                	add    %al,(%eax)
    1727:	02 08                	add    (%eax),%cl
    1729:	00 02                	add    %al,(%edx)
    172b:	23 06                	and    (%esi),%eax
    172d:	00 06                	add    %al,(%esi)
    172f:	02 07                	add    (%edi),%al
    1731:	be 01 00 00 07       	mov    $0x7000001,%esi
    1736:	74 73                	je     17ab <gdt_len+0xf9b>
    1738:	73 00                	jae    173a <gdt_len+0xf2a>
    173a:	68 02 99 4c 02       	push   $0x24c9902
    173f:	00 00                	add    %al,(%eax)
    1741:	03 2f                	add    (%edi),%ebp
    1743:	00 00                	add    %al,(%eax)
    1745:	00 02                	add    %al,(%edx)
    1747:	9a 4c 02 00 00 02 23 	lcall  $0x2302,$0x24c
    174e:	00 03                	add    %al,(%ebx)
    1750:	d9 01                	flds   (%ecx)
    1752:	00 00                	add    %al,(%eax)
    1754:	02 9b 4c 02 00 00    	add    0x24c(%ebx),%bl
    175a:	02 23                	add    (%ebx),%ah
    175c:	04 08                	add    $0x8,%al
    175e:	73 73                	jae    17d3 <gdt_len+0xfc3>
    1760:	30 00                	xor    %al,(%eax)
    1762:	02 9b 4c 02 00 00    	add    0x24c(%ebx),%bl
    1768:	02 23                	add    (%ebx),%ah
    176a:	08 03                	or     %al,(%ebx)
    176c:	de 01                	fiadd  (%ecx)
    176e:	00 00                	add    %al,(%eax)
    1770:	02 9b 4c 02 00 00    	add    0x24c(%ebx),%bl
    1776:	02 23                	add    (%ebx),%ah
    1778:	0c 08                	or     $0x8,%al
    177a:	73 73                	jae    17ef <gdt_len+0xfdf>
    177c:	31 00                	xor    %eax,(%eax)
    177e:	02 9b 4c 02 00 00    	add    0x24c(%ebx),%bl
    1784:	02 23                	add    (%ebx),%ah
    1786:	10 03                	adc    %al,(%ebx)
    1788:	e3 01                	jecxz  178b <gdt_len+0xf7b>
    178a:	00 00                	add    %al,(%eax)
    178c:	02 9b 4c 02 00 00    	add    0x24c(%ebx),%bl
    1792:	02 23                	add    (%ebx),%ah
    1794:	14 08                	adc    $0x8,%al
    1796:	73 73                	jae    180b <gdt_len+0xffb>
    1798:	32 00                	xor    (%eax),%al
    179a:	02 9b 4c 02 00 00    	add    0x24c(%ebx),%bl
    17a0:	02 23                	add    (%ebx),%ah
    17a2:	18 08                	sbb    %cl,(%eax)
    17a4:	63 72 33             	arpl   %si,0x33(%edx)
    17a7:	00 02                	add    %al,(%edx)
    17a9:	9c                   	pushf  
    17aa:	4c                   	dec    %esp
    17ab:	02 00                	add    (%eax),%al
    17ad:	00 02                	add    %al,(%edx)
    17af:	23 1c 08             	and    (%eax,%ecx,1),%ebx
    17b2:	65 69 70 00 02 9c 4c 	imul   $0x24c9c02,%gs:0x0(%eax),%esi
    17b9:	02 
    17ba:	00 00                	add    %al,(%eax)
    17bc:	02 23                	add    (%ebx),%ah
    17be:	20 03                	and    %al,(%ebx)
    17c0:	53                   	push   %ebx
    17c1:	00 00                	add    %al,(%eax)
    17c3:	00 02                	add    %al,(%edx)
    17c5:	9c                   	pushf  
    17c6:	4c                   	dec    %esp
    17c7:	02 00                	add    (%eax),%al
    17c9:	00 02                	add    %al,(%edx)
    17cb:	23 24 08             	and    (%eax,%ecx,1),%esp
    17ce:	65                   	gs
    17cf:	61                   	popa   
    17d0:	78 00                	js     17d2 <gdt_len+0xfc2>
    17d2:	02 9c 4c 02 00 00 02 	add    0x2000002(%esp,%ecx,2),%bl
    17d9:	23 28                	and    (%eax),%ebp
    17db:	08 65 63             	or     %ah,0x63(%ebp)
    17de:	78 00                	js     17e0 <gdt_len+0xfd0>
    17e0:	02 9c 4c 02 00 00 02 	add    0x2000002(%esp,%ecx,2),%bl
    17e7:	23 2c 08             	and    (%eax,%ecx,1),%ebp
    17ea:	65                   	gs
    17eb:	64                   	fs
    17ec:	78 00                	js     17ee <gdt_len+0xfde>
    17ee:	02 9c 4c 02 00 00 02 	add    0x2000002(%esp,%ecx,2),%bl
    17f5:	23 30                	and    (%eax),%esi
    17f7:	08 65 62             	or     %ah,0x62(%ebp)
    17fa:	78 00                	js     17fc <gdt_len+0xfec>
    17fc:	02 9c 4c 02 00 00 02 	add    0x2000002(%esp,%ecx,2),%bl
    1803:	23 34 08             	and    (%eax,%ecx,1),%esi
    1806:	65                   	gs
    1807:	73 70                	jae    1879 <gdt_len+0x1069>
    1809:	00 02                	add    %al,(%edx)
    180b:	9c                   	pushf  
    180c:	4c                   	dec    %esp
    180d:	02 00                	add    (%eax),%al
    180f:	00 02                	add    %al,(%edx)
    1811:	23 38                	and    (%eax),%edi
    1813:	08 65 62             	or     %ah,0x62(%ebp)
    1816:	70 00                	jo     1818 <gdt_len+0x1008>
    1818:	02 9c 4c 02 00 00 02 	add    0x2000002(%esp,%ecx,2),%bl
    181f:	23 3c 08             	and    (%eax,%ecx,1),%edi
    1822:	65                   	gs
    1823:	73 69                	jae    188e <gdt_len+0x107e>
    1825:	00 02                	add    %al,(%edx)
    1827:	9c                   	pushf  
    1828:	4c                   	dec    %esp
    1829:	02 00                	add    (%eax),%al
    182b:	00 02                	add    %al,(%edx)
    182d:	23 40 08             	and    0x8(%eax),%eax
    1830:	65 64 69 00 02 9c 4c 	gs imul $0x24c9c02,%fs:%gs:(%eax),%eax
    1837:	02 
    1838:	00 00                	add    %al,(%eax)
    183a:	02 23                	add    (%ebx),%ah
    183c:	44                   	inc    %esp
    183d:	08 65 73             	or     %ah,0x73(%ebp)
    1840:	00 02                	add    %al,(%edx)
    1842:	9d                   	popf   
    1843:	4c                   	dec    %esp
    1844:	02 00                	add    (%eax),%al
    1846:	00 02                	add    %al,(%edx)
    1848:	23 48 08             	and    0x8(%eax),%ecx
    184b:	63 73 00             	arpl   %si,0x0(%ebx)
    184e:	02 9d 4c 02 00 00    	add    0x24c(%ebp),%bl
    1854:	02 23                	add    (%ebx),%ah
    1856:	4c                   	dec    %esp
    1857:	08 73 73             	or     %dh,0x73(%ebx)
    185a:	00 02                	add    %al,(%edx)
    185c:	9d                   	popf   
    185d:	4c                   	dec    %esp
    185e:	02 00                	add    (%eax),%al
    1860:	00 02                	add    %al,(%edx)
    1862:	23 50 08             	and    0x8(%eax),%edx
    1865:	64                   	fs
    1866:	73 00                	jae    1868 <gdt_len+0x1058>
    1868:	02 9d 4c 02 00 00    	add    0x24c(%ebp),%bl
    186e:	02 23                	add    (%ebx),%ah
    1870:	54                   	push   %esp
    1871:	08 66 73             	or     %ah,0x73(%esi)
    1874:	00 02                	add    %al,(%edx)
    1876:	9d                   	popf   
    1877:	4c                   	dec    %esp
    1878:	02 00                	add    (%eax),%al
    187a:	00 02                	add    %al,(%edx)
    187c:	23 58 08             	and    0x8(%eax),%ebx
    187f:	67 73 00             	addr16 jae 1882 <gdt_len+0x1072>
    1882:	02 9d 4c 02 00 00    	add    0x24c(%ebp),%bl
    1888:	02 23                	add    (%ebx),%ah
    188a:	5c                   	pop    %esp
    188b:	08 6c 64 74          	or     %ch,0x74(%esp,%eiz,2)
    188f:	00 02                	add    %al,(%edx)
    1891:	9d                   	popf   
    1892:	4c                   	dec    %esp
    1893:	02 00                	add    (%eax),%al
    1895:	00 02                	add    %al,(%edx)
    1897:	23 60 03             	and    0x3(%eax),%esp
    189a:	51                   	push   %ecx
    189b:	02 00                	add    (%eax),%al
    189d:	00 02                	add    %al,(%edx)
    189f:	9d                   	popf   
    18a0:	4c                   	dec    %esp
    18a1:	02 00                	add    (%eax),%al
    18a3:	00 02                	add    %al,(%edx)
    18a5:	23 64 00 06          	and    0x6(%eax,%eax,1),%esp
    18a9:	04 07                	add    $0x7,%al
    18ab:	19 01                	sbb    %eax,(%ecx)
    18ad:	00 00                	add    %al,(%eax)
    18af:	09 81 00 00 00 b0    	or     %eax,-0x50000000(%ecx)
    18b5:	08 02                	or     %al,(%edx)
    18b7:	b8 1b 03 00 00       	mov    $0x31b,%eax
    18bc:	08 70 69             	or     %dh,0x69(%eax)
    18bf:	64 00 02             	add    %al,%fs:(%edx)
    18c2:	b9 4c 02 00 00       	mov    $0x24c,%ecx
    18c7:	02 23                	add    (%ebx),%ah
    18c9:	00 03                	add    %al,(%ebx)
    18cb:	54                   	push   %esp
    18cc:	01 00                	add    %eax,(%eax)
    18ce:	00 02                	add    %al,(%edx)
    18d0:	ba 4c 02 00 00       	mov    $0x24c,%edx
    18d5:	02 23                	add    (%ebx),%ah
    18d7:	04 03                	add    $0x3,%al
    18d9:	36 00 00             	add    %al,%ss:(%eax)
    18dc:	00 02                	add    %al,(%edx)
    18de:	bb 4c 02 00 00       	mov    $0x24c,%ebx
    18e3:	02 23                	add    (%ebx),%ah
    18e5:	08 03                	or     %al,(%ebx)
    18e7:	b3 01                	mov    $0x1,%bl
    18e9:	00 00                	add    %al,(%eax)
    18eb:	02 bc 4c 02 00 00 02 	add    0x2000002(%esp,%ecx,2),%bh
    18f2:	23 0c 03             	and    (%ebx,%eax,1),%ecx
    18f5:	ba 00 00 00 02       	mov    $0x2000000,%edx
    18fa:	bd 4c 02 00 00       	mov    $0x24c,%ebp
    18ff:	02 23                	add    (%ebx),%ah
    1901:	10 03                	adc    %al,(%ebx)
    1903:	26 00 00             	add    %al,%es:(%eax)
    1906:	00 02                	add    %al,(%edx)
    1908:	be 4c 02 00 00       	mov    $0x24c,%esi
    190d:	02 23                	add    (%ebx),%ah
    190f:	14 03                	adc    $0x3,%al
    1911:	e8 01 00 00 02       	call   2001917 <_end+0x1eafdeb>
    1916:	bf 4c 02 00 00       	mov    $0x24c,%edi
    191b:	02 23                	add    (%ebx),%ah
    191d:	18 03                	sbb    %al,(%ebx)
    191f:	60                   	pusha  
    1920:	00 00                	add    %al,(%eax)
    1922:	00 02                	add    %al,(%edx)
    1924:	c0 d2 00             	rcl    $0x0,%dl
    1927:	00 00                	add    %al,(%eax)
    1929:	02 23                	add    (%ebx),%ah
    192b:	1c 08                	sbb    $0x8,%al
    192d:	74 73                	je     19a2 <gdt_len+0x1192>
    192f:	73 00                	jae    1931 <gdt_len+0x1121>
    1931:	02 c1                	add    %cl,%al
    1933:	d9 00                	flds   (%eax)
    1935:	00 00                	add    %al,(%eax)
    1937:	02 23                	add    (%ebx),%ah
    1939:	20 03                	and    %al,(%ebx)
    193b:	b9 02 00 00 02       	mov    $0x2000002,%ecx
    1940:	c2 d2 00             	ret    $0xd2
    1943:	00 00                	add    %al,(%eax)
    1945:	03 23                	add    (%ebx),%esp
    1947:	88 01                	mov    %al,(%ecx)
    1949:	08 6c 64 74          	or     %ch,0x74(%esp,%eiz,2)
    194d:	00 02                	add    %al,(%edx)
    194f:	c3                   	ret    
    1950:	1b 03                	sbb    (%ebx),%eax
    1952:	00 00                	add    %al,(%eax)
    1954:	03 23                	add    (%ebx),%esp
    1956:	90                   	nop
    1957:	01 03                	add    %eax,(%ebx)
    1959:	46                   	inc    %esi
    195a:	00 00                	add    %al,(%eax)
    195c:	00 02                	add    %al,(%edx)
    195e:	c4 2b                	les    (%ebx),%ebp
    1960:	03 00                	add    (%eax),%eax
    1962:	00 03                	add    %al,(%ebx)
    1964:	23 b0 01 03 3a 02    	and    0x23a0301(%eax),%esi
    196a:	00 00                	add    %al,(%eax)
    196c:	02 c5                	add    %ch,%al
    196e:	2b 03                	sub    (%ebx),%eax
    1970:	00 00                	add    %al,(%eax)
    1972:	03 23                	add    (%ebx),%esp
    1974:	b0 09                	mov    $0x9,%al
    1976:	00 0a                	add    %cl,(%edx)
    1978:	25 00 00 00 2b       	and    $0x2b000000,%eax
    197d:	03 00                	add    (%eax),%eax
    197f:	00 0b                	add    %cl,(%ebx)
    1981:	4c                   	dec    %esp
    1982:	02 00                	add    (%eax),%al
    1984:	00 03                	add    %al,(%ebx)
    1986:	00 0a                	add    %cl,(%edx)
    1988:	3c 03                	cmp    $0x3,%al
    198a:	00 00                	add    %al,(%eax)
    198c:	3c 03                	cmp    $0x3,%al
    198e:	00 00                	add    %al,(%eax)
    1990:	0c 4c                	or     $0x4c,%al
    1992:	02 00                	add    (%eax),%al
    1994:	00 ff                	add    %bh,%bh
    1996:	03 00                	add    (%eax),%eax
    1998:	06                   	push   %es
    1999:	01 08                	add    %ecx,(%eax)
    199b:	46                   	inc    %esi
    199c:	01 00                	add    %eax,(%eax)
    199e:	00 0d 01 15 03 00    	add    %cl,0x31501
    19a4:	00 01                	add    %al,(%ecx)
    19a6:	17                   	pop    %ss
    19a7:	f0 46                	lock inc %esi
    19a9:	10 00                	adc    %al,(%eax)
    19ab:	da 47 10             	fiaddl 0x10(%edi)
    19ae:	00 34 06             	add    %dh,(%esi,%eax,1)
    19b1:	00 00                	add    %al,(%eax)
    19b3:	82                   	(bad)  
    19b4:	03 00                	add    (%eax),%eax
    19b6:	00 0e                	add    %cl,(%esi)
    19b8:	69 00 01 1b 82 03    	imul   $0x3821b01,(%eax),%eax
    19be:	00 00                	add    %al,(%eax)
    19c0:	02 91 74 0e 6a 00    	add    0x6a0e74(%ecx),%dl
    19c6:	01 1b                	add    %ebx,(%ebx)
    19c8:	82                   	(bad)  
    19c9:	03 00                	add    (%eax),%eax
    19cb:	00 02                	add    %al,(%edx)
    19cd:	91                   	xchg   %eax,%ecx
    19ce:	70 0e                	jo     19de <gdt_len+0x11ce>
    19d0:	74 6d                	je     1a3f <gdt_len+0x122f>
    19d2:	70 00                	jo     19d4 <gdt_len+0x11c4>
    19d4:	01 26                	add    %esp,(%esi)
    19d6:	4c                   	dec    %esp
    19d7:	02 00                	add    (%eax),%al
    19d9:	00 02                	add    %al,(%edx)
    19db:	91                   	xchg   %eax,%ecx
    19dc:	6c                   	insb   (%dx),%es:(%edi)
    19dd:	00 0f                	add    %cl,(%edi)
    19df:	04 05                	add    $0x5,%al
    19e1:	69 6e 74 00 10 01 ed 	imul   $0xed011000,0x74(%esi),%ebp
    19e8:	03 00                	add    (%eax),%eax
    19ea:	00 01                	add    %al,(%ecx)
    19ec:	39 01                	cmp    %eax,(%ecx)
    19ee:	c2 03 00             	ret    $0x3
    19f1:	00 da                	add    %bl,%dl
    19f3:	47                   	inc    %edi
    19f4:	10 00                	adc    %al,(%eax)
    19f6:	ee                   	out    %al,(%dx)
    19f7:	47                   	inc    %edi
    19f8:	10 00                	adc    %al,(%eax)
    19fa:	6c                   	insb   (%dx),%es:(%edi)
    19fb:	06                   	push   %es
    19fc:	00 00                	add    %al,(%eax)
    19fe:	c2 03 00             	ret    $0x3
    1a01:	00 11                	add    %dl,(%ecx)
    1a03:	e2 03                	loop   1a08 <gdt_len+0x11f8>
    1a05:	00 00                	add    %al,(%eax)
    1a07:	01 39                	add    %edi,(%ecx)
    1a09:	4c                   	dec    %esp
    1a0a:	02 00                	add    (%eax),%al
    1a0c:	00 02                	add    %al,(%edx)
    1a0e:	91                   	xchg   %eax,%ecx
    1a0f:	00 0e                	add    %cl,(%esi)
    1a11:	63 72 33             	arpl   %si,0x33(%edx)
    1a14:	00 01                	add    %al,(%ecx)
    1a16:	3b 4c 02 00          	cmp    0x0(%edx,%eax,1),%ecx
    1a1a:	00 01                	add    %al,(%ecx)
    1a1c:	50                   	push   %eax
    1a1d:	00 12                	add    %dl,(%edx)
    1a1f:	04 82                	add    $0x82,%al
    1a21:	03 00                	add    (%eax),%eax
    1a23:	00 13                	add    %dl,(%ebx)
    1a25:	01 69 03             	add    %ebp,0x3(%ecx)
    1a28:	00 00                	add    %al,(%eax)
    1a2a:	01 40 01             	add    %eax,0x1(%eax)
    1a2d:	ee                   	out    %al,(%dx)
    1a2e:	47                   	inc    %edi
    1a2f:	10 00                	adc    %al,(%eax)
    1a31:	5b                   	pop    %ebx
    1a32:	48                   	dec    %eax
    1a33:	10 00                	adc    %al,(%eax)
    1a35:	a4                   	movsb  %ds:(%esi),%es:(%edi)
    1a36:	06                   	push   %es
    1a37:	00 00                	add    %al,(%eax)
    1a39:	23 04 00             	and    (%eax,%eax,1),%eax
    1a3c:	00 11                	add    %dl,(%ecx)
    1a3e:	e6 00                	out    %al,$0x0
    1a40:	00 00                	add    %al,(%eax)
    1a42:	01 40 4c             	add    %eax,0x4c(%eax)
    1a45:	02 00                	add    (%eax),%al
    1a47:	00 02                	add    %al,(%edx)
    1a49:	91                   	xchg   %eax,%ecx
    1a4a:	00 14 f4             	add    %dl,(%esp,%esi,8)
    1a4d:	47                   	inc    %edi
    1a4e:	10 00                	adc    %al,(%eax)
    1a50:	34 48                	xor    $0x48,%al
    1a52:	10 00                	adc    %al,(%eax)
    1a54:	15 af 04 00 00       	adc    $0x4af,%eax
    1a59:	01 42 23             	add    %eax,0x23(%edx)
    1a5c:	04 00                	add    $0x0,%al
    1a5e:	00 02                	add    %al,(%edx)
    1a60:	91                   	xchg   %eax,%ecx
    1a61:	74 0e                	je     1a71 <gdt_len+0x1261>
    1a63:	70 6f                	jo     1ad4 <gdt_len+0x12c4>
    1a65:	73 00                	jae    1a67 <gdt_len+0x1257>
    1a67:	01 42 82             	add    %eax,-0x7e(%edx)
    1a6a:	03 00                	add    (%eax),%eax
    1a6c:	00 02                	add    %al,(%edx)
    1a6e:	91                   	xchg   %eax,%ecx
    1a6f:	70 0e                	jo     1a7f <gdt_len+0x126f>
    1a71:	63 68 00             	arpl   %bp,0x0(%eax)
    1a74:	01 42 30             	add    %eax,0x30(%edx)
    1a77:	04 00                	add    $0x0,%al
    1a79:	00 02                	add    %al,(%edx)
    1a7b:	91                   	xchg   %eax,%ecx
    1a7c:	6e                   	outsb  %ds:(%esi),(%dx)
    1a7d:	00 00                	add    %al,(%eax)
    1a7f:	12 04 29             	adc    (%ecx,%ebp,1),%al
    1a82:	04 00                	add    $0x0,%al
    1a84:	00 06                	add    %al,(%esi)
    1a86:	01 06                	add    %eax,(%esi)
    1a88:	4f                   	dec    %edi
    1a89:	01 00                	add    %eax,(%eax)
    1a8b:	00 06                	add    %al,(%esi)
    1a8d:	02 05 3c 00 00 00    	add    0x3c,%al
    1a93:	13 01                	adc    (%ecx),%eax
    1a95:	82                   	(bad)  
    1a96:	03 00                	add    (%eax),%eax
    1a98:	00 01                	add    %al,(%ecx)
    1a9a:	46                   	inc    %esi
    1a9b:	01 5b 48             	add    %ebx,0x48(%ebx)
    1a9e:	10 00                	adc    %al,(%eax)
    1aa0:	b0 48                	mov    $0x48,%al
    1aa2:	10 00                	adc    %al,(%eax)
    1aa4:	dc 06                	faddl  (%esi)
    1aa6:	00 00                	add    %al,(%eax)
    1aa8:	97                   	xchg   %eax,%edi
    1aa9:	04 00                	add    $0x0,%al
    1aab:	00 11                	add    %dl,(%ecx)
    1aad:	dc 03                	faddl  (%ebx)
    1aaf:	00 00                	add    %al,(%eax)
    1ab1:	01 46 4c             	add    %eax,0x4c(%esi)
    1ab4:	02 00                	add    (%eax),%al
    1ab6:	00 02                	add    %al,(%edx)
    1ab8:	91                   	xchg   %eax,%ecx
    1ab9:	00 11                	add    %dl,(%ecx)
    1abb:	9f                   	lahf   
    1abc:	03 00                	add    (%eax),%eax
    1abe:	00 01                	add    %al,(%ecx)
    1ac0:	46                   	inc    %esi
    1ac1:	4c                   	dec    %esp
    1ac2:	02 00                	add    (%eax),%al
    1ac4:	00 02                	add    %al,(%edx)
    1ac6:	91                   	xchg   %eax,%ecx
    1ac7:	04 15                	add    $0x15,%al
    1ac9:	c9                   	leave  
    1aca:	03 00                	add    (%eax),%eax
    1acc:	00 01                	add    %al,(%ecx)
    1ace:	48                   	dec    %eax
    1acf:	97                   	xchg   %eax,%edi
    1ad0:	04 00                	add    $0x0,%al
    1ad2:	00 02                	add    %al,(%edx)
    1ad4:	91                   	xchg   %eax,%ecx
    1ad5:	68 15 d5 03 00       	push   $0x3d515
    1ada:	00 01                	add    %al,(%ecx)
    1adc:	48                   	dec    %eax
    1add:	97                   	xchg   %eax,%edi
    1ade:	04 00                	add    $0x0,%al
    1ae0:	00 02                	add    %al,(%edx)
    1ae2:	91                   	xchg   %eax,%ecx
    1ae3:	70 15                	jo     1afa <gdt_len+0x12ea>
    1ae5:	92                   	xchg   %eax,%edx
    1ae6:	03 00                	add    (%eax),%eax
    1ae8:	00 01                	add    %al,(%ecx)
    1aea:	48                   	dec    %eax
    1aeb:	97                   	xchg   %eax,%edi
    1aec:	04 00                	add    $0x0,%al
    1aee:	00 02                	add    %al,(%edx)
    1af0:	91                   	xchg   %eax,%ecx
    1af1:	6c                   	insb   (%dx),%es:(%edi)
    1af2:	00 12                	add    %dl,(%edx)
    1af4:	04 4c                	add    $0x4c,%al
    1af6:	02 00                	add    (%eax),%al
    1af8:	00 16                	add    %dl,(%esi)
    1afa:	01 ba 03 00 00 01    	add    %edi,0x1000003(%edx)
    1b00:	4e                   	dec    %esi
    1b01:	4c                   	dec    %esp
    1b02:	02 00                	add    (%eax),%al
    1b04:	00 b0 48 10 00 f2    	add    %dh,-0xdffefb8(%eax)
    1b0a:	48                   	dec    %eax
    1b0b:	10 00                	adc    %al,(%eax)
    1b0d:	14 07                	adc    $0x7,%al
    1b0f:	00 00                	add    %al,(%eax)
    1b11:	d5 04                	aad    $0x4
    1b13:	00 00                	add    %al,(%eax)
    1b15:	0e                   	push   %cs
    1b16:	69 00 01 50 82 03    	imul   $0x3825001,(%eax),%eax
    1b1c:	00 00                	add    %al,(%eax)
    1b1e:	02 91 6c 17 01 07    	add    0x701176c(%ecx),%dl
    1b24:	04 00                	add    $0x0,%al
    1b26:	00 01                	add    %al,(%ecx)
    1b28:	56                   	push   %esi
    1b29:	82                   	(bad)  
    1b2a:	03 00                	add    (%eax),%eax
    1b2c:	00 01                	add    %al,(%ecx)
    1b2e:	18 00                	sbb    %al,(%eax)
    1b30:	00 13                	add    %dl,(%ebx)
    1b32:	01 77 03             	add    %esi,0x3(%edi)
    1b35:	00 00                	add    %al,(%eax)
    1b37:	01 58 01             	add    %ebx,0x1(%eax)
    1b3a:	f2 48                	repnz dec %eax
    1b3c:	10 00                	adc    %al,(%eax)
    1b3e:	58                   	pop    %eax
    1b3f:	49                   	dec    %ecx
    1b40:	10 00                	adc    %al,(%eax)
    1b42:	4c                   	dec    %esp
    1b43:	07                   	pop    %es
    1b44:	00 00                	add    %al,(%eax)
    1b46:	31 05 00 00 11 dc    	xor    %eax,0xdc110000
    1b4c:	03 00                	add    (%eax),%eax
    1b4e:	00 01                	add    %al,(%ecx)
    1b50:	58                   	pop    %eax
    1b51:	82                   	(bad)  
    1b52:	03 00                	add    (%eax),%eax
    1b54:	00 02                	add    %al,(%edx)
    1b56:	91                   	xchg   %eax,%ecx
    1b57:	00 0e                	add    %cl,(%esi)
    1b59:	69 00 01 5a 82 03    	imul   $0x3825a01,(%eax),%eax
    1b5f:	00 00                	add    %al,(%eax)
    1b61:	02 91 6c 19 01 07    	add    0x701196c(%ecx),%dl
    1b67:	04 00                	add    $0x0,%al
    1b69:	00 01                	add    %al,(%ecx)
    1b6b:	56                   	push   %esi
    1b6c:	82                   	(bad)  
    1b6d:	03 00                	add    (%eax),%eax
    1b6f:	00 01                	add    %al,(%ecx)
    1b71:	1b 05 00 00 18 00    	sbb    0x180000,%eax
    1b77:	1a 00                	sbb    (%eax),%al
    1b79:	00 00                	add    %al,(%eax)
    1b7b:	00 17                	add    %dl,(%edi)
    1b7d:	01 07                	add    %eax,(%edi)
    1b7f:	04 00                	add    $0x0,%al
    1b81:	00 01                	add    %al,(%ecx)
    1b83:	56                   	push   %esi
    1b84:	82                   	(bad)  
    1b85:	03 00                	add    (%eax),%eax
    1b87:	00 01                	add    %al,(%ecx)
    1b89:	18 00                	sbb    %al,(%eax)
    1b8b:	00 00                	add    %al,(%eax)
    1b8d:	0a d2                	or     %dl,%dl
    1b8f:	00 00                	add    %al,(%eax)
    1b91:	00 42 05             	add    %al,0x5(%edx)
    1b94:	00 00                	add    %al,(%eax)
    1b96:	0c 4c                	or     $0x4c,%al
    1b98:	02 00                	add    (%eax),%al
    1b9a:	00 ff                	add    %bh,%bh
    1b9c:	1f                   	pop    %ds
    1b9d:	00 1b                	add    %bl,(%ebx)
    1b9f:	08 03                	or     %al,(%ebx)
    1ba1:	00 00                	add    %al,(%eax)
    1ba3:	01 0f                	add    %ecx,(%edi)
    1ba5:	31 05 00 00 01 01    	xor    %eax,0x1010000
    1bab:	1c 70                	sbb    $0x70,%al
    1bad:	64 65 00 01          	fs add %al,%fs:%gs:(%ecx)
    1bb1:	10 97 04 00 00 01    	adc    %dl,0x1000004(%edi)
    1bb7:	01 1c 70             	add    %ebx,(%eax,%esi,2)
    1bba:	74 65                	je     1c21 <gdt_len+0x1411>
    1bbc:	00 01                	add    %al,(%ecx)
    1bbe:	11 97 04 00 00 01    	adc    %edx,0x1000004(%edi)
    1bc4:	01 1b                	add    %ebx,(%ebx)
    1bc6:	e7 03                	out    %eax,$0x3
    1bc8:	00 00                	add    %al,(%eax)
    1bca:	01 12                	add    %edx,(%edx)
    1bcc:	97                   	xchg   %eax,%edi
    1bcd:	04 00                	add    $0x0,%al
    1bcf:	00 01                	add    %al,(%ecx)
    1bd1:	01 1b                	add    %ebx,(%ebx)
    1bd3:	99                   	cltd   
    1bd4:	03 00                	add    (%eax),%eax
    1bd6:	00 01                	add    %al,(%ecx)
    1bd8:	13 97 04 00 00 01    	adc    0x1000004(%edi),%edx
    1bde:	01 1b                	add    %ebx,(%ebx)
    1be0:	ab                   	stos   %eax,%es:(%edi)
    1be1:	03 00                	add    (%eax),%eax
    1be3:	00 01                	add    %al,(%ecx)
    1be5:	3f                   	aas    
    1be6:	82                   	(bad)  
    1be7:	03 00                	add    (%eax),%eax
    1be9:	00 01                	add    %al,(%ecx)
    1beb:	01 0a                	add    %ecx,(%edx)
    1bed:	53                   	push   %ebx
    1bee:	02 00                	add    (%eax),%al
    1bf0:	00 a0 05 00 00 0b    	add    %ah,0xb000005(%eax)
    1bf6:	4c                   	dec    %esp
    1bf7:	02 00                	add    (%eax),%al
    1bf9:	00 7f 00             	add    %bh,0x0(%edi)
    1bfc:	1d 16 00 00 00       	sbb    $0x16,%eax
    1c01:	02 cd                	add    %ch,%cl
    1c03:	90                   	nop
    1c04:	05 00 00 01 05       	add    $0x5010000,%eax
    1c09:	03 80 b9 10 00 1d    	add    0x1d0010b9(%eax),%eax
    1c0f:	08 03                	or     %al,(%ebx)
    1c11:	00 00                	add    %al,(%eax)
    1c13:	01 0f                	add    %ecx,(%edi)
    1c15:	31 05 00 00 01 05    	xor    %eax,0x5010000
    1c1b:	03 40 75             	add    0x75(%eax),%eax
    1c1e:	10 00                	adc    %al,(%eax)
    1c20:	1e                   	push   %ds
    1c21:	70 64                	jo     1c87 <gdt_len+0x1477>
    1c23:	65 00 01             	add    %al,%gs:(%ecx)
    1c26:	10 97 04 00 00 01    	adc    %dl,0x1000004(%edi)
    1c2c:	05 03 a0 15 15       	add    $0x1515a003,%eax
    1c31:	00 1e                	add    %bl,(%esi)
    1c33:	70 74                	jo     1ca9 <gdt_len+0x1499>
    1c35:	65 00 01             	add    %al,%gs:(%ecx)
    1c38:	11 97 04 00 00 01    	adc    %edx,0x1000004(%edi)
    1c3e:	05 03 ac 15 15       	add    $0x1515ac03,%eax
    1c43:	00 1d e7 03 00 00    	add    %bl,0x3e7
    1c49:	01 12                	add    %edx,(%edx)
    1c4b:	97                   	xchg   %eax,%edi
    1c4c:	04 00                	add    $0x0,%al
    1c4e:	00 01                	add    %al,(%ecx)
    1c50:	05 03 a4 15 15       	add    $0x1515a403,%eax
    1c55:	00 1d 99 03 00 00    	add    %bl,0x399
    1c5b:	01 13                	add    %edx,(%ebx)
    1c5d:	97                   	xchg   %eax,%edi
    1c5e:	04 00                	add    $0x0,%al
    1c60:	00 01                	add    %al,(%ecx)
    1c62:	05 03 a8 15 15       	add    $0x1515a803,%eax
    1c67:	00 1d ab 03 00 00    	add    %bl,0x3ab
    1c6d:	01 3f                	add    %edi,(%edi)
    1c6f:	82                   	(bad)  
    1c70:	03 00                	add    (%eax),%eax
    1c72:	00 01                	add    %al,(%ecx)
    1c74:	05 03 a0 6e 10       	add    $0x106ea003,%eax
    1c79:	00 00                	add    %al,(%eax)
    1c7b:	c0 03 00             	rolb   $0x0,(%ebx)
    1c7e:	00 02                	add    %al,(%edx)
    1c80:	00 c2                	add    %al,%dl
    1c82:	05 00 00 04 01       	add    $0x1040000,%eax
    1c87:	45                   	inc    %ebp
    1c88:	02 00                	add    (%eax),%al
    1c8a:	00 01                	add    %al,(%ecx)
    1c8c:	69 04 00 00 f9 01 00 	imul   $0x1f900,(%eax,%eax,1),%eax
    1c93:	00 58 49             	add    %bl,0x49(%eax)
    1c96:	10 00                	adc    %al,(%eax)
    1c98:	7b 4d                	jnp    1ce7 <gdt_len+0x14d7>
    1c9a:	10 00                	adc    %al,(%eax)
    1c9c:	e5 03                	in     $0x3,%eax
    1c9e:	00 00                	add    %al,(%eax)
    1ca0:	02 50 04             	add    0x4(%eax),%dl
    1ca3:	00 00                	add    %al,(%eax)
    1ca5:	02 28                	add    (%eax),%ch
    1ca7:	30 00                	xor    %al,(%eax)
    1ca9:	00 00                	add    %al,(%eax)
    1cab:	03 04 14             	add    (%esp,%edx,1),%eax
    1cae:	04 00                	add    $0x0,%al
    1cb0:	00 3a                	add    %bh,(%edx)
    1cb2:	00 00                	add    %al,(%eax)
    1cb4:	00 04 01             	add    %al,(%ecx,%eax,1)
    1cb7:	06                   	push   %es
    1cb8:	4f                   	dec    %edi
    1cb9:	01 00                	add    %eax,(%eax)
    1cbb:	00 02                	add    %al,(%edx)
    1cbd:	57                   	push   %edi
    1cbe:	04 00                	add    $0x0,%al
    1cc0:	00 02                	add    %al,(%edx)
    1cc2:	66 25 00 00          	and    $0x0,%ax
    1cc6:	00 05 01 64 04 00    	add    %al,0x46401
    1ccc:	00 01                	add    %al,(%ecx)
    1cce:	05 01 a9 00 00       	add    $0xa901,%eax
    1cd3:	00 58 49             	add    %bl,0x49(%eax)
    1cd6:	10 00                	adc    %al,(%eax)
    1cd8:	38 4a 10             	cmp    %cl,0x10(%edx)
    1cdb:	00 84 07 00 00 a9 00 	add    %al,0xa90000(%edi,%eax,1)
    1ce2:	00 00                	add    %al,(%eax)
    1ce4:	06                   	push   %es
    1ce5:	0d 04 00 00 01       	or     $0x1000004,%eax
    1cea:	05 a9 00 00 00       	add    $0xa9,%eax
    1cef:	02 91 00 07 6e 00    	add    0x6e0700(%ecx),%dl
    1cf5:	01 05 af 00 00 00    	add    %eax,0xaf
    1cfb:	02 91 04 08 69 00    	add    0x690804(%ecx),%dl
    1d01:	01 0e                	add    %ecx,(%esi)
    1d03:	b6 00                	mov    $0x0,%dh
    1d05:	00 00                	add    %al,(%eax)
    1d07:	02 91 70 08 6a 00    	add    0x6a0870(%ecx),%dl
    1d0d:	01 16                	add    %edx,(%esi)
    1d0f:	b6 00                	mov    $0x0,%dh
    1d11:	00 00                	add    %al,(%eax)
    1d13:	02 91 6c 08 63 68    	add    0x6863086c(%ecx),%dl
    1d19:	00 01                	add    %al,(%ecx)
    1d1b:	17                   	pop    %ss
    1d1c:	3a 00                	cmp    (%eax),%al
    1d1e:	00 00                	add    %al,(%eax)
    1d20:	02 91 6b 00 09 04    	add    0x409006b(%ecx),%dl
    1d26:	3a 00                	cmp    (%eax),%al
    1d28:	00 00                	add    %al,(%eax)
    1d2a:	04 04                	add    $0x4,%al
    1d2c:	07                   	pop    %es
    1d2d:	14 01                	adc    $0x1,%al
    1d2f:	00 00                	add    %al,(%eax)
    1d31:	0a 04 05 69 6e 74 00 	or     0x746e69(,%eax,1),%al
    1d38:	05 01 45 04 00       	add    $0x44501,%eax
    1d3d:	00 01                	add    %al,(%ecx)
    1d3f:	20 01                	and    %al,(%ecx)
    1d41:	a9 00 00 00 38       	test   $0x38000000,%eax
    1d46:	4a                   	dec    %edx
    1d47:	10 00                	adc    %al,(%eax)
    1d49:	b8 4a 10 00 bc       	mov    $0xbc00104a,%eax
    1d4e:	07                   	pop    %es
    1d4f:	00 00                	add    %al,(%eax)
    1d51:	27                   	daa    
    1d52:	01 00                	add    %eax,(%eax)
    1d54:	00 06                	add    %al,(%esi)
    1d56:	0d 04 00 00 01       	or     $0x1000004,%eax
    1d5b:	20 a9 00 00 00 02    	and    %ch,0x2000000(%ecx)
    1d61:	91                   	xchg   %eax,%ecx
    1d62:	00 07                	add    %al,(%edi)
    1d64:	6e                   	outsb  %ds:(%esi),(%dx)
    1d65:	00 01                	add    %al,(%ecx)
    1d67:	20 af 00 00 00 02    	and    %ch,0x2000000(%edi)
    1d6d:	91                   	xchg   %eax,%ecx
    1d6e:	04 07                	add    $0x7,%al
    1d70:	6c                   	insb   (%dx),%es:(%edi)
    1d71:	65 6e                	outsb  %gs:(%esi),(%dx)
    1d73:	00 01                	add    %al,(%ecx)
    1d75:	20 b6 00 00 00 02    	and    %dh,0x2000000(%esi)
    1d7b:	91                   	xchg   %eax,%ecx
    1d7c:	08 08                	or     %cl,(%eax)
    1d7e:	69 00 01 24 b6 00    	imul   $0xb62401,(%eax),%eax
    1d84:	00 00                	add    %al,(%eax)
    1d86:	02 91 70 08 6a 00    	add    0x6a0870(%ecx),%dl
    1d8c:	01 24 b6             	add    %esp,(%esi,%esi,4)
    1d8f:	00 00                	add    %al,(%eax)
    1d91:	00 02                	add    %al,(%edx)
    1d93:	91                   	xchg   %eax,%ecx
    1d94:	6c                   	insb   (%dx),%es:(%edi)
    1d95:	08 64 00 01          	or     %ah,0x1(%eax,%eax,1)
    1d99:	24 b6                	and    $0xb6,%al
    1d9b:	00 00                	add    %al,(%eax)
    1d9d:	00 02                	add    %al,(%edx)
    1d9f:	91                   	xchg   %eax,%ecx
    1da0:	68 00 05 01 fc       	push   $0xfc010500
    1da5:	03 00                	add    (%eax),%eax
    1da7:	00 01                	add    %al,(%ecx)
    1da9:	34 01                	xor    $0x1,%al
    1dab:	b6 00                	mov    $0x0,%dh
    1dad:	00 00                	add    %al,(%eax)
    1daf:	b8 4a 10 00 e6       	mov    $0xe600104a,%eax
    1db4:	4a                   	dec    %edx
    1db5:	10 00                	adc    %al,(%eax)
    1db7:	f4                   	hlt    
    1db8:	07                   	pop    %es
    1db9:	00 00                	add    %al,(%eax)
    1dbb:	6f                   	outsl  %ds:(%esi),(%dx)
    1dbc:	01 00                	add    %eax,(%eax)
    1dbe:	00 07                	add    %al,(%edi)
    1dc0:	64                   	fs
    1dc1:	73 74                	jae    1e37 <gdt_len+0x1627>
    1dc3:	00 01                	add    %al,(%ecx)
    1dc5:	34 a9                	xor    $0xa9,%al
    1dc7:	00 00                	add    %al,(%eax)
    1dc9:	00 02                	add    %al,(%edx)
    1dcb:	91                   	xchg   %eax,%ecx
    1dcc:	00 07                	add    %al,(%edi)
    1dce:	73 72                	jae    1e42 <gdt_len+0x1632>
    1dd0:	63 00                	arpl   %ax,(%eax)
    1dd2:	01 34 a9             	add    %esi,(%ecx,%ebp,4)
    1dd5:	00 00                	add    %al,(%eax)
    1dd7:	00 02                	add    %al,(%edx)
    1dd9:	91                   	xchg   %eax,%ecx
    1dda:	04 06                	add    $0x6,%al
    1ddc:	4b                   	dec    %ebx
    1ddd:	04 00                	add    $0x0,%al
    1ddf:	00 01                	add    %al,(%ecx)
    1de1:	34 b6                	xor    $0xb6,%al
    1de3:	00 00                	add    %al,(%eax)
    1de5:	00 02                	add    %al,(%edx)
    1de7:	91                   	xchg   %eax,%ecx
    1de8:	08 00                	or     %al,(%eax)
    1dea:	05 01 39 04 00       	add    $0x43901,%eax
    1def:	00 01                	add    %al,(%ecx)
    1df1:	3c 01                	cmp    $0x1,%al
    1df3:	b6 00                	mov    $0x0,%dh
    1df5:	00 00                	add    %al,(%eax)
    1df7:	e6 4a                	out    %al,$0x4a
    1df9:	10 00                	adc    %al,(%eax)
    1dfb:	42                   	inc    %edx
    1dfc:	4b                   	dec    %ebx
    1dfd:	10 00                	adc    %al,(%eax)
    1dff:	2c 08                	sub    $0x8,%al
    1e01:	00 00                	add    %al,(%eax)
    1e03:	cf                   	iret   
    1e04:	01 00                	add    %eax,(%eax)
    1e06:	00 06                	add    %al,(%esi)
    1e08:	5f                   	pop    %edi
    1e09:	04 00                	add    $0x0,%al
    1e0b:	00 01                	add    %al,(%ecx)
    1e0d:	3c a9                	cmp    $0xa9,%al
    1e0f:	00 00                	add    %al,(%eax)
    1e11:	00 02                	add    %al,(%edx)
    1e13:	91                   	xchg   %eax,%ecx
    1e14:	00 06                	add    %al,(%esi)
    1e16:	40                   	inc    %eax
    1e17:	04 00                	add    $0x0,%al
    1e19:	00 01                	add    %al,(%ecx)
    1e1b:	3c a9                	cmp    $0xa9,%al
    1e1d:	00 00                	add    %al,(%eax)
    1e1f:	00 02                	add    %al,(%edx)
    1e21:	91                   	xchg   %eax,%ecx
    1e22:	04 07                	add    $0x7,%al
    1e24:	6e                   	outsb  %ds:(%esi),(%dx)
    1e25:	00 01                	add    %al,(%ecx)
    1e27:	3c b6                	cmp    $0xb6,%al
    1e29:	00 00                	add    %al,(%eax)
    1e2b:	00 02                	add    %al,(%edx)
    1e2d:	91                   	xchg   %eax,%ecx
    1e2e:	08 08                	or     %cl,(%eax)
    1e30:	69 00 01 3e b6 00    	imul   $0xb63e01,(%eax),%eax
    1e36:	00 00                	add    %al,(%eax)
    1e38:	02 91 74 08 72 65    	add    0x65720874(%ecx),%dl
    1e3e:	74 00                	je     1e40 <gdt_len+0x1630>
    1e40:	01 3e                	add    %edi,(%esi)
    1e42:	b6 00                	mov    $0x0,%dh
    1e44:	00 00                	add    %al,(%eax)
    1e46:	02 91 70 00 05 01    	add    0x1050070(%ecx),%dl
    1e4c:	30 04 00             	xor    %al,(%eax,%eax,1)
    1e4f:	00 01                	add    %al,(%ecx)
    1e51:	48                   	dec    %eax
    1e52:	01 b6 00 00 00 42    	add    %esi,0x42000000(%esi)
    1e58:	4b                   	dec    %ebx
    1e59:	10 00                	adc    %al,(%eax)
    1e5b:	69 4c 10 00 64 08 00 	imul   $0x864,0x0(%eax,%edx,1),%ecx
    1e62:	00 
    1e63:	3a 02                	cmp    (%edx),%al
    1e65:	00 00                	add    %al,(%eax)
    1e67:	07                   	pop    %es
    1e68:	73 74                	jae    1ede <gdt_len+0x16ce>
    1e6a:	72 00                	jb     1e6c <gdt_len+0x165c>
    1e6c:	01 48 a9             	add    %ecx,-0x57(%eax)
    1e6f:	00 00                	add    %al,(%eax)
    1e71:	00 02                	add    %al,(%edx)
    1e73:	91                   	xchg   %eax,%ecx
    1e74:	00 07                	add    %al,(%edi)
    1e76:	66 6d                	insw   (%dx),%es:(%edi)
    1e78:	74 00                	je     1e7a <gdt_len+0x166a>
    1e7a:	01 48 a9             	add    %ecx,-0x57(%eax)
    1e7d:	00 00                	add    %al,(%eax)
    1e7f:	00 02                	add    %al,(%edx)
    1e81:	91                   	xchg   %eax,%ecx
    1e82:	04 07                	add    $0x7,%al
    1e84:	61                   	popa   
    1e85:	70 00                	jo     1e87 <gdt_len+0x1677>
    1e87:	01 48 41             	add    %ecx,0x41(%eax)
    1e8a:	00 00                	add    %al,(%eax)
    1e8c:	00 02                	add    %al,(%edx)
    1e8e:	91                   	xchg   %eax,%ecx
    1e8f:	08 08                	or     %cl,(%eax)
    1e91:	69 00 01 4a b6 00    	imul   $0xb64a01,(%eax),%eax
    1e97:	00 00                	add    %al,(%eax)
    1e99:	02 91 74 08 6e 00    	add    0x6e0874(%ecx),%dl
    1e9f:	01 4a b6             	add    %ecx,-0x4a(%edx)
    1ea2:	00 00                	add    %al,(%eax)
    1ea4:	00 02                	add    %al,(%edx)
    1ea6:	91                   	xchg   %eax,%ecx
    1ea7:	6c                   	insb   (%dx),%es:(%edi)
    1ea8:	08 70 00             	or     %dh,0x0(%eax)
    1eab:	01 4b a9             	add    %ecx,-0x57(%ebx)
    1eae:	00 00                	add    %al,(%eax)
    1eb0:	00 02                	add    %al,(%edx)
    1eb2:	91                   	xchg   %eax,%ecx
    1eb3:	70 00                	jo     1eb5 <gdt_len+0x16a5>
    1eb5:	05 01 31 04 00       	add    $0x43101,%eax
    1eba:	00 01                	add    %al,(%ecx)
    1ebc:	6e                   	outsb  %ds:(%esi),(%dx)
    1ebd:	01 b6 00 00 00 69    	add    %esi,0x69000000(%esi)
    1ec3:	4c                   	dec    %esp
    1ec4:	10 00                	adc    %al,(%eax)
    1ec6:	90                   	nop
    1ec7:	4c                   	dec    %esp
    1ec8:	10 00                	adc    %al,(%eax)
    1eca:	9c                   	pushf  
    1ecb:	08 00                	or     %al,(%eax)
    1ecd:	00 8b 02 00 00 07    	add    %cl,0x7000002(%ebx)
    1ed3:	73 74                	jae    1f49 <gdt_len+0x1739>
    1ed5:	72 00                	jb     1ed7 <gdt_len+0x16c7>
    1ed7:	01 6e a9             	add    %ebp,-0x57(%esi)
    1eda:	00 00                	add    %al,(%eax)
    1edc:	00 02                	add    %al,(%edx)
    1ede:	91                   	xchg   %eax,%ecx
    1edf:	00 07                	add    %al,(%edi)
    1ee1:	66 6d                	insw   (%dx),%es:(%edi)
    1ee3:	74 00                	je     1ee5 <gdt_len+0x16d5>
    1ee5:	01 6e a9             	add    %ebp,-0x57(%esi)
    1ee8:	00 00                	add    %al,(%eax)
    1eea:	00 02                	add    %al,(%edx)
    1eec:	91                   	xchg   %eax,%ecx
    1eed:	04 0b                	add    $0xb,%al
    1eef:	08 61 70             	or     %ah,0x70(%ecx)
    1ef2:	00 01                	add    %al,(%ecx)
    1ef4:	70 41                	jo     1f37 <gdt_len+0x1727>
    1ef6:	00 00                	add    %al,(%eax)
    1ef8:	00 02                	add    %al,(%edx)
    1efa:	91                   	xchg   %eax,%ecx
    1efb:	74 0c                	je     1f09 <gdt_len+0x16f9>
    1efd:	70 00                	jo     1eff <gdt_len+0x16ef>
    1eff:	01 71 a9             	add    %esi,-0x57(%ecx)
    1f02:	00 00                	add    %al,(%eax)
    1f04:	00 00                	add    %al,(%eax)
    1f06:	05 01 32 04 00       	add    $0x43201,%eax
    1f0b:	00 01                	add    %al,(%ecx)
    1f0d:	77 01                	ja     1f10 <gdt_len+0x1700>
    1f0f:	b6 00                	mov    $0x0,%dh
    1f11:	00 00                	add    %al,(%eax)
    1f13:	90                   	nop
    1f14:	4c                   	dec    %esp
    1f15:	10 00                	adc    %al,(%eax)
    1f17:	d6                   	(bad)  
    1f18:	4c                   	dec    %esp
    1f19:	10 00                	adc    %al,(%eax)
    1f1b:	d4 08                	aam    $0x8
    1f1d:	00 00                	add    %al,(%eax)
    1f1f:	d5 02                	aad    $0x2
    1f21:	00 00                	add    %al,(%eax)
    1f23:	07                   	pop    %es
    1f24:	66 6d                	insw   (%dx),%es:(%edi)
    1f26:	74 00                	je     1f28 <gdt_len+0x1718>
    1f28:	01 77 a9             	add    %esi,-0x57(%edi)
    1f2b:	00 00                	add    %al,(%eax)
    1f2d:	00 02                	add    %al,(%edx)
    1f2f:	91                   	xchg   %eax,%ecx
    1f30:	00 0b                	add    %cl,(%ebx)
    1f32:	08 73 74             	or     %dh,0x74(%ebx)
    1f35:	72 00                	jb     1f37 <gdt_len+0x1727>
    1f37:	01 79 d5             	add    %edi,-0x2b(%ecx)
    1f3a:	02 00                	add    (%eax),%al
    1f3c:	00 03                	add    %al,(%ebx)
    1f3e:	91                   	xchg   %eax,%ecx
    1f3f:	8c 7f 08             	mov    %?,0x8(%edi)
    1f42:	61                   	popa   
    1f43:	70 00                	jo     1f45 <gdt_len+0x1735>
    1f45:	01 7a 41             	add    %edi,0x41(%edx)
    1f48:	00 00                	add    %al,(%eax)
    1f4a:	00 03                	add    %al,(%ebx)
    1f4c:	91                   	xchg   %eax,%ecx
    1f4d:	88 7f 00             	mov    %bh,0x0(%edi)
    1f50:	0d 3a 00 00 00       	or     $0x3a,%eax
    1f55:	e5 02                	in     $0x2,%eax
    1f57:	00 00                	add    %al,(%eax)
    1f59:	0e                   	push   %cs
    1f5a:	e5 02                	in     $0x2,%eax
    1f5c:	00 00                	add    %al,(%eax)
    1f5e:	63 00                	arpl   %ax,(%eax)
    1f60:	04 04                	add    $0x4,%al
    1f62:	07                   	pop    %es
    1f63:	19 01                	sbb    %eax,(%ecx)
    1f65:	00 00                	add    %al,(%eax)
    1f67:	0f 01 26             	smsw   (%esi)
    1f6a:	04 00                	add    $0x0,%al
    1f6c:	00 01                	add    %al,(%ecx)
    1f6e:	82                   	(bad)  
    1f6f:	01 d6                	add    %edx,%esi
    1f71:	4c                   	dec    %esp
    1f72:	10 00                	adc    %al,(%eax)
    1f74:	27                   	daa    
    1f75:	4d                   	dec    %ebp
    1f76:	10 00                	adc    %al,(%eax)
    1f78:	0c 09                	or     $0x9,%al
    1f7a:	00 00                	add    %al,(%eax)
    1f7c:	21 03                	and    %eax,(%ebx)
    1f7e:	00 00                	add    %al,(%eax)
    1f80:	07                   	pop    %es
    1f81:	73 65                	jae    1fe8 <gdt_len+0x17d8>
    1f83:	63 00                	arpl   %ax,(%eax)
    1f85:	01 82 b6 00 00 00    	add    %eax,0xb6(%edx)
    1f8b:	02 91 00 08 63 63    	add    0x63630800(%ecx),%dl
    1f91:	00 01                	add    %al,(%ecx)
    1f93:	85 21                	test   %esp,(%ecx)
    1f95:	03 00                	add    (%eax),%eax
    1f97:	00 02                	add    %al,(%edx)
    1f99:	91                   	xchg   %eax,%ecx
    1f9a:	68 00 04 08 07       	push   $0x7080400
    1f9f:	0f 01 00             	sgdtl  (%eax)
    1fa2:	00 0f                	add    %cl,(%edi)
    1fa4:	01 07                	add    %eax,(%edi)
    1fa6:	04 00                	add    $0x0,%al
    1fa8:	00 01                	add    %al,(%ecx)
    1faa:	89 01                	mov    %eax,(%ecx)
    1fac:	27                   	daa    
    1fad:	4d                   	dec    %ebp
    1fae:	10 00                	adc    %al,(%eax)
    1fb0:	7b 4d                	jnp    1fff <gdt_len+0x17ef>
    1fb2:	10 00                	adc    %al,(%eax)
    1fb4:	44                   	inc    %esp
    1fb5:	09 00                	or     %eax,(%eax)
    1fb7:	00 83 03 00 00 07    	add    %al,0x7000003(%ebx)
    1fbd:	73 74                	jae    2033 <gdt_len+0x1823>
    1fbf:	72 00                	jb     1fc1 <gdt_len+0x17b1>
    1fc1:	01 89 a9 00 00 00    	add    %ecx,0xa9(%ecx)
    1fc7:	02 91 00 10 2d 4d    	add    0x4d2d1000(%ecx),%dl
    1fcd:	10 00                	adc    %al,(%eax)
    1fcf:	6c                   	insb   (%dx),%es:(%edi)
    1fd0:	4d                   	dec    %ebp
    1fd1:	10 00                	adc    %al,(%eax)
    1fd3:	11 af 04 00 00 01    	adc    %ebp,0x1000004(%edi)
    1fd9:	8b a9 00 00 00 02    	mov    0x2000000(%ecx),%ebp
    1fdf:	91                   	xchg   %eax,%ecx
    1fe0:	74 08                	je     1fea <gdt_len+0x17da>
    1fe2:	70 6f                	jo     2053 <gdt_len+0x1843>
    1fe4:	73 00                	jae    1fe6 <gdt_len+0x17d6>
    1fe6:	01 8b b6 00 00 00    	add    %ecx,0xb6(%ebx)
    1fec:	02 91 70 08 63 68    	add    0x68630870(%ecx),%dl
    1ff2:	00 01                	add    %al,(%ecx)
    1ff4:	8b 83 03 00 00 02    	mov    0x2000003(%ebx),%eax
    1ffa:	91                   	xchg   %eax,%ecx
    1ffb:	6e                   	outsb  %ds:(%esi),(%dx)
    1ffc:	00 00                	add    %al,(%eax)
    1ffe:	04 02                	add    $0x2,%al
    2000:	05 3c 00 00 00       	add    $0x3c,%eax
    2005:	12 03                	adc    (%ebx),%al
    2007:	04 00                	add    $0x0,%al
    2009:	00 03                	add    %al,(%ebx)
    200b:	56                   	push   %esi
    200c:	b6 00                	mov    $0x0,%dh
    200e:	00 00                	add    %al,(%eax)
    2010:	01 01                	add    %eax,(%ecx)
    2012:	12 5a 00             	adc    0x0(%edx),%bl
    2015:	00 00                	add    %al,(%eax)
    2017:	01 81 21 03 00 00    	add    %eax,0x321(%ecx)
    201d:	01 01                	add    %eax,(%ecx)
    201f:	13 03                	adc    (%ebx),%eax
    2021:	04 00                	add    $0x0,%al
    2023:	00 01                	add    %al,(%ecx)
    2025:	88 b6 00 00 00 01    	mov    %dh,0x1000000(%esi)
    202b:	05 03 a4 6e 10       	add    $0x106ea403,%eax
    2030:	00 12                	add    %dl,(%edx)
    2032:	5a                   	pop    %edx
    2033:	00 00                	add    %al,(%eax)
    2035:	00 01                	add    %al,(%ecx)
    2037:	81 21 03 00 00 01    	andl   $0x1000003,(%ecx)
    203d:	01 00                	add    %eax,(%eax)
    203f:	8c 02                	mov    %es,(%edx)
    2041:	00 00                	add    %al,(%eax)
    2043:	02 00                	add    (%eax),%al
    2045:	c8 06 00 00          	enter  $0x6,$0x0
    2049:	04 01                	add    $0x1,%al
    204b:	45                   	inc    %ebp
    204c:	02 00                	add    (%eax),%al
    204e:	00 01                	add    %al,(%ecx)
    2050:	88 04 00             	mov    %al,(%eax,%eax,1)
    2053:	00 f9                	add    %bh,%cl
    2055:	01 00                	add    %eax,(%eax)
    2057:	00 7c 4d 10          	add    %bh,0x10(%ebp,%ecx,2)
    205b:	00 f2                	add    %dh,%dl
    205d:	51                   	push   %ecx
    205e:	10 00                	adc    %al,(%eax)
    2060:	2c 05                	sub    $0x5,%al
    2062:	00 00                	add    %al,(%eax)
    2064:	02 74 6d 00          	add    0x0(%ebp,%ebp,2),%dh
    2068:	18 01                	sbb    %al,(%ecx)
    206a:	02 85 00 00 00 03    	add    0x3000000(%ebp),%al
    2070:	9c                   	pushf  
    2071:	02 00                	add    (%eax),%al
    2073:	00 01                	add    %al,(%ecx)
    2075:	03 85 00 00 00 02    	add    0x2000000(%ebp),%eax
    207b:	23 00                	and    (%eax),%eax
    207d:	03 33                	add    (%ebx),%esi
    207f:	02 00                	add    (%eax),%al
    2081:	00 01                	add    %al,(%ecx)
    2083:	03 85 00 00 00 02    	add    0x2000000(%ebp),%eax
    2089:	23 04 03             	and    (%ebx,%eax,1),%eax
    208c:	00 01                	add    %al,(%ecx)
    208e:	00 00                	add    %al,(%eax)
    2090:	01 03                	add    %eax,(%ebx)
    2092:	85 00                	test   %eax,(%eax)
    2094:	00 00                	add    %al,(%eax)
    2096:	02 23                	add    (%ebx),%ah
    2098:	08 03                	or     %al,(%ebx)
    209a:	72 01                	jb     209d <gdt_len+0x188d>
    209c:	00 00                	add    %al,(%eax)
    209e:	01 03                	add    %eax,(%ebx)
    20a0:	85 00                	test   %eax,(%eax)
    20a2:	00 00                	add    %al,(%eax)
    20a4:	02 23                	add    (%ebx),%ah
    20a6:	0c 03                	or     $0x3,%al
    20a8:	08 01                	or     %al,(%ecx)
    20aa:	00 00                	add    %al,(%eax)
    20ac:	01 03                	add    %eax,(%ebx)
    20ae:	85 00                	test   %eax,(%eax)
    20b0:	00 00                	add    %al,(%eax)
    20b2:	02 23                	add    (%ebx),%ah
    20b4:	10 03                	adc    %al,(%ebx)
    20b6:	d1 01                	roll   (%ecx)
    20b8:	00 00                	add    %al,(%eax)
    20ba:	01 03                	add    %eax,(%ebx)
    20bc:	85 00                	test   %eax,(%eax)
    20be:	00 00                	add    %al,(%eax)
    20c0:	02 23                	add    (%ebx),%ah
    20c2:	14 00                	adc    $0x0,%al
    20c4:	04 04                	add    $0x4,%al
    20c6:	05 69 6e 74 00       	add    $0x746e69,%eax
    20cb:	05 01 8f 04 00       	add    $0x48f01,%eax
    20d0:	00 01                	add    %al,(%ecx)
    20d2:	2b 7c 4d 10          	sub    0x10(%ebp,%ecx,2),%edi
    20d6:	00 71 50             	add    %dh,0x50(%ecx)
    20d9:	10 00                	adc    %al,(%eax)
    20db:	70 09                	jo     20e6 <gdt_len+0x18d6>
    20dd:	00 00                	add    %al,(%eax)
    20df:	8f 01                	popl   (%ecx)
    20e1:	00 00                	add    %al,(%eax)
    20e3:	06                   	push   %es
    20e4:	01 7e 04             	add    %edi,0x4(%esi)
    20e7:	00 00                	add    %al,(%eax)
    20e9:	01 3a                	add    %edi,(%edx)
    20eb:	85 00                	test   %eax,(%eax)
    20ed:	00 00                	add    %al,(%eax)
    20ef:	01 b7 00 00 00 07    	add    %esi,0x7000000(%edi)
    20f5:	00 08                	add    %cl,(%eax)
    20f7:	92                   	xchg   %eax,%edx
    20f8:	4d                   	dec    %ebp
    20f9:	10 00                	adc    %al,(%eax)
    20fb:	aa                   	stos   %al,%es:(%edi)
    20fc:	4d                   	dec    %ebp
    20fd:	10 00                	adc    %al,(%eax)
    20ff:	d3 00                	roll   %cl,(%eax)
    2101:	00 00                	add    %al,(%eax)
    2103:	09 f0                	or     %esi,%eax
    2105:	02 00                	add    (%eax),%al
    2107:	00 01                	add    %al,(%ecx)
    2109:	2d 8f 01 00 00       	sub    $0x18f,%eax
    210e:	02 91 63 00 08 c1    	add    -0x3ef7ff9d(%ecx),%dl
    2114:	4d                   	dec    %ebp
    2115:	10 00                	adc    %al,(%eax)
    2117:	d9 4d 10             	(bad)  0x10(%ebp)
    211a:	00 ef                	add    %ch,%bh
    211c:	00 00                	add    %al,(%eax)
    211e:	00 09                	add    %cl,(%ecx)
    2120:	f0 02 00             	lock add (%eax),%al
    2123:	00 01                	add    %al,(%ecx)
    2125:	2e 8f 01             	popl   %cs:(%ecx)
    2128:	00 00                	add    %al,(%eax)
    212a:	02 91 62 00 08 f0    	add    -0xff7ff9e(%ecx),%dl
    2130:	4d                   	dec    %ebp
    2131:	10 00                	adc    %al,(%eax)
    2133:	08 4e 10             	or     %cl,0x10(%esi)
    2136:	00 0b                	add    %cl,(%ebx)
    2138:	01 00                	add    %eax,(%eax)
    213a:	00 09                	add    %cl,(%ecx)
    213c:	f0 02 00             	lock add (%eax),%al
    213f:	00 01                	add    %al,(%ecx)
    2141:	2f                   	das    
    2142:	8f 01                	popl   (%ecx)
    2144:	00 00                	add    %al,(%eax)
    2146:	02 91 61 00 08 1f    	add    0x1f080061(%ecx),%dl
    214c:	4e                   	dec    %esi
    214d:	10 00                	adc    %al,(%eax)
    214f:	37                   	aaa    
    2150:	4e                   	dec    %esi
    2151:	10 00                	adc    %al,(%eax)
    2153:	27                   	daa    
    2154:	01 00                	add    %eax,(%eax)
    2156:	00 09                	add    %cl,(%ecx)
    2158:	f0 02 00             	lock add (%eax),%al
    215b:	00 01                	add    %al,(%ecx)
    215d:	30 8f 01 00 00 02    	xor    %cl,0x2000001(%edi)
    2163:	91                   	xchg   %eax,%ecx
    2164:	60                   	pusha  
    2165:	00 08                	add    %cl,(%eax)
    2167:	4e                   	dec    %esi
    2168:	4e                   	dec    %esi
    2169:	10 00                	adc    %al,(%eax)
    216b:	66 4e                	dec    %si
    216d:	10 00                	adc    %al,(%eax)
    216f:	43                   	inc    %ebx
    2170:	01 00                	add    %eax,(%eax)
    2172:	00 09                	add    %cl,(%ecx)
    2174:	f0 02 00             	lock add (%eax),%al
    2177:	00 01                	add    %al,(%ecx)
    2179:	31 8f 01 00 00 02    	xor    %ecx,0x2000001(%edi)
    217f:	91                   	xchg   %eax,%ecx
    2180:	5f                   	pop    %edi
    2181:	00 08                	add    %cl,(%eax)
    2183:	7d 4e                	jge    21d3 <gdt_len+0x19c3>
    2185:	10 00                	adc    %al,(%eax)
    2187:	95                   	xchg   %eax,%ebp
    2188:	4e                   	dec    %esi
    2189:	10 00                	adc    %al,(%eax)
    218b:	5f                   	pop    %edi
    218c:	01 00                	add    %eax,(%eax)
    218e:	00 09                	add    %cl,(%ecx)
    2190:	f0 02 00             	lock add (%eax),%al
    2193:	00 01                	add    %al,(%ecx)
    2195:	32 8f 01 00 00 02    	xor    0x2000001(%edi),%cl
    219b:	91                   	xchg   %eax,%ecx
    219c:	5e                   	pop    %esi
    219d:	00 0a                	add    %cl,(%edx)
    219f:	7b 4f                	jnp    21f0 <gdt_len+0x19e0>
    21a1:	10 00                	adc    %al,(%eax)
    21a3:	05 50 10 00 0b       	add    $0xb001050,%eax
    21a8:	70 00                	jo     21aa <gdt_len+0x199a>
    21aa:	01 39                	add    %edi,(%ecx)
    21ac:	96                   	xchg   %eax,%esi
    21ad:	01 00                	add    %eax,(%eax)
    21af:	00 02                	add    %al,(%edx)
    21b1:	91                   	xchg   %eax,%ecx
    21b2:	6c                   	insb   (%dx),%es:(%edi)
    21b3:	0b 70 62             	or     0x62(%eax),%esi
    21b6:	00 01                	add    %al,(%ecx)
    21b8:	39 9c 01 00 00 02 91 	cmp    %ebx,-0x6efe0000(%ecx,%eax,1)
    21bf:	68 0b 69 00 01       	push   $0x100690b
    21c4:	39 85 00 00 00 02    	cmp    %eax,0x2000000(%ebp)
    21ca:	91                   	xchg   %eax,%ecx
    21cb:	64 00 00             	add    %al,%fs:(%eax)
    21ce:	0c 01                	or     $0x1,%al
    21d0:	08 46 01             	or     %al,0x1(%esi)
    21d3:	00 00                	add    %al,(%eax)
    21d5:	0d 04 85 00 00       	or     $0x8504,%eax
    21da:	00 0d 04 a2 01 00    	add    %cl,0x1a204
    21e0:	00 0c 01             	add    %cl,(%ecx,%eax,1)
    21e3:	06                   	push   %es
    21e4:	4f                   	dec    %edi
    21e5:	01 00                	add    %eax,(%eax)
    21e7:	00 0e                	add    %cl,(%esi)
    21e9:	01 71 04             	add    %esi,0x4(%ecx)
    21ec:	00 00                	add    %al,(%eax)
    21ee:	01 42 01             	add    %eax,0x1(%edx)
    21f1:	71 50                	jno    2243 <gdt_len+0x1a33>
    21f3:	10 00                	adc    %al,(%eax)
    21f5:	f2 51                	repnz push %ecx
    21f7:	10 00                	adc    %al,(%eax)
    21f9:	a8 09                	test   $0x9,%al
    21fb:	00 00                	add    %al,(%eax)
    21fd:	de 01                	fiadd  (%ecx)
    21ff:	00 00                	add    %al,(%eax)
    2201:	0f 74 6d 00          	pcmpeqb 0x0(%ebp),%mm5
    2205:	01 42 de             	add    %eax,-0x22(%edx)
    2208:	01 00                	add    %eax,(%eax)
    220a:	00 02                	add    %al,(%edx)
    220c:	91                   	xchg   %eax,%ecx
    220d:	00 09                	add    %cl,(%ecx)
    220f:	d4 01                	aam    $0x1
    2211:	00 00                	add    %al,(%eax)
    2213:	01 44 85 00          	add    %eax,0x0(%ebp,%eax,4)
    2217:	00 00                	add    %al,(%eax)
    2219:	02 91 6c 00 0d 04    	add    0x40d006c(%ecx),%dl
    221f:	25 00 00 00 10       	and    $0x10000000,%eax
    2224:	99                   	cltd   
    2225:	04 00                	add    $0x0,%al
    2227:	00 01                	add    %al,(%ecx)
    2229:	05 f1 01 00 00       	add    $0x1f1,%eax
    222e:	01 01                	add    %eax,(%ecx)
    2230:	0c 04                	or     $0x4,%al
    2232:	07                   	pop    %es
    2233:	14 01                	adc    $0x1,%al
    2235:	00 00                	add    %al,(%eax)
    2237:	11 85 00 00 00 08    	adc    %eax,0x8000000(%ebp)
    223d:	02 00                	add    (%eax),%al
    223f:	00 12                	add    %dl,(%edx)
    2241:	08 02                	or     %al,(%edx)
    2243:	00 00                	add    %al,(%eax)
    2245:	0b 00                	or     (%eax),%eax
    2247:	0c 04                	or     $0x4,%al
    2249:	07                   	pop    %es
    224a:	19 01                	sbb    %eax,(%ecx)
    224c:	00 00                	add    %al,(%eax)
    224e:	10 79 04             	adc    %bh,0x4(%ecx)
    2251:	00 00                	add    %al,(%eax)
    2253:	01 1a                	add    %ebx,(%edx)
    2255:	f8                   	clc    
    2256:	01 00                	add    %eax,(%eax)
    2258:	00 01                	add    %al,(%ecx)
    225a:	01 10                	add    %edx,(%eax)
    225c:	74 04                	je     2262 <gdt_len+0x1a52>
    225e:	00 00                	add    %al,(%eax)
    2260:	01 28                	add    %ebp,(%eax)
    2262:	25 00 00 00 01       	and    $0x1000000,%eax
    2267:	01 11                	add    %edx,(%ecx)
    2269:	a2 01 00 00 3a       	mov    %al,0x3a000001
    226e:	02 00                	add    (%eax),%al
    2270:	00 13                	add    %dl,(%ebx)
    2272:	08 02                	or     %al,(%edx)
    2274:	00 00                	add    %al,(%eax)
    2276:	ff 03                	incl   (%ebx)
    2278:	00 14 62             	add    %dl,(%edx,%eiz,2)
    227b:	75 66                	jne    22e3 <gdt_len+0x1ad3>
    227d:	00 01                	add    %al,(%ecx)
    227f:	2a 29                	sub    (%ecx),%ch
    2281:	02 00                	add    (%eax),%al
    2283:	00 01                	add    %al,(%ecx)
    2285:	01 15 99 04 00 00    	add    %edx,0x499
    228b:	01 05 f1 01 00 00    	add    %eax,0x1f1
    2291:	01 05 03 c0 15 15    	add    %eax,0x1515c003
    2297:	00 15 79 04 00 00    	add    %dl,0x479
    229d:	01 1a                	add    %ebx,(%edx)
    229f:	f8                   	clc    
    22a0:	01 00                	add    %eax,(%eax)
    22a2:	00 01                	add    %al,(%ecx)
    22a4:	05 03 c0 6e 10       	add    $0x106ec003,%eax
    22a9:	00 15 74 04 00 00    	add    %dl,0x474
    22af:	01 28                	add    %ebp,(%eax)
    22b1:	25 00 00 00 01       	and    $0x1000000,%eax
    22b6:	05 03 80 11 15       	add    $0x15118003,%eax
    22bb:	00 16                	add    %dl,(%esi)
    22bd:	62 75 66             	bound  %esi,0x66(%ebp)
    22c0:	00 01                	add    %al,(%ecx)
    22c2:	2a 29                	sub    (%ecx),%ch
    22c4:	02 00                	add    (%eax),%al
    22c6:	00 01                	add    %al,(%ecx)
    22c8:	05 03 e0 15 15       	add    $0x1515e003,%eax
    22cd:	00 00                	add    %al,(%eax)
    22cf:	07                   	pop    %es
    22d0:	04 00                	add    $0x0,%al
    22d2:	00 02                	add    %al,(%edx)
    22d4:	00 fd                	add    %bh,%ch
    22d6:	07                   	pop    %es
    22d7:	00 00                	add    %al,(%eax)
    22d9:	04 01                	add    $0x1,%al
    22db:	45                   	inc    %ebp
    22dc:	02 00                	add    (%eax),%al
    22de:	00 01                	add    %al,(%ecx)
    22e0:	a6                   	cmpsb  %es:(%edi),%ds:(%esi)
    22e1:	04 00                	add    $0x0,%al
    22e3:	00 f9                	add    %bh,%cl
    22e5:	01 00                	add    %eax,(%eax)
    22e7:	00 f4                	add    %dh,%ah
    22e9:	51                   	push   %ecx
    22ea:	10 00                	adc    %al,(%eax)
    22ec:	5b                   	pop    %ebx
    22ed:	52                   	push   %edx
    22ee:	10 00                	adc    %al,(%eax)
    22f0:	c1 05 00 00 02 da 02 	roll   $0x2,0xda020000
    22f7:	00 00                	add    %al,(%eax)
    22f9:	08 02                	or     %al,(%edx)
    22fb:	5c                   	pop    %esp
    22fc:	d2 00                	rolb   %cl,(%eax)
    22fe:	00 00                	add    %al,(%eax)
    2300:	03 b2 00 00 00 02    	add    0x2000000(%edx),%esi
    2306:	5d                   	pop    %ebp
    2307:	d2 00                	rolb   %cl,(%eax)
    2309:	00 00                	add    %al,(%eax)
    230b:	02 23                	add    (%ebx),%ah
    230d:	00 03                	add    %al,(%ebx)
    230f:	a5                   	movsl  %ds:(%esi),%es:(%edi)
    2310:	01 00                	add    %eax,(%eax)
    2312:	00 02                	add    %al,(%edx)
    2314:	5e                   	pop    %esi
    2315:	d2 00                	rolb   %cl,(%eax)
    2317:	00 00                	add    %al,(%eax)
    2319:	02 23                	add    (%ebx),%ah
    231b:	02 04 ac             	add    (%esp,%ebp,4),%al
    231e:	01 00                	add    %eax,(%eax)
    2320:	00 02                	add    %al,(%edx)
    2322:	5f                   	pop    %edi
    2323:	d2 00                	rolb   %cl,(%eax)
    2325:	00 00                	add    %al,(%eax)
    2327:	02 08                	add    (%eax),%cl
    2329:	08 02                	or     %al,(%edx)
    232b:	23 04 04             	and    (%esp,%eax,1),%eax
    232e:	83 01 00             	addl   $0x0,(%ecx)
    2331:	00 02                	add    %al,(%edx)
    2333:	60                   	pusha  
    2334:	d2 00                	rolb   %cl,(%eax)
    2336:	00 00                	add    %al,(%eax)
    2338:	02 04 04             	add    (%esp,%eax,1),%al
    233b:	02 23                	add    (%ebx),%ah
    233d:	04 05                	add    $0x5,%al
    233f:	73 00                	jae    2341 <gdt_len+0x1b31>
    2341:	02 61 d2             	add    -0x2e(%ecx),%ah
    2344:	00 00                	add    %al,(%eax)
    2346:	00 02                	add    %al,(%edx)
    2348:	01 03                	add    %eax,(%ebx)
    234a:	02 23                	add    (%ebx),%ah
    234c:	04 05                	add    $0x5,%al
    234e:	64                   	fs
    234f:	70 6c                	jo     23bd <gdt_len+0x1bad>
    2351:	00 02                	add    %al,(%edx)
    2353:	62                   	(bad)  
    2354:	d2 00                	rolb   %cl,(%eax)
    2356:	00 00                	add    %al,(%eax)
    2358:	02 02                	add    (%edx),%al
    235a:	01 02                	add    %eax,(%edx)
    235c:	23 04 05 70 00 02 63 	and    0x63020070(,%eax,1),%eax
    2363:	d2 00                	rolb   %cl,(%eax)
    2365:	00 00                	add    %al,(%eax)
    2367:	02 01                	add    (%ecx),%al
    2369:	00 02                	add    %al,(%edx)
    236b:	23 04 04             	and    (%esp,%eax,1),%eax
    236e:	aa                   	stos   %al,%es:(%edi)
    236f:	00 00                	add    %al,(%eax)
    2371:	00 02                	add    %al,(%edx)
    2373:	64 d2 00             	rolb   %cl,%fs:(%eax)
    2376:	00 00                	add    %al,(%eax)
    2378:	02 04 0c             	add    (%esp,%ecx,1),%al
    237b:	02 23                	add    (%ebx),%ah
    237d:	06                   	push   %es
    237e:	04 c6                	add    $0xc6,%al
    2380:	02 00                	add    (%eax),%al
    2382:	00 02                	add    %al,(%edx)
    2384:	65 d2 00             	rolb   %cl,%gs:(%eax)
    2387:	00 00                	add    %al,(%eax)
    2389:	02 04 08             	add    (%eax,%ecx,1),%al
    238c:	02 23                	add    (%ebx),%ah
    238e:	06                   	push   %es
    238f:	04 91                	add    $0x91,%al
    2391:	01 00                	add    %eax,(%eax)
    2393:	00 02                	add    %al,(%edx)
    2395:	66                   	data16
    2396:	d2 00                	rolb   %cl,(%eax)
    2398:	00 00                	add    %al,(%eax)
    239a:	02 08                	add    (%eax),%cl
    239c:	00 02                	add    %al,(%edx)
    239e:	23 06                	and    (%esi),%eax
    23a0:	00 06                	add    %al,(%esi)
    23a2:	02 07                	add    (%edi),%al
    23a4:	be 01 00 00 07       	mov    $0x7000001,%esi
    23a9:	74 73                	je     241e <gdt_len+0x1c0e>
    23ab:	73 00                	jae    23ad <gdt_len+0x1b9d>
    23ad:	68 02 99 4c 02       	push   $0x24c9902
    23b2:	00 00                	add    %al,(%eax)
    23b4:	03 2f                	add    (%edi),%ebp
    23b6:	00 00                	add    %al,(%eax)
    23b8:	00 02                	add    %al,(%edx)
    23ba:	9a 4c 02 00 00 02 23 	lcall  $0x2302,$0x24c
    23c1:	00 03                	add    %al,(%ebx)
    23c3:	d9 01                	flds   (%ecx)
    23c5:	00 00                	add    %al,(%eax)
    23c7:	02 9b 4c 02 00 00    	add    0x24c(%ebx),%bl
    23cd:	02 23                	add    (%ebx),%ah
    23cf:	04 08                	add    $0x8,%al
    23d1:	73 73                	jae    2446 <gdt_len+0x1c36>
    23d3:	30 00                	xor    %al,(%eax)
    23d5:	02 9b 4c 02 00 00    	add    0x24c(%ebx),%bl
    23db:	02 23                	add    (%ebx),%ah
    23dd:	08 03                	or     %al,(%ebx)
    23df:	de 01                	fiadd  (%ecx)
    23e1:	00 00                	add    %al,(%eax)
    23e3:	02 9b 4c 02 00 00    	add    0x24c(%ebx),%bl
    23e9:	02 23                	add    (%ebx),%ah
    23eb:	0c 08                	or     $0x8,%al
    23ed:	73 73                	jae    2462 <gdt_len+0x1c52>
    23ef:	31 00                	xor    %eax,(%eax)
    23f1:	02 9b 4c 02 00 00    	add    0x24c(%ebx),%bl
    23f7:	02 23                	add    (%ebx),%ah
    23f9:	10 03                	adc    %al,(%ebx)
    23fb:	e3 01                	jecxz  23fe <gdt_len+0x1bee>
    23fd:	00 00                	add    %al,(%eax)
    23ff:	02 9b 4c 02 00 00    	add    0x24c(%ebx),%bl
    2405:	02 23                	add    (%ebx),%ah
    2407:	14 08                	adc    $0x8,%al
    2409:	73 73                	jae    247e <gdt_len+0x1c6e>
    240b:	32 00                	xor    (%eax),%al
    240d:	02 9b 4c 02 00 00    	add    0x24c(%ebx),%bl
    2413:	02 23                	add    (%ebx),%ah
    2415:	18 08                	sbb    %cl,(%eax)
    2417:	63 72 33             	arpl   %si,0x33(%edx)
    241a:	00 02                	add    %al,(%edx)
    241c:	9c                   	pushf  
    241d:	4c                   	dec    %esp
    241e:	02 00                	add    (%eax),%al
    2420:	00 02                	add    %al,(%edx)
    2422:	23 1c 08             	and    (%eax,%ecx,1),%ebx
    2425:	65 69 70 00 02 9c 4c 	imul   $0x24c9c02,%gs:0x0(%eax),%esi
    242c:	02 
    242d:	00 00                	add    %al,(%eax)
    242f:	02 23                	add    (%ebx),%ah
    2431:	20 03                	and    %al,(%ebx)
    2433:	53                   	push   %ebx
    2434:	00 00                	add    %al,(%eax)
    2436:	00 02                	add    %al,(%edx)
    2438:	9c                   	pushf  
    2439:	4c                   	dec    %esp
    243a:	02 00                	add    (%eax),%al
    243c:	00 02                	add    %al,(%edx)
    243e:	23 24 08             	and    (%eax,%ecx,1),%esp
    2441:	65                   	gs
    2442:	61                   	popa   
    2443:	78 00                	js     2445 <gdt_len+0x1c35>
    2445:	02 9c 4c 02 00 00 02 	add    0x2000002(%esp,%ecx,2),%bl
    244c:	23 28                	and    (%eax),%ebp
    244e:	08 65 63             	or     %ah,0x63(%ebp)
    2451:	78 00                	js     2453 <gdt_len+0x1c43>
    2453:	02 9c 4c 02 00 00 02 	add    0x2000002(%esp,%ecx,2),%bl
    245a:	23 2c 08             	and    (%eax,%ecx,1),%ebp
    245d:	65                   	gs
    245e:	64                   	fs
    245f:	78 00                	js     2461 <gdt_len+0x1c51>
    2461:	02 9c 4c 02 00 00 02 	add    0x2000002(%esp,%ecx,2),%bl
    2468:	23 30                	and    (%eax),%esi
    246a:	08 65 62             	or     %ah,0x62(%ebp)
    246d:	78 00                	js     246f <gdt_len+0x1c5f>
    246f:	02 9c 4c 02 00 00 02 	add    0x2000002(%esp,%ecx,2),%bl
    2476:	23 34 08             	and    (%eax,%ecx,1),%esi
    2479:	65                   	gs
    247a:	73 70                	jae    24ec <gdt_len+0x1cdc>
    247c:	00 02                	add    %al,(%edx)
    247e:	9c                   	pushf  
    247f:	4c                   	dec    %esp
    2480:	02 00                	add    (%eax),%al
    2482:	00 02                	add    %al,(%edx)
    2484:	23 38                	and    (%eax),%edi
    2486:	08 65 62             	or     %ah,0x62(%ebp)
    2489:	70 00                	jo     248b <gdt_len+0x1c7b>
    248b:	02 9c 4c 02 00 00 02 	add    0x2000002(%esp,%ecx,2),%bl
    2492:	23 3c 08             	and    (%eax,%ecx,1),%edi
    2495:	65                   	gs
    2496:	73 69                	jae    2501 <gdt_len+0x1cf1>
    2498:	00 02                	add    %al,(%edx)
    249a:	9c                   	pushf  
    249b:	4c                   	dec    %esp
    249c:	02 00                	add    (%eax),%al
    249e:	00 02                	add    %al,(%edx)
    24a0:	23 40 08             	and    0x8(%eax),%eax
    24a3:	65 64 69 00 02 9c 4c 	gs imul $0x24c9c02,%fs:%gs:(%eax),%eax
    24aa:	02 
    24ab:	00 00                	add    %al,(%eax)
    24ad:	02 23                	add    (%ebx),%ah
    24af:	44                   	inc    %esp
    24b0:	08 65 73             	or     %ah,0x73(%ebp)
    24b3:	00 02                	add    %al,(%edx)
    24b5:	9d                   	popf   
    24b6:	4c                   	dec    %esp
    24b7:	02 00                	add    (%eax),%al
    24b9:	00 02                	add    %al,(%edx)
    24bb:	23 48 08             	and    0x8(%eax),%ecx
    24be:	63 73 00             	arpl   %si,0x0(%ebx)
    24c1:	02 9d 4c 02 00 00    	add    0x24c(%ebp),%bl
    24c7:	02 23                	add    (%ebx),%ah
    24c9:	4c                   	dec    %esp
    24ca:	08 73 73             	or     %dh,0x73(%ebx)
    24cd:	00 02                	add    %al,(%edx)
    24cf:	9d                   	popf   
    24d0:	4c                   	dec    %esp
    24d1:	02 00                	add    (%eax),%al
    24d3:	00 02                	add    %al,(%edx)
    24d5:	23 50 08             	and    0x8(%eax),%edx
    24d8:	64                   	fs
    24d9:	73 00                	jae    24db <gdt_len+0x1ccb>
    24db:	02 9d 4c 02 00 00    	add    0x24c(%ebp),%bl
    24e1:	02 23                	add    (%ebx),%ah
    24e3:	54                   	push   %esp
    24e4:	08 66 73             	or     %ah,0x73(%esi)
    24e7:	00 02                	add    %al,(%edx)
    24e9:	9d                   	popf   
    24ea:	4c                   	dec    %esp
    24eb:	02 00                	add    (%eax),%al
    24ed:	00 02                	add    %al,(%edx)
    24ef:	23 58 08             	and    0x8(%eax),%ebx
    24f2:	67 73 00             	addr16 jae 24f5 <gdt_len+0x1ce5>
    24f5:	02 9d 4c 02 00 00    	add    0x24c(%ebp),%bl
    24fb:	02 23                	add    (%ebx),%ah
    24fd:	5c                   	pop    %esp
    24fe:	08 6c 64 74          	or     %ch,0x74(%esp,%eiz,2)
    2502:	00 02                	add    %al,(%edx)
    2504:	9d                   	popf   
    2505:	4c                   	dec    %esp
    2506:	02 00                	add    (%eax),%al
    2508:	00 02                	add    %al,(%edx)
    250a:	23 60 03             	and    0x3(%eax),%esp
    250d:	51                   	push   %ecx
    250e:	02 00                	add    (%eax),%al
    2510:	00 02                	add    %al,(%edx)
    2512:	9d                   	popf   
    2513:	4c                   	dec    %esp
    2514:	02 00                	add    (%eax),%al
    2516:	00 02                	add    %al,(%edx)
    2518:	23 64 00 06          	and    0x6(%eax,%eax,1),%esp
    251c:	04 07                	add    $0x7,%al
    251e:	19 01                	sbb    %eax,(%ecx)
    2520:	00 00                	add    %al,(%eax)
    2522:	09 81 00 00 00 b0    	or     %eax,-0x50000000(%ecx)
    2528:	08 02                	or     %al,(%edx)
    252a:	b8 1b 03 00 00       	mov    $0x31b,%eax
    252f:	08 70 69             	or     %dh,0x69(%eax)
    2532:	64 00 02             	add    %al,%fs:(%edx)
    2535:	b9 4c 02 00 00       	mov    $0x24c,%ecx
    253a:	02 23                	add    (%ebx),%ah
    253c:	00 03                	add    %al,(%ebx)
    253e:	54                   	push   %esp
    253f:	01 00                	add    %eax,(%eax)
    2541:	00 02                	add    %al,(%edx)
    2543:	ba 4c 02 00 00       	mov    $0x24c,%edx
    2548:	02 23                	add    (%ebx),%ah
    254a:	04 03                	add    $0x3,%al
    254c:	36 00 00             	add    %al,%ss:(%eax)
    254f:	00 02                	add    %al,(%edx)
    2551:	bb 4c 02 00 00       	mov    $0x24c,%ebx
    2556:	02 23                	add    (%ebx),%ah
    2558:	08 03                	or     %al,(%ebx)
    255a:	b3 01                	mov    $0x1,%bl
    255c:	00 00                	add    %al,(%eax)
    255e:	02 bc 4c 02 00 00 02 	add    0x2000002(%esp,%ecx,2),%bh
    2565:	23 0c 03             	and    (%ebx,%eax,1),%ecx
    2568:	ba 00 00 00 02       	mov    $0x2000000,%edx
    256d:	bd 4c 02 00 00       	mov    $0x24c,%ebp
    2572:	02 23                	add    (%ebx),%ah
    2574:	10 03                	adc    %al,(%ebx)
    2576:	26 00 00             	add    %al,%es:(%eax)
    2579:	00 02                	add    %al,(%edx)
    257b:	be 4c 02 00 00       	mov    $0x24c,%esi
    2580:	02 23                	add    (%ebx),%ah
    2582:	14 03                	adc    $0x3,%al
    2584:	e8 01 00 00 02       	call   200258a <_end+0x1eb0a5e>
    2589:	bf 4c 02 00 00       	mov    $0x24c,%edi
    258e:	02 23                	add    (%ebx),%ah
    2590:	18 03                	sbb    %al,(%ebx)
    2592:	60                   	pusha  
    2593:	00 00                	add    %al,(%eax)
    2595:	00 02                	add    %al,(%edx)
    2597:	c0 d2 00             	rcl    $0x0,%dl
    259a:	00 00                	add    %al,(%eax)
    259c:	02 23                	add    (%ebx),%ah
    259e:	1c 08                	sbb    $0x8,%al
    25a0:	74 73                	je     2615 <gdt_len+0x1e05>
    25a2:	73 00                	jae    25a4 <gdt_len+0x1d94>
    25a4:	02 c1                	add    %cl,%al
    25a6:	d9 00                	flds   (%eax)
    25a8:	00 00                	add    %al,(%eax)
    25aa:	02 23                	add    (%ebx),%ah
    25ac:	20 03                	and    %al,(%ebx)
    25ae:	b9 02 00 00 02       	mov    $0x2000002,%ecx
    25b3:	c2 d2 00             	ret    $0xd2
    25b6:	00 00                	add    %al,(%eax)
    25b8:	03 23                	add    (%ebx),%esp
    25ba:	88 01                	mov    %al,(%ecx)
    25bc:	08 6c 64 74          	or     %ch,0x74(%esp,%eiz,2)
    25c0:	00 02                	add    %al,(%edx)
    25c2:	c3                   	ret    
    25c3:	1b 03                	sbb    (%ebx),%eax
    25c5:	00 00                	add    %al,(%eax)
    25c7:	03 23                	add    (%ebx),%esp
    25c9:	90                   	nop
    25ca:	01 03                	add    %eax,(%ebx)
    25cc:	46                   	inc    %esi
    25cd:	00 00                	add    %al,(%eax)
    25cf:	00 02                	add    %al,(%edx)
    25d1:	c4 2b                	les    (%ebx),%ebp
    25d3:	03 00                	add    (%eax),%eax
    25d5:	00 03                	add    %al,(%ebx)
    25d7:	23 b0 01 03 3a 02    	and    0x23a0301(%eax),%esi
    25dd:	00 00                	add    %al,(%eax)
    25df:	02 c5                	add    %ch,%al
    25e1:	2b 03                	sub    (%ebx),%eax
    25e3:	00 00                	add    %al,(%eax)
    25e5:	03 23                	add    (%ebx),%esp
    25e7:	b0 09                	mov    $0x9,%al
    25e9:	00 0a                	add    %cl,(%edx)
    25eb:	25 00 00 00 2b       	and    $0x2b000000,%eax
    25f0:	03 00                	add    (%eax),%eax
    25f2:	00 0b                	add    %cl,(%ebx)
    25f4:	4c                   	dec    %esp
    25f5:	02 00                	add    (%eax),%al
    25f7:	00 03                	add    %al,(%ebx)
    25f9:	00 0a                	add    %cl,(%edx)
    25fb:	3c 03                	cmp    $0x3,%al
    25fd:	00 00                	add    %al,(%eax)
    25ff:	3c 03                	cmp    $0x3,%al
    2601:	00 00                	add    %al,(%eax)
    2603:	0c 4c                	or     $0x4c,%al
    2605:	02 00                	add    (%eax),%al
    2607:	00 ff                	add    %bh,%bh
    2609:	03 00                	add    (%eax),%eax
    260b:	06                   	push   %es
    260c:	01 08                	add    %ecx,(%eax)
    260e:	46                   	inc    %esi
    260f:	01 00                	add    %eax,(%eax)
    2611:	00 0d 01 83 02 00    	add    %cl,0x28301
    2617:	00 01                	add    %al,(%ecx)
    2619:	03 f4                	add    %esp,%esi
    261b:	51                   	push   %ecx
    261c:	10 00                	adc    %al,(%eax)
    261e:	5b                   	pop    %ebx
    261f:	52                   	push   %edx
    2620:	10 00                	adc    %al,(%eax)
    2622:	e0 09                	loopne 262d <gdt_len+0x1e1d>
    2624:	00 00                	add    %al,(%eax)
    2626:	c0 03 00             	rolb   $0x0,(%ebx)
    2629:	00 0e                	add    %cl,(%esi)
    262b:	74 6d                	je     269a <gdt_len+0x1e8a>
    262d:	70 00                	jo     262f <gdt_len+0x1e1f>
    262f:	01 06                	add    %eax,(%esi)
    2631:	c0 03 00             	rolb   $0x0,(%ebx)
    2634:	00 02                	add    %al,(%edx)
    2636:	91                   	xchg   %eax,%ecx
    2637:	6c                   	insb   (%dx),%es:(%edi)
    2638:	0f 37                	getsec 
    263a:	52                   	push   %edx
    263b:	10 00                	adc    %al,(%eax)
    263d:	4d                   	dec    %ebp
    263e:	52                   	push   %edx
    263f:	10 00                	adc    %al,(%eax)
    2641:	a6                   	cmpsb  %es:(%edi),%ds:(%esi)
    2642:	03 00                	add    (%eax),%eax
    2644:	00 10                	add    %dl,(%eax)
    2646:	08 01                	or     %al,(%ecx)
    2648:	0b 97 03 00 00 08    	or     0x8000003(%edi),%edx
    264e:	61                   	popa   
    264f:	00 01                	add    %al,(%ecx)
    2651:	0b c7                	or     %edi,%eax
    2653:	03 00                	add    (%eax),%eax
    2655:	00 02                	add    %al,(%edx)
    2657:	23 00                	and    (%eax),%eax
    2659:	08 62 00             	or     %ah,0x0(%edx)
    265c:	01 0b                	add    %ecx,(%ebx)
    265e:	c7 03 00 00 02 23    	movl   $0x23020000,(%ebx)
    2664:	04 00                	add    $0x0,%al
    2666:	11 ae 04 00 00 01    	adc    %ebp,0x1000004(%esi)
    266c:	0b 76 03             	or     0x3(%esi),%esi
    266f:	00 00                	add    %al,(%eax)
    2671:	02 91 64 00 12 4d    	add    0x4d120064(%ecx),%dl
    2677:	52                   	push   %edx
    2678:	10 00                	adc    %al,(%eax)
    267a:	59                   	pop    %ecx
    267b:	52                   	push   %edx
    267c:	10 00                	adc    %al,(%eax)
    267e:	13 01                	adc    (%ecx),%eax
    2680:	07                   	pop    %es
    2681:	04 00                	add    $0x0,%al
    2683:	00 01                	add    %al,(%ecx)
    2685:	0f c0 03             	xadd   %al,(%ebx)
    2688:	00 00                	add    %al,(%eax)
    268a:	01 14 00             	add    %edx,(%eax,%eax,1)
    268d:	00 00                	add    %al,(%eax)
    268f:	15 04 05 69 6e       	adc    $0x6e690504,%eax
    2694:	74 00                	je     2696 <gdt_len+0x1e86>
    2696:	06                   	push   %es
    2697:	04 05                	add    $0x5,%al
    2699:	c1 04 00 00          	roll   $0x0,(%eax,%eax,1)
    269d:	16                   	push   %ss
    269e:	b4 04                	mov    $0x4,%ah
    26a0:	00 00                	add    %al,(%eax)
    26a2:	02 cc                	add    %ah,%cl
    26a4:	4c                   	dec    %esp
    26a5:	02 00                	add    (%eax),%al
    26a7:	00 01                	add    %al,(%ecx)
    26a9:	01 16                	add    %edx,(%esi)
    26ab:	b4 04                	mov    $0x4,%ah
    26ad:	00 00                	add    %al,(%eax)
    26af:	02 cc                	add    %ah,%cl
    26b1:	4c                   	dec    %esp
    26b2:	02 00                	add    (%eax),%al
    26b4:	00 01                	add    %al,(%ecx)
    26b6:	01 0a                	add    %ecx,(%edx)
    26b8:	53                   	push   %ebx
    26b9:	02 00                	add    (%eax),%al
    26bb:	00 f8                	add    %bh,%al
    26bd:	03 00                	add    (%eax),%eax
    26bf:	00 0b                	add    %cl,(%ebx)
    26c1:	4c                   	dec    %esp
    26c2:	02 00                	add    (%eax),%al
    26c4:	00 7f 00             	add    %bh,0x0(%edi)
    26c7:	17                   	pop    %ss
    26c8:	16                   	push   %ss
    26c9:	00 00                	add    %al,(%eax)
    26cb:	00 02                	add    %al,(%edx)
    26cd:	cd e8                	int    $0xe8
    26cf:	03 00                	add    (%eax),%eax
    26d1:	00 01                	add    %al,(%ecx)
    26d3:	05 03 80 b9 10       	add    $0x10b98003,%eax
    26d8:	00 00                	add    %al,(%eax)
    26da:	c7 05 00 00 02 00 43 	movl   $0x943,0x20000
    26e1:	09 00 00 
    26e4:	04 01                	add    $0x1,%al
    26e6:	45                   	inc    %ebp
    26e7:	02 00                	add    (%eax),%al
    26e9:	00 01                	add    %al,(%ecx)
    26eb:	dc 04 00             	faddl  (%eax,%eax,1)
    26ee:	00 f9                	add    %bh,%cl
    26f0:	01 00                	add    %eax,(%eax)
    26f2:	00 5c 52 10          	add    %bl,0x10(%edx,%edx,2)
    26f6:	00 67 54             	add    %ah,0x54(%edi)
    26f9:	10 00                	adc    %al,(%eax)
    26fb:	12 06                	adc    (%esi),%al
    26fd:	00 00                	add    %al,(%eax)
    26ff:	02 da                	add    %dl,%bl
    2701:	02 00                	add    (%eax),%al
    2703:	00 08                	add    %cl,(%eax)
    2705:	02 5c d2 00          	add    0x0(%edx,%edx,8),%bl
    2709:	00 00                	add    %al,(%eax)
    270b:	03 b2 00 00 00 02    	add    0x2000000(%edx),%esi
    2711:	5d                   	pop    %ebp
    2712:	d2 00                	rolb   %cl,(%eax)
    2714:	00 00                	add    %al,(%eax)
    2716:	02 23                	add    (%ebx),%ah
    2718:	00 03                	add    %al,(%ebx)
    271a:	a5                   	movsl  %ds:(%esi),%es:(%edi)
    271b:	01 00                	add    %eax,(%eax)
    271d:	00 02                	add    %al,(%edx)
    271f:	5e                   	pop    %esi
    2720:	d2 00                	rolb   %cl,(%eax)
    2722:	00 00                	add    %al,(%eax)
    2724:	02 23                	add    (%ebx),%ah
    2726:	02 04 ac             	add    (%esp,%ebp,4),%al
    2729:	01 00                	add    %eax,(%eax)
    272b:	00 02                	add    %al,(%edx)
    272d:	5f                   	pop    %edi
    272e:	d2 00                	rolb   %cl,(%eax)
    2730:	00 00                	add    %al,(%eax)
    2732:	02 08                	add    (%eax),%cl
    2734:	08 02                	or     %al,(%edx)
    2736:	23 04 04             	and    (%esp,%eax,1),%eax
    2739:	83 01 00             	addl   $0x0,(%ecx)
    273c:	00 02                	add    %al,(%edx)
    273e:	60                   	pusha  
    273f:	d2 00                	rolb   %cl,(%eax)
    2741:	00 00                	add    %al,(%eax)
    2743:	02 04 04             	add    (%esp,%eax,1),%al
    2746:	02 23                	add    (%ebx),%ah
    2748:	04 05                	add    $0x5,%al
    274a:	73 00                	jae    274c <gdt_len+0x1f3c>
    274c:	02 61 d2             	add    -0x2e(%ecx),%ah
    274f:	00 00                	add    %al,(%eax)
    2751:	00 02                	add    %al,(%edx)
    2753:	01 03                	add    %eax,(%ebx)
    2755:	02 23                	add    (%ebx),%ah
    2757:	04 05                	add    $0x5,%al
    2759:	64                   	fs
    275a:	70 6c                	jo     27c8 <gdt_len+0x1fb8>
    275c:	00 02                	add    %al,(%edx)
    275e:	62                   	(bad)  
    275f:	d2 00                	rolb   %cl,(%eax)
    2761:	00 00                	add    %al,(%eax)
    2763:	02 02                	add    (%edx),%al
    2765:	01 02                	add    %eax,(%edx)
    2767:	23 04 05 70 00 02 63 	and    0x63020070(,%eax,1),%eax
    276e:	d2 00                	rolb   %cl,(%eax)
    2770:	00 00                	add    %al,(%eax)
    2772:	02 01                	add    (%ecx),%al
    2774:	00 02                	add    %al,(%edx)
    2776:	23 04 04             	and    (%esp,%eax,1),%eax
    2779:	aa                   	stos   %al,%es:(%edi)
    277a:	00 00                	add    %al,(%eax)
    277c:	00 02                	add    %al,(%edx)
    277e:	64 d2 00             	rolb   %cl,%fs:(%eax)
    2781:	00 00                	add    %al,(%eax)
    2783:	02 04 0c             	add    (%esp,%ecx,1),%al
    2786:	02 23                	add    (%ebx),%ah
    2788:	06                   	push   %es
    2789:	04 c6                	add    $0xc6,%al
    278b:	02 00                	add    (%eax),%al
    278d:	00 02                	add    %al,(%edx)
    278f:	65 d2 00             	rolb   %cl,%gs:(%eax)
    2792:	00 00                	add    %al,(%eax)
    2794:	02 04 08             	add    (%eax,%ecx,1),%al
    2797:	02 23                	add    (%ebx),%ah
    2799:	06                   	push   %es
    279a:	04 91                	add    $0x91,%al
    279c:	01 00                	add    %eax,(%eax)
    279e:	00 02                	add    %al,(%edx)
    27a0:	66                   	data16
    27a1:	d2 00                	rolb   %cl,(%eax)
    27a3:	00 00                	add    %al,(%eax)
    27a5:	02 08                	add    (%eax),%cl
    27a7:	00 02                	add    %al,(%edx)
    27a9:	23 06                	and    (%esi),%eax
    27ab:	00 06                	add    %al,(%esi)
    27ad:	02 07                	add    (%edi),%al
    27af:	be 01 00 00 07       	mov    $0x7000001,%esi
    27b4:	74 73                	je     2829 <gdt_len+0x2019>
    27b6:	73 00                	jae    27b8 <gdt_len+0x1fa8>
    27b8:	68 02 99 4c 02       	push   $0x24c9902
    27bd:	00 00                	add    %al,(%eax)
    27bf:	03 2f                	add    (%edi),%ebp
    27c1:	00 00                	add    %al,(%eax)
    27c3:	00 02                	add    %al,(%edx)
    27c5:	9a 4c 02 00 00 02 23 	lcall  $0x2302,$0x24c
    27cc:	00 03                	add    %al,(%ebx)
    27ce:	d9 01                	flds   (%ecx)
    27d0:	00 00                	add    %al,(%eax)
    27d2:	02 9b 4c 02 00 00    	add    0x24c(%ebx),%bl
    27d8:	02 23                	add    (%ebx),%ah
    27da:	04 08                	add    $0x8,%al
    27dc:	73 73                	jae    2851 <gdt_len+0x2041>
    27de:	30 00                	xor    %al,(%eax)
    27e0:	02 9b 4c 02 00 00    	add    0x24c(%ebx),%bl
    27e6:	02 23                	add    (%ebx),%ah
    27e8:	08 03                	or     %al,(%ebx)
    27ea:	de 01                	fiadd  (%ecx)
    27ec:	00 00                	add    %al,(%eax)
    27ee:	02 9b 4c 02 00 00    	add    0x24c(%ebx),%bl
    27f4:	02 23                	add    (%ebx),%ah
    27f6:	0c 08                	or     $0x8,%al
    27f8:	73 73                	jae    286d <gdt_len+0x205d>
    27fa:	31 00                	xor    %eax,(%eax)
    27fc:	02 9b 4c 02 00 00    	add    0x24c(%ebx),%bl
    2802:	02 23                	add    (%ebx),%ah
    2804:	10 03                	adc    %al,(%ebx)
    2806:	e3 01                	jecxz  2809 <gdt_len+0x1ff9>
    2808:	00 00                	add    %al,(%eax)
    280a:	02 9b 4c 02 00 00    	add    0x24c(%ebx),%bl
    2810:	02 23                	add    (%ebx),%ah
    2812:	14 08                	adc    $0x8,%al
    2814:	73 73                	jae    2889 <gdt_len+0x2079>
    2816:	32 00                	xor    (%eax),%al
    2818:	02 9b 4c 02 00 00    	add    0x24c(%ebx),%bl
    281e:	02 23                	add    (%ebx),%ah
    2820:	18 08                	sbb    %cl,(%eax)
    2822:	63 72 33             	arpl   %si,0x33(%edx)
    2825:	00 02                	add    %al,(%edx)
    2827:	9c                   	pushf  
    2828:	4c                   	dec    %esp
    2829:	02 00                	add    (%eax),%al
    282b:	00 02                	add    %al,(%edx)
    282d:	23 1c 08             	and    (%eax,%ecx,1),%ebx
    2830:	65 69 70 00 02 9c 4c 	imul   $0x24c9c02,%gs:0x0(%eax),%esi
    2837:	02 
    2838:	00 00                	add    %al,(%eax)
    283a:	02 23                	add    (%ebx),%ah
    283c:	20 03                	and    %al,(%ebx)
    283e:	53                   	push   %ebx
    283f:	00 00                	add    %al,(%eax)
    2841:	00 02                	add    %al,(%edx)
    2843:	9c                   	pushf  
    2844:	4c                   	dec    %esp
    2845:	02 00                	add    (%eax),%al
    2847:	00 02                	add    %al,(%edx)
    2849:	23 24 08             	and    (%eax,%ecx,1),%esp
    284c:	65                   	gs
    284d:	61                   	popa   
    284e:	78 00                	js     2850 <gdt_len+0x2040>
    2850:	02 9c 4c 02 00 00 02 	add    0x2000002(%esp,%ecx,2),%bl
    2857:	23 28                	and    (%eax),%ebp
    2859:	08 65 63             	or     %ah,0x63(%ebp)
    285c:	78 00                	js     285e <gdt_len+0x204e>
    285e:	02 9c 4c 02 00 00 02 	add    0x2000002(%esp,%ecx,2),%bl
    2865:	23 2c 08             	and    (%eax,%ecx,1),%ebp
    2868:	65                   	gs
    2869:	64                   	fs
    286a:	78 00                	js     286c <gdt_len+0x205c>
    286c:	02 9c 4c 02 00 00 02 	add    0x2000002(%esp,%ecx,2),%bl
    2873:	23 30                	and    (%eax),%esi
    2875:	08 65 62             	or     %ah,0x62(%ebp)
    2878:	78 00                	js     287a <gdt_len+0x206a>
    287a:	02 9c 4c 02 00 00 02 	add    0x2000002(%esp,%ecx,2),%bl
    2881:	23 34 08             	and    (%eax,%ecx,1),%esi
    2884:	65                   	gs
    2885:	73 70                	jae    28f7 <gdt_len+0x20e7>
    2887:	00 02                	add    %al,(%edx)
    2889:	9c                   	pushf  
    288a:	4c                   	dec    %esp
    288b:	02 00                	add    (%eax),%al
    288d:	00 02                	add    %al,(%edx)
    288f:	23 38                	and    (%eax),%edi
    2891:	08 65 62             	or     %ah,0x62(%ebp)
    2894:	70 00                	jo     2896 <gdt_len+0x2086>
    2896:	02 9c 4c 02 00 00 02 	add    0x2000002(%esp,%ecx,2),%bl
    289d:	23 3c 08             	and    (%eax,%ecx,1),%edi
    28a0:	65                   	gs
    28a1:	73 69                	jae    290c <gdt_len+0x20fc>
    28a3:	00 02                	add    %al,(%edx)
    28a5:	9c                   	pushf  
    28a6:	4c                   	dec    %esp
    28a7:	02 00                	add    (%eax),%al
    28a9:	00 02                	add    %al,(%edx)
    28ab:	23 40 08             	and    0x8(%eax),%eax
    28ae:	65 64 69 00 02 9c 4c 	gs imul $0x24c9c02,%fs:%gs:(%eax),%eax
    28b5:	02 
    28b6:	00 00                	add    %al,(%eax)
    28b8:	02 23                	add    (%ebx),%ah
    28ba:	44                   	inc    %esp
    28bb:	08 65 73             	or     %ah,0x73(%ebp)
    28be:	00 02                	add    %al,(%edx)
    28c0:	9d                   	popf   
    28c1:	4c                   	dec    %esp
    28c2:	02 00                	add    (%eax),%al
    28c4:	00 02                	add    %al,(%edx)
    28c6:	23 48 08             	and    0x8(%eax),%ecx
    28c9:	63 73 00             	arpl   %si,0x0(%ebx)
    28cc:	02 9d 4c 02 00 00    	add    0x24c(%ebp),%bl
    28d2:	02 23                	add    (%ebx),%ah
    28d4:	4c                   	dec    %esp
    28d5:	08 73 73             	or     %dh,0x73(%ebx)
    28d8:	00 02                	add    %al,(%edx)
    28da:	9d                   	popf   
    28db:	4c                   	dec    %esp
    28dc:	02 00                	add    (%eax),%al
    28de:	00 02                	add    %al,(%edx)
    28e0:	23 50 08             	and    0x8(%eax),%edx
    28e3:	64                   	fs
    28e4:	73 00                	jae    28e6 <gdt_len+0x20d6>
    28e6:	02 9d 4c 02 00 00    	add    0x24c(%ebp),%bl
    28ec:	02 23                	add    (%ebx),%ah
    28ee:	54                   	push   %esp
    28ef:	08 66 73             	or     %ah,0x73(%esi)
    28f2:	00 02                	add    %al,(%edx)
    28f4:	9d                   	popf   
    28f5:	4c                   	dec    %esp
    28f6:	02 00                	add    (%eax),%al
    28f8:	00 02                	add    %al,(%edx)
    28fa:	23 58 08             	and    0x8(%eax),%ebx
    28fd:	67 73 00             	addr16 jae 2900 <gdt_len+0x20f0>
    2900:	02 9d 4c 02 00 00    	add    0x24c(%ebp),%bl
    2906:	02 23                	add    (%ebx),%ah
    2908:	5c                   	pop    %esp
    2909:	08 6c 64 74          	or     %ch,0x74(%esp,%eiz,2)
    290d:	00 02                	add    %al,(%edx)
    290f:	9d                   	popf   
    2910:	4c                   	dec    %esp
    2911:	02 00                	add    (%eax),%al
    2913:	00 02                	add    %al,(%edx)
    2915:	23 60 03             	and    0x3(%eax),%esp
    2918:	51                   	push   %ecx
    2919:	02 00                	add    (%eax),%al
    291b:	00 02                	add    %al,(%edx)
    291d:	9d                   	popf   
    291e:	4c                   	dec    %esp
    291f:	02 00                	add    (%eax),%al
    2921:	00 02                	add    %al,(%edx)
    2923:	23 64 00 06          	and    0x6(%eax,%eax,1),%esp
    2927:	04 07                	add    $0x7,%al
    2929:	19 01                	sbb    %eax,(%ecx)
    292b:	00 00                	add    %al,(%eax)
    292d:	09 81 00 00 00 b0    	or     %eax,-0x50000000(%ecx)
    2933:	08 02                	or     %al,(%edx)
    2935:	b8 1b 03 00 00       	mov    $0x31b,%eax
    293a:	08 70 69             	or     %dh,0x69(%eax)
    293d:	64 00 02             	add    %al,%fs:(%edx)
    2940:	b9 4c 02 00 00       	mov    $0x24c,%ecx
    2945:	02 23                	add    (%ebx),%ah
    2947:	00 03                	add    %al,(%ebx)
    2949:	54                   	push   %esp
    294a:	01 00                	add    %eax,(%eax)
    294c:	00 02                	add    %al,(%edx)
    294e:	ba 4c 02 00 00       	mov    $0x24c,%edx
    2953:	02 23                	add    (%ebx),%ah
    2955:	04 03                	add    $0x3,%al
    2957:	36 00 00             	add    %al,%ss:(%eax)
    295a:	00 02                	add    %al,(%edx)
    295c:	bb 4c 02 00 00       	mov    $0x24c,%ebx
    2961:	02 23                	add    (%ebx),%ah
    2963:	08 03                	or     %al,(%ebx)
    2965:	b3 01                	mov    $0x1,%bl
    2967:	00 00                	add    %al,(%eax)
    2969:	02 bc 4c 02 00 00 02 	add    0x2000002(%esp,%ecx,2),%bh
    2970:	23 0c 03             	and    (%ebx,%eax,1),%ecx
    2973:	ba 00 00 00 02       	mov    $0x2000000,%edx
    2978:	bd 4c 02 00 00       	mov    $0x24c,%ebp
    297d:	02 23                	add    (%ebx),%ah
    297f:	10 03                	adc    %al,(%ebx)
    2981:	26 00 00             	add    %al,%es:(%eax)
    2984:	00 02                	add    %al,(%edx)
    2986:	be 4c 02 00 00       	mov    $0x24c,%esi
    298b:	02 23                	add    (%ebx),%ah
    298d:	14 03                	adc    $0x3,%al
    298f:	e8 01 00 00 02       	call   2002995 <_end+0x1eb0e69>
    2994:	bf 4c 02 00 00       	mov    $0x24c,%edi
    2999:	02 23                	add    (%ebx),%ah
    299b:	18 03                	sbb    %al,(%ebx)
    299d:	60                   	pusha  
    299e:	00 00                	add    %al,(%eax)
    29a0:	00 02                	add    %al,(%edx)
    29a2:	c0 d2 00             	rcl    $0x0,%dl
    29a5:	00 00                	add    %al,(%eax)
    29a7:	02 23                	add    (%ebx),%ah
    29a9:	1c 08                	sbb    $0x8,%al
    29ab:	74 73                	je     2a20 <gdt_len+0x2210>
    29ad:	73 00                	jae    29af <gdt_len+0x219f>
    29af:	02 c1                	add    %cl,%al
    29b1:	d9 00                	flds   (%eax)
    29b3:	00 00                	add    %al,(%eax)
    29b5:	02 23                	add    (%ebx),%ah
    29b7:	20 03                	and    %al,(%ebx)
    29b9:	b9 02 00 00 02       	mov    $0x2000002,%ecx
    29be:	c2 d2 00             	ret    $0xd2
    29c1:	00 00                	add    %al,(%eax)
    29c3:	03 23                	add    (%ebx),%esp
    29c5:	88 01                	mov    %al,(%ecx)
    29c7:	08 6c 64 74          	or     %ch,0x74(%esp,%eiz,2)
    29cb:	00 02                	add    %al,(%edx)
    29cd:	c3                   	ret    
    29ce:	1b 03                	sbb    (%ebx),%eax
    29d0:	00 00                	add    %al,(%eax)
    29d2:	03 23                	add    (%ebx),%esp
    29d4:	90                   	nop
    29d5:	01 03                	add    %eax,(%ebx)
    29d7:	46                   	inc    %esi
    29d8:	00 00                	add    %al,(%eax)
    29da:	00 02                	add    %al,(%edx)
    29dc:	c4 2b                	les    (%ebx),%ebp
    29de:	03 00                	add    (%eax),%eax
    29e0:	00 03                	add    %al,(%ebx)
    29e2:	23 b0 01 03 3a 02    	and    0x23a0301(%eax),%esi
    29e8:	00 00                	add    %al,(%eax)
    29ea:	02 c5                	add    %ch,%al
    29ec:	2b 03                	sub    (%ebx),%eax
    29ee:	00 00                	add    %al,(%eax)
    29f0:	03 23                	add    (%ebx),%esp
    29f2:	b0 09                	mov    $0x9,%al
    29f4:	00 0a                	add    %cl,(%edx)
    29f6:	25 00 00 00 2b       	and    $0x2b000000,%eax
    29fb:	03 00                	add    (%eax),%eax
    29fd:	00 0b                	add    %cl,(%ebx)
    29ff:	4c                   	dec    %esp
    2a00:	02 00                	add    (%eax),%al
    2a02:	00 03                	add    %al,(%ebx)
    2a04:	00 0a                	add    %cl,(%edx)
    2a06:	3c 03                	cmp    $0x3,%al
    2a08:	00 00                	add    %al,(%eax)
    2a0a:	3c 03                	cmp    $0x3,%al
    2a0c:	00 00                	add    %al,(%eax)
    2a0e:	0c 4c                	or     $0x4c,%al
    2a10:	02 00                	add    (%eax),%al
    2a12:	00 ff                	add    %bh,%bh
    2a14:	03 00                	add    (%eax),%eax
    2a16:	06                   	push   %es
    2a17:	01 08                	add    %ecx,(%eax)
    2a19:	46                   	inc    %esi
    2a1a:	01 00                	add    %eax,(%eax)
    2a1c:	00 02                	add    %al,(%edx)
    2a1e:	f5                   	cmc    
    2a1f:	04 00                	add    $0x0,%al
    2a21:	00 14 01             	add    %dl,(%ecx,%eax,1)
    2a24:	15 b2 03 00 00       	adc    $0x3b2,%eax
    2a29:	03 e6                	add    %esi,%esp
    2a2b:	04 00                	add    $0x0,%al
    2a2d:	00 01                	add    %al,(%ecx)
    2a2f:	16                   	push   %ss
    2a30:	b9 03 00 00 02       	mov    $0x2000003,%ecx
    2a35:	23 00                	and    (%eax),%eax
    2a37:	08 64 65 76          	or     %ah,0x76(%ebp,%eiz,2)
    2a3b:	00 01                	add    %al,(%ecx)
    2a3d:	17                   	pop    %ss
    2a3e:	bf 03 00 00 02       	mov    $0x2000003,%edi
    2a43:	23 04 03             	and    (%ebx,%eax,1),%eax
    2a46:	ec                   	in     (%dx),%al
    2a47:	04 00                	add    $0x0,%al
    2a49:	00 01                	add    %al,(%ecx)
    2a4b:	18 3c 03             	sbb    %bh,(%ebx,%eax,1)
    2a4e:	00 00                	add    %al,(%eax)
    2a50:	02 23                	add    (%ebx),%ah
    2a52:	08 03                	or     %al,(%ebx)
    2a54:	08 05 00 00 01 19    	or     %al,0x19010000
    2a5a:	3c 03                	cmp    $0x3,%al
    2a5c:	00 00                	add    %al,(%eax)
    2a5e:	02 23                	add    (%ebx),%ah
    2a60:	09 03                	or     %eax,(%ebx)
    2a62:	00 05 00 00 01 1a    	add    %al,0x1a010000
    2a68:	3c 03                	cmp    $0x3,%al
    2a6a:	00 00                	add    %al,(%eax)
    2a6c:	02 23                	add    (%ebx),%ah
    2a6e:	0a 03                	or     (%ebx),%al
    2a70:	28 01                	sub    %al,(%ecx)
    2a72:	00 00                	add    %al,(%eax)
    2a74:	01 1b                	add    %ebx,(%ebx)
    2a76:	4c                   	dec    %esp
    2a77:	02 00                	add    (%eax),%al
    2a79:	00 02                	add    %al,(%edx)
    2a7b:	23 0c 08             	and    (%eax,%ecx,1),%ecx
    2a7e:	6c                   	insb   (%dx),%es:(%edi)
    2a7f:	62 61 00             	bound  %esp,0x0(%ecx)
    2a82:	01 1c 4c             	add    %ebx,(%esp,%ecx,2)
    2a85:	02 00                	add    (%eax),%al
    2a87:	00 02                	add    %al,(%edx)
    2a89:	23 10                	and    (%eax),%edx
    2a8b:	00 0d b9 03 00 00    	add    %cl,0x3b9
    2a91:	0e                   	push   %cs
    2a92:	00 0f                	add    %cl,(%edi)
    2a94:	04 b2                	add    $0xb2,%al
    2a96:	03 00                	add    (%eax),%eax
    2a98:	00 10                	add    %dl,(%eax)
    2a9a:	04 05                	add    $0x5,%al
    2a9c:	69 6e 74 00 11 01 d4 	imul   $0xd4011100,0x74(%esi),%ebp
    2aa3:	04 00                	add    $0x0,%al
    2aa5:	00 01                	add    %al,(%ecx)
    2aa7:	1f                   	pop    %ds
    2aa8:	5c                   	pop    %esp
    2aa9:	52                   	push   %edx
    2aaa:	10 00                	adc    %al,(%eax)
    2aac:	5e                   	pop    %esi
    2aad:	53                   	push   %ebx
    2aae:	10 00                	adc    %al,(%eax)
    2ab0:	18 0a                	sbb    %cl,(%edx)
    2ab2:	00 00                	add    %al,(%eax)
    2ab4:	af                   	scas   %es:(%edi),%eax
    2ab5:	04 00                	add    $0x0,%al
    2ab7:	00 12                	add    %dl,(%edx)
    2ab9:	63 52 10             	arpl   %dx,0x10(%edx)
    2abc:	00 dd                	add    %bl,%ch
    2abe:	52                   	push   %edx
    2abf:	10 00                	adc    %al,(%eax)
    2ac1:	48                   	dec    %eax
    2ac2:	04 00                	add    $0x0,%al
    2ac4:	00 13                	add    %dl,(%ebx)
    2ac6:	5f                   	pop    %edi
    2ac7:	6d                   	insl   (%dx),%es:(%edi)
    2ac8:	00 01                	add    %al,(%ecx)
    2aca:	21 3c 03             	and    %edi,(%ebx,%eax,1)
    2acd:	00 00                	add    %al,(%eax)
    2acf:	02 91 72 13 5f 73    	add    0x735f1372(%ecx),%dl
    2ad5:	00 01                	add    %al,(%ecx)
    2ad7:	21 3c 03             	and    %edi,(%ebx,%eax,1)
    2ada:	00 00                	add    %al,(%eax)
    2adc:	02 91 70 14 e1 04    	add    0x4e11470(%ecx),%dl
    2ae2:	00 00                	add    %al,(%eax)
    2ae4:	01 21                	add    %esp,(%ecx)
    2ae6:	d2 00                	rolb   %cl,(%eax)
    2ae8:	00 00                	add    %al,(%eax)
    2aea:	02 91 6e 12 63 52    	add    0x5263126e(%ecx),%dl
    2af0:	10 00                	adc    %al,(%eax)
    2af2:	7b 52                	jnp    2b46 <gdt_len+0x2336>
    2af4:	10 00                	adc    %al,(%eax)
    2af6:	2f                   	das    
    2af7:	04 00                	add    $0x0,%al
    2af9:	00 14 f0             	add    %dl,(%eax,%esi,8)
    2afc:	02 00                	add    (%eax),%al
    2afe:	00 01                	add    %al,(%ecx)
    2b00:	21 3c 03             	and    %edi,(%ebx,%eax,1)
    2b03:	00 00                	add    %al,(%eax)
    2b05:	02 91 73 00 15 7e    	add    0x7e150073(%ecx),%dl
    2b0b:	52                   	push   %edx
    2b0c:	10 00                	adc    %al,(%eax)
    2b0e:	96                   	xchg   %eax,%esi
    2b0f:	52                   	push   %edx
    2b10:	10 00                	adc    %al,(%eax)
    2b12:	14 f0                	adc    $0xf0,%al
    2b14:	02 00                	add    (%eax),%al
    2b16:	00 01                	add    %al,(%ecx)
    2b18:	21 3c 03             	and    %edi,(%ebx,%eax,1)
    2b1b:	00 00                	add    %al,(%eax)
    2b1d:	02 91 71 00 00 15    	add    0x15000071(%ecx),%dl
    2b23:	dd 52 10             	fstl   0x10(%edx)
    2b26:	00 58 53             	add    %bl,0x53(%eax)
    2b29:	10 00                	adc    %al,(%eax)
    2b2b:	13 5f 6d             	adc    0x6d(%edi),%ebx
    2b2e:	00 01                	add    %al,(%ecx)
    2b30:	22 3c 03             	and    (%ebx,%eax,1),%bh
    2b33:	00 00                	add    %al,(%eax)
    2b35:	02 91 6c 13 5f 73    	add    0x735f136c(%ecx),%dl
    2b3b:	00 01                	add    %al,(%ecx)
    2b3d:	22 3c 03             	and    (%ebx,%eax,1),%bh
    2b40:	00 00                	add    %al,(%eax)
    2b42:	02 91 6a 14 e1 04    	add    0x4e1146a(%ecx),%dl
    2b48:	00 00                	add    %al,(%eax)
    2b4a:	01 22                	add    %esp,(%edx)
    2b4c:	d2 00                	rolb   %cl,(%eax)
    2b4e:	00 00                	add    %al,(%eax)
    2b50:	02 91 68 12 dd 52    	add    0x52dd1268(%ecx),%dl
    2b56:	10 00                	adc    %al,(%eax)
    2b58:	f5                   	cmc    
    2b59:	52                   	push   %edx
    2b5a:	10 00                	adc    %al,(%eax)
    2b5c:	95                   	xchg   %eax,%ebp
    2b5d:	04 00                	add    $0x0,%al
    2b5f:	00 14 f0             	add    %dl,(%eax,%esi,8)
    2b62:	02 00                	add    (%eax),%al
    2b64:	00 01                	add    %al,(%ecx)
    2b66:	22 3c 03             	and    (%ebx,%eax,1),%bh
    2b69:	00 00                	add    %al,(%eax)
    2b6b:	02 91 6d 00 15 f8    	add    -0x7eaff93(%ecx),%dl
    2b71:	52                   	push   %edx
    2b72:	10 00                	adc    %al,(%eax)
    2b74:	10 53 10             	adc    %dl,0x10(%ebx)
    2b77:	00 14 f0             	add    %dl,(%eax,%esi,8)
    2b7a:	02 00                	add    (%eax),%al
    2b7c:	00 01                	add    %al,(%ecx)
    2b7e:	22 3c 03             	and    (%ebx,%eax,1),%bh
    2b81:	00 00                	add    %al,(%eax)
    2b83:	02 91 6b 00 00 00    	add    0x6b(%ecx),%dl
    2b89:	16                   	push   %ss
    2b8a:	01 0f                	add    %ecx,(%edi)
    2b8c:	05 00 00 01 25       	add    $0x25010000,%eax
    2b91:	01 bf 03 00 00 5e    	add    %edi,0x5e000003(%edi)
    2b97:	53                   	push   %ebx
    2b98:	10 00                	adc    %al,(%eax)
    2b9a:	67 54                	addr16 push %esp
    2b9c:	10 00                	adc    %al,(%eax)
    2b9e:	50                   	push   %eax
    2b9f:	0a 00                	or     (%eax),%al
    2ba1:	00 46 05             	add    %al,0x5(%esi)
    2ba4:	00 00                	add    %al,(%eax)
    2ba6:	17                   	pop    %ss
    2ba7:	ec                   	in     (%dx),%al
    2ba8:	04 00                	add    $0x0,%al
    2baa:	00 01                	add    %al,(%ecx)
    2bac:	25 4c 02 00 00       	and    $0x24c,%eax
    2bb1:	02 91 00 17 08 05    	add    0x5081700(%ecx),%dl
    2bb7:	00 00                	add    %al,(%eax)
    2bb9:	01 25 4c 02 00 00    	add    %esp,0x24c
    2bbf:	02 91 04 17 28 01    	add    0x1281704(%ecx),%dl
    2bc5:	00 00                	add    %al,(%eax)
    2bc7:	01 25 4c 02 00 00    	add    %esp,0x24c
    2bcd:	02 91 08 18 6c 62    	add    0x626c1808(%ecx),%dl
    2bd3:	61                   	popa   
    2bd4:	00 01                	add    %al,(%ecx)
    2bd6:	25 4c 02 00 00       	and    $0x24c,%eax
    2bdb:	02 91 0c 18 63 6d    	add    0x6d63180c(%ecx),%dl
    2be1:	64 00 01             	add    %al,%fs:(%ecx)
    2be4:	25 4c 02 00 00       	and    $0x24c,%eax
    2be9:	02 91 10 13 5f 73    	add    0x735f1310(%ecx),%dl
    2bef:	00 01                	add    %al,(%ecx)
    2bf1:	27                   	daa    
    2bf2:	46                   	inc    %esi
    2bf3:	05 00 00 02 91       	add    $0x91020000,%eax
    2bf8:	60                   	pusha  
    2bf9:	14 8f                	adc    $0x8f,%al
    2bfb:	05 00 00 01 28       	add    $0x28010000,%eax
    2c00:	3c 03                	cmp    $0x3,%al
    2c02:	00 00                	add    %al,(%eax)
    2c04:	02 91 6f 15 7c 53    	add    0x537c156f(%ecx),%dl
    2c0a:	10 00                	adc    %al,(%eax)
    2c0c:	94                   	xchg   %eax,%esp
    2c0d:	53                   	push   %ebx
    2c0e:	10 00                	adc    %al,(%eax)
    2c10:	14 f0                	adc    $0xf0,%al
    2c12:	02 00                	add    (%eax),%al
    2c14:	00 01                	add    %al,(%ecx)
    2c16:	2b 3c 03             	sub    (%ebx,%eax,1),%edi
    2c19:	00 00                	add    %al,(%eax)
    2c1b:	02 91 5f 00 00 06    	add    0x600005f(%ecx),%dl
    2c21:	08 07                	or     %al,(%edi)
    2c23:	0f 01 00             	sgdtl  (%eax)
    2c26:	00 19                	add    %bl,(%ecx)
    2c28:	5a                   	pop    %edx
    2c29:	00 00                	add    %al,(%eax)
    2c2b:	00 01                	add    %al,(%ecx)
    2c2d:	24 5a                	and    $0x5a,%al
    2c2f:	05 00 00 01 01       	add    $0x1010000,%eax
    2c34:	06                   	push   %es
    2c35:	08 05 bc 04 00 00    	or     %al,0x4bc
    2c3b:	0a 53 02             	or     0x2(%ebx),%dl
    2c3e:	00 00                	add    %al,(%eax)
    2c40:	71 05                	jno    2c47 <gdt_len+0x2437>
    2c42:	00 00                	add    %al,(%eax)
    2c44:	0b 4c 02 00          	or     0x0(%edx,%eax,1),%ecx
    2c48:	00 7f 00             	add    %bh,0x0(%edi)
    2c4b:	1a 16                	sbb    (%esi),%dl
    2c4d:	00 00                	add    %al,(%eax)
    2c4f:	00 02                	add    %al,(%edx)
    2c51:	cd 61                	int    $0x61
    2c53:	05 00 00 01 05       	add    $0x5010000,%eax
    2c58:	03 80 b9 10 00 0a    	add    0xa0010b9(%eax),%eax
    2c5e:	43                   	inc    %ebx
    2c5f:	03 00                	add    (%eax),%eax
    2c61:	00 93 05 00 00 0b    	add    %dl,0xb000005(%ebx)
    2c67:	4c                   	dec    %esp
    2c68:	02 00                	add    (%eax),%al
    2c6a:	00 0e                	add    %cl,(%esi)
    2c6c:	00 1a                	add    %bl,(%edx)
    2c6e:	f5                   	cmc    
    2c6f:	04 00                	add    $0x0,%al
    2c71:	00 01                	add    %al,(%ecx)
    2c73:	1d 83 05 00 00       	sbb    $0x583,%eax
    2c78:	01 05 03 00 1a 15    	add    %eax,0x151a0003
    2c7e:	00 1a                	add    %bl,(%edx)
    2c80:	ca 04 00             	lret   $0x4
    2c83:	00 01                	add    %al,(%ecx)
    2c85:	1e                   	push   %ds
    2c86:	b7 05                	mov    $0x5,%bh
    2c88:	00 00                	add    %al,(%eax)
    2c8a:	01 05 03 e0 19 15    	add    %eax,0x1519e003
    2c90:	00 0f                	add    %cl,(%edi)
    2c92:	04 43                	add    $0x43,%al
    2c94:	03 00                	add    (%eax),%eax
    2c96:	00 19                	add    %bl,(%ecx)
    2c98:	5a                   	pop    %edx
    2c99:	00 00                	add    %al,(%eax)
    2c9b:	00 01                	add    %al,(%ecx)
    2c9d:	24 5a                	and    $0x5a,%al
    2c9f:	05 00 00 01 01       	add    $0x1010000,%eax
    2ca4:	00 36                	add    %dh,(%esi)
    2ca6:	01 00                	add    %eax,(%eax)
    2ca8:	00 02                	add    %al,(%edx)
    2caa:	00 b2 0a 00 00 04    	add    %dh,0x400000a(%edx)
    2cb0:	01 45 02             	add    %eax,0x2(%ebp)
    2cb3:	00 00                	add    %al,(%eax)
    2cb5:	01 2b                	add    %ebp,(%ebx)
    2cb7:	05 00 00 f9 01       	add    $0x1f90000,%eax
    2cbc:	00 00                	add    %al,(%eax)
    2cbe:	68 54 10 00 e9       	push   $0xe9001054
    2cc3:	54                   	push   %esp
    2cc4:	10 00                	adc    %al,(%eax)
    2cc6:	7d 06                	jge    2cce <gdt_len+0x24be>
    2cc8:	00 00                	add    %al,(%eax)
    2cca:	02 36                	add    (%esi),%dh
    2ccc:	05 00 00 0c 04       	add    $0x40c0000,%eax
    2cd1:	02 7b 6e             	add    0x6e(%ebx),%bh
    2cd4:	00 00                	add    %al,(%eax)
    2cd6:	00 03                	add    %al,(%ebx)
    2cd8:	62 75 66             	bound  %esi,0x66(%ebp)
    2cdb:	00 02                	add    %al,(%edx)
    2cdd:	7c 6e                	jl     2d4d <gdt_len+0x253d>
    2cdf:	00 00                	add    %al,(%eax)
    2ce1:	00 02                	add    %al,(%edx)
    2ce3:	23 00                	and    (%eax),%eax
    2ce5:	04 50                	add    $0x50,%al
    2ce7:	05 00 00 02 7d       	add    $0x7d020000,%eax
    2cec:	8d 00                	lea    (%eax),%eax
    2cee:	00 00                	add    %al,(%eax)
    2cf0:	03 23                	add    (%ebx),%esp
    2cf2:	80 08 04             	orb    $0x4,(%eax)
    2cf5:	26                   	es
    2cf6:	05 00 00 02 7d       	add    $0x7d020000,%eax
    2cfb:	8d 00                	lea    (%eax),%eax
    2cfd:	00 00                	add    %al,(%eax)
    2cff:	03 23                	add    (%ebx),%esp
    2d01:	84 08                	test   %cl,(%eax)
    2d03:	04 28                	add    $0x28,%al
    2d05:	01 00                	add    %eax,(%eax)
    2d07:	00 02                	add    %al,(%edx)
    2d09:	7e 8d                	jle    2c98 <gdt_len+0x2488>
    2d0b:	00 00                	add    %al,(%eax)
    2d0d:	00 03                	add    %al,(%ebx)
    2d0f:	23 88 08 00 05 86    	and    -0x79fafff8(%eax),%ecx
    2d15:	00 00                	add    %al,(%eax)
    2d17:	00 7f 00             	add    %bh,0x0(%edi)
    2d1a:	00 00                	add    %al,(%eax)
    2d1c:	06                   	push   %es
    2d1d:	7f 00                	jg     2d1f <gdt_len+0x250f>
    2d1f:	00 00                	add    %al,(%eax)
    2d21:	ff 03                	incl   (%ebx)
    2d23:	00 07                	add    %al,(%edi)
    2d25:	04 07                	add    $0x7,%al
    2d27:	19 01                	sbb    %eax,(%ecx)
    2d29:	00 00                	add    %al,(%eax)
    2d2b:	07                   	pop    %es
    2d2c:	01 06                	add    %eax,(%esi)
    2d2e:	4f                   	dec    %edi
    2d2f:	01 00                	add    %eax,(%eax)
    2d31:	00 08                	add    %cl,(%eax)
    2d33:	04 05                	add    $0x5,%al
    2d35:	69 6e 74 00 09 01 16 	imul   $0x16010900,0x74(%esi),%ebp
    2d3c:	05 00 00 01 1a       	add    $0x1a010000,%eax
    2d41:	01 68 54             	add    %ebp,0x54(%eax)
    2d44:	10 00                	adc    %al,(%eax)
    2d46:	e9 54 10 00 88       	jmp    88003d9f <MULTIBOOT_HEADER_MAGIC+0x6c528d9d>
    2d4b:	0a 00                	or     (%eax),%al
    2d4d:	00 e2                	add    %ah,%dl
    2d4f:	00 00                	add    %al,(%eax)
    2d51:	00 0a                	add    %cl,(%edx)
    2d53:	e6 00                	out    %al,$0x0
    2d55:	00 00                	add    %al,(%eax)
    2d57:	01 1a                	add    %ebx,(%edx)
    2d59:	7f 00                	jg     2d5b <gdt_len+0x254b>
    2d5b:	00 00                	add    %al,(%eax)
    2d5d:	02 91 00 0b 55 05    	add    0x5550b00(%ecx),%dl
    2d63:	00 00                	add    %al,(%eax)
    2d65:	01 1c e2             	add    %ebx,(%edx,%eiz,8)
    2d68:	00 00                	add    %al,(%eax)
    2d6a:	00 02                	add    %al,(%edx)
    2d6c:	91                   	xchg   %eax,%ecx
    2d6d:	70 0c                	jo     2d7b <gdt_len+0x256b>
    2d6f:	6f                   	outsl  %ds:(%esi),(%dx)
    2d70:	54                   	push   %esp
    2d71:	10 00                	adc    %al,(%eax)
    2d73:	87 54 10 00          	xchg   %edx,0x0(%eax,%edx,1)
    2d77:	0b f0                	or     %eax,%esi
    2d79:	02 00                	add    (%eax),%al
    2d7b:	00 01                	add    %al,(%ecx)
    2d7d:	1c e9                	sbb    $0xe9,%al
    2d7f:	00 00                	add    %al,(%eax)
    2d81:	00 02                	add    %al,(%edx)
    2d83:	91                   	xchg   %eax,%ecx
    2d84:	73 00                	jae    2d86 <gdt_len+0x2576>
    2d86:	00 07                	add    %al,(%edi)
    2d88:	02 07                	add    (%edi),%al
    2d8a:	be 01 00 00 07       	mov    $0x7000001,%esi
    2d8f:	01 08                	add    %ecx,(%eax)
    2d91:	46                   	inc    %esi
    2d92:	01 00                	add    %eax,(%eax)
    2d94:	00 0d 36 05 00 00    	add    %cl,0x536
    2d9a:	01 19                	add    %ebx,(%ecx)
    2d9c:	25 00 00 00 01       	and    $0x1000000,%eax
    2da1:	01 0e                	add    %ecx,(%esi)
    2da3:	49                   	dec    %ecx
    2da4:	05 00 00 01 17       	add    $0x17010000,%eax
    2da9:	0f 01 00             	sgdtl  (%eax)
    2dac:	00 01                	add    %al,(%ecx)
    2dae:	05 03 f0 6e 10       	add    $0x106ef003,%eax
    2db3:	00 0f                	add    %cl,(%edi)
    2db5:	04 7f                	add    $0x7f,%al
    2db7:	00 00                	add    %al,(%eax)
    2db9:	00 0e                	add    %cl,(%esi)
    2dbb:	43                   	inc    %ebx
    2dbc:	05 00 00 01 18       	add    $0x18010000,%eax
    2dc1:	8d 00                	lea    (%eax),%eax
    2dc3:	00 00                	add    %al,(%eax)
    2dc5:	01 05 03 40 b5 10    	add    %eax,0x10b54003
    2dcb:	00 0e                	add    %cl,(%esi)
    2dcd:	36                   	ss
    2dce:	05 00 00 01 19       	add    $0x19010000,%eax
    2dd3:	25 00 00 00 01       	and    $0x1000000,%eax
    2dd8:	05 03 60 b5 10       	add    $0x10b56003,%eax
    2ddd:	00 00                	add    %al,(%eax)
    2ddf:	c1 05 00 00 02 00 84 	roll   $0x84,0x20000
    2de6:	0b 00                	or     (%eax),%eax
    2de8:	00 04 01             	add    %al,(%ecx,%eax,1)
    2deb:	45                   	inc    %ebp
    2dec:	02 00                	add    (%eax),%al
    2dee:	00 01                	add    %al,(%ecx)
    2df0:	62 05 00 00 f9 01    	bound  %eax,0x1f90000
    2df6:	00 00                	add    %al,(%eax)
    2df8:	ec                   	in     (%dx),%al
    2df9:	54                   	push   %esp
    2dfa:	10 00                	adc    %al,(%eax)
    2dfc:	b4 58                	mov    $0x58,%ah
    2dfe:	10 00                	adc    %al,(%eax)
    2e00:	d6                   	(bad)  
    2e01:	06                   	push   %es
    2e02:	00 00                	add    %al,(%eax)
    2e04:	02 36                	add    (%esi),%dh
    2e06:	05 00 00 0c 04       	add    $0x40c0000,%eax
    2e0b:	02 7b 6e             	add    0x6e(%ebx),%bh
    2e0e:	00 00                	add    %al,(%eax)
    2e10:	00 03                	add    %al,(%ebx)
    2e12:	62 75 66             	bound  %esi,0x66(%ebp)
    2e15:	00 02                	add    %al,(%edx)
    2e17:	7c 6e                	jl     2e87 <gdt_len+0x2677>
    2e19:	00 00                	add    %al,(%eax)
    2e1b:	00 02                	add    %al,(%edx)
    2e1d:	23 00                	and    (%eax),%eax
    2e1f:	04 50                	add    $0x50,%al
    2e21:	05 00 00 02 7d       	add    $0x7d020000,%eax
    2e26:	8d 00                	lea    (%eax),%eax
    2e28:	00 00                	add    %al,(%eax)
    2e2a:	03 23                	add    (%ebx),%esp
    2e2c:	80 08 04             	orb    $0x4,(%eax)
    2e2f:	26                   	es
    2e30:	05 00 00 02 7d       	add    $0x7d020000,%eax
    2e35:	8d 00                	lea    (%eax),%eax
    2e37:	00 00                	add    %al,(%eax)
    2e39:	03 23                	add    (%ebx),%esp
    2e3b:	84 08                	test   %cl,(%eax)
    2e3d:	04 28                	add    $0x28,%al
    2e3f:	01 00                	add    %eax,(%eax)
    2e41:	00 02                	add    %al,(%edx)
    2e43:	7e 8d                	jle    2dd2 <gdt_len+0x25c2>
    2e45:	00 00                	add    %al,(%eax)
    2e47:	00 03                	add    %al,(%ebx)
    2e49:	23 88 08 00 05 86    	and    -0x79fafff8(%eax),%ecx
    2e4f:	00 00                	add    %al,(%eax)
    2e51:	00 7f 00             	add    %bh,0x0(%edi)
    2e54:	00 00                	add    %al,(%eax)
    2e56:	06                   	push   %es
    2e57:	7f 00                	jg     2e59 <gdt_len+0x2649>
    2e59:	00 00                	add    %al,(%eax)
    2e5b:	ff 03                	incl   (%ebx)
    2e5d:	00 07                	add    %al,(%edi)
    2e5f:	04 07                	add    $0x7,%al
    2e61:	19 01                	sbb    %eax,(%ecx)
    2e63:	00 00                	add    %al,(%eax)
    2e65:	07                   	pop    %es
    2e66:	01 06                	add    %eax,(%esi)
    2e68:	4f                   	dec    %edi
    2e69:	01 00                	add    %eax,(%eax)
    2e6b:	00 08                	add    %cl,(%eax)
    2e6d:	04 05                	add    $0x5,%al
    2e6f:	69 6e 74 00 09 da 02 	imul   $0x2da0900,0x74(%esi),%ebp
    2e76:	00 00                	add    %al,(%eax)
    2e78:	08 03                	or     %al,(%ebx)
    2e7a:	5c                   	pop    %esp
    2e7b:	41                   	inc    %ecx
    2e7c:	01 00                	add    %eax,(%eax)
    2e7e:	00 04 b2             	add    %al,(%edx,%esi,4)
    2e81:	00 00                	add    %al,(%eax)
    2e83:	00 03                	add    %al,(%ebx)
    2e85:	5d                   	pop    %ebp
    2e86:	41                   	inc    %ecx
    2e87:	01 00                	add    %eax,(%eax)
    2e89:	00 02                	add    %al,(%edx)
    2e8b:	23 00                	and    (%eax),%eax
    2e8d:	04 a5                	add    $0xa5,%al
    2e8f:	01 00                	add    %eax,(%eax)
    2e91:	00 03                	add    %al,(%ebx)
    2e93:	5e                   	pop    %esi
    2e94:	41                   	inc    %ecx
    2e95:	01 00                	add    %eax,(%eax)
    2e97:	00 02                	add    %al,(%edx)
    2e99:	23 02                	and    (%edx),%eax
    2e9b:	0a ac 01 00 00 03 5f 	or     0x5f030000(%ecx,%eax,1),%ch
    2ea2:	41                   	inc    %ecx
    2ea3:	01 00                	add    %eax,(%eax)
    2ea5:	00 02                	add    %al,(%edx)
    2ea7:	08 08                	or     %cl,(%eax)
    2ea9:	02 23                	add    (%ebx),%ah
    2eab:	04 0a                	add    $0xa,%al
    2ead:	83 01 00             	addl   $0x0,(%ecx)
    2eb0:	00 03                	add    %al,(%ebx)
    2eb2:	60                   	pusha  
    2eb3:	41                   	inc    %ecx
    2eb4:	01 00                	add    %eax,(%eax)
    2eb6:	00 02                	add    %al,(%edx)
    2eb8:	04 04                	add    $0x4,%al
    2eba:	02 23                	add    (%ebx),%ah
    2ebc:	04 0b                	add    $0xb,%al
    2ebe:	73 00                	jae    2ec0 <gdt_len+0x26b0>
    2ec0:	03 61 41             	add    0x41(%ecx),%esp
    2ec3:	01 00                	add    %eax,(%eax)
    2ec5:	00 02                	add    %al,(%edx)
    2ec7:	01 03                	add    %eax,(%ebx)
    2ec9:	02 23                	add    (%ebx),%ah
    2ecb:	04 0b                	add    $0xb,%al
    2ecd:	64                   	fs
    2ece:	70 6c                	jo     2f3c <gdt_len+0x272c>
    2ed0:	00 03                	add    %al,(%ebx)
    2ed2:	62 41 01             	bound  %eax,0x1(%ecx)
    2ed5:	00 00                	add    %al,(%eax)
    2ed7:	02 02                	add    (%edx),%al
    2ed9:	01 02                	add    %eax,(%edx)
    2edb:	23 04 0b             	and    (%ebx,%ecx,1),%eax
    2ede:	70 00                	jo     2ee0 <gdt_len+0x26d0>
    2ee0:	03 63 41             	add    0x41(%ebx),%esp
    2ee3:	01 00                	add    %eax,(%eax)
    2ee5:	00 02                	add    %al,(%edx)
    2ee7:	01 00                	add    %eax,(%eax)
    2ee9:	02 23                	add    (%ebx),%ah
    2eeb:	04 0a                	add    $0xa,%al
    2eed:	aa                   	stos   %al,%es:(%edi)
    2eee:	00 00                	add    %al,(%eax)
    2ef0:	00 03                	add    %al,(%ebx)
    2ef2:	64                   	fs
    2ef3:	41                   	inc    %ecx
    2ef4:	01 00                	add    %eax,(%eax)
    2ef6:	00 02                	add    %al,(%edx)
    2ef8:	04 0c                	add    $0xc,%al
    2efa:	02 23                	add    (%ebx),%ah
    2efc:	06                   	push   %es
    2efd:	0a c6                	or     %dh,%al
    2eff:	02 00                	add    (%eax),%al
    2f01:	00 03                	add    %al,(%ebx)
    2f03:	65                   	gs
    2f04:	41                   	inc    %ecx
    2f05:	01 00                	add    %eax,(%eax)
    2f07:	00 02                	add    %al,(%edx)
    2f09:	04 08                	add    $0x8,%al
    2f0b:	02 23                	add    (%ebx),%ah
    2f0d:	06                   	push   %es
    2f0e:	0a 91 01 00 00 03    	or     0x3000001(%ecx),%dl
    2f14:	66 41                	inc    %cx
    2f16:	01 00                	add    %eax,(%eax)
    2f18:	00 02                	add    %al,(%edx)
    2f1a:	08 00                	or     %al,(%eax)
    2f1c:	02 23                	add    (%ebx),%ah
    2f1e:	06                   	push   %es
    2f1f:	00 07                	add    %al,(%edi)
    2f21:	02 07                	add    (%edi),%al
    2f23:	be 01 00 00 0c       	mov    $0xc000001,%esi
    2f28:	74 73                	je     2f9d <gdt_len+0x278d>
    2f2a:	73 00                	jae    2f2c <gdt_len+0x271c>
    2f2c:	68 03 99 bb 02       	push   $0x2bb9903
    2f31:	00 00                	add    %al,(%eax)
    2f33:	04 2f                	add    $0x2f,%al
    2f35:	00 00                	add    %al,(%eax)
    2f37:	00 03                	add    %al,(%ebx)
    2f39:	9a 7f 00 00 00 02 23 	lcall  $0x2302,$0x7f
    2f40:	00 04 d9             	add    %al,(%ecx,%ebx,8)
    2f43:	01 00                	add    %eax,(%eax)
    2f45:	00 03                	add    %al,(%ebx)
    2f47:	9b                   	fwait
    2f48:	7f 00                	jg     2f4a <gdt_len+0x273a>
    2f4a:	00 00                	add    %al,(%eax)
    2f4c:	02 23                	add    (%ebx),%ah
    2f4e:	04 03                	add    $0x3,%al
    2f50:	73 73                	jae    2fc5 <gdt_len+0x27b5>
    2f52:	30 00                	xor    %al,(%eax)
    2f54:	03 9b 7f 00 00 00    	add    0x7f(%ebx),%ebx
    2f5a:	02 23                	add    (%ebx),%ah
    2f5c:	08 04 de             	or     %al,(%esi,%ebx,8)
    2f5f:	01 00                	add    %eax,(%eax)
    2f61:	00 03                	add    %al,(%ebx)
    2f63:	9b                   	fwait
    2f64:	7f 00                	jg     2f66 <gdt_len+0x2756>
    2f66:	00 00                	add    %al,(%eax)
    2f68:	02 23                	add    (%ebx),%ah
    2f6a:	0c 03                	or     $0x3,%al
    2f6c:	73 73                	jae    2fe1 <gdt_len+0x27d1>
    2f6e:	31 00                	xor    %eax,(%eax)
    2f70:	03 9b 7f 00 00 00    	add    0x7f(%ebx),%ebx
    2f76:	02 23                	add    (%ebx),%ah
    2f78:	10 04 e3             	adc    %al,(%ebx,%eiz,8)
    2f7b:	01 00                	add    %eax,(%eax)
    2f7d:	00 03                	add    %al,(%ebx)
    2f7f:	9b                   	fwait
    2f80:	7f 00                	jg     2f82 <gdt_len+0x2772>
    2f82:	00 00                	add    %al,(%eax)
    2f84:	02 23                	add    (%ebx),%ah
    2f86:	14 03                	adc    $0x3,%al
    2f88:	73 73                	jae    2ffd <gdt_len+0x27ed>
    2f8a:	32 00                	xor    (%eax),%al
    2f8c:	03 9b 7f 00 00 00    	add    0x7f(%ebx),%ebx
    2f92:	02 23                	add    (%ebx),%ah
    2f94:	18 03                	sbb    %al,(%ebx)
    2f96:	63 72 33             	arpl   %si,0x33(%edx)
    2f99:	00 03                	add    %al,(%ebx)
    2f9b:	9c                   	pushf  
    2f9c:	7f 00                	jg     2f9e <gdt_len+0x278e>
    2f9e:	00 00                	add    %al,(%eax)
    2fa0:	02 23                	add    (%ebx),%ah
    2fa2:	1c 03                	sbb    $0x3,%al
    2fa4:	65 69 70 00 03 9c 7f 	imul   $0x7f9c03,%gs:0x0(%eax),%esi
    2fab:	00 
    2fac:	00 00                	add    %al,(%eax)
    2fae:	02 23                	add    (%ebx),%ah
    2fb0:	20 04 53             	and    %al,(%ebx,%edx,2)
    2fb3:	00 00                	add    %al,(%eax)
    2fb5:	00 03                	add    %al,(%ebx)
    2fb7:	9c                   	pushf  
    2fb8:	7f 00                	jg     2fba <gdt_len+0x27aa>
    2fba:	00 00                	add    %al,(%eax)
    2fbc:	02 23                	add    (%ebx),%ah
    2fbe:	24 03                	and    $0x3,%al
    2fc0:	65                   	gs
    2fc1:	61                   	popa   
    2fc2:	78 00                	js     2fc4 <gdt_len+0x27b4>
    2fc4:	03 9c 7f 00 00 00 02 	add    0x2000000(%edi,%edi,2),%ebx
    2fcb:	23 28                	and    (%eax),%ebp
    2fcd:	03 65 63             	add    0x63(%ebp),%esp
    2fd0:	78 00                	js     2fd2 <gdt_len+0x27c2>
    2fd2:	03 9c 7f 00 00 00 02 	add    0x2000000(%edi,%edi,2),%ebx
    2fd9:	23 2c 03             	and    (%ebx,%eax,1),%ebp
    2fdc:	65                   	gs
    2fdd:	64                   	fs
    2fde:	78 00                	js     2fe0 <gdt_len+0x27d0>
    2fe0:	03 9c 7f 00 00 00 02 	add    0x2000000(%edi,%edi,2),%ebx
    2fe7:	23 30                	and    (%eax),%esi
    2fe9:	03 65 62             	add    0x62(%ebp),%esp
    2fec:	78 00                	js     2fee <gdt_len+0x27de>
    2fee:	03 9c 7f 00 00 00 02 	add    0x2000000(%edi,%edi,2),%ebx
    2ff5:	23 34 03             	and    (%ebx,%eax,1),%esi
    2ff8:	65                   	gs
    2ff9:	73 70                	jae    306b <gdt_len+0x285b>
    2ffb:	00 03                	add    %al,(%ebx)
    2ffd:	9c                   	pushf  
    2ffe:	7f 00                	jg     3000 <gdt_len+0x27f0>
    3000:	00 00                	add    %al,(%eax)
    3002:	02 23                	add    (%ebx),%ah
    3004:	38 03                	cmp    %al,(%ebx)
    3006:	65 62 70 00          	bound  %esi,%gs:0x0(%eax)
    300a:	03 9c 7f 00 00 00 02 	add    0x2000000(%edi,%edi,2),%ebx
    3011:	23 3c 03             	and    (%ebx,%eax,1),%edi
    3014:	65                   	gs
    3015:	73 69                	jae    3080 <gdt_len+0x2870>
    3017:	00 03                	add    %al,(%ebx)
    3019:	9c                   	pushf  
    301a:	7f 00                	jg     301c <gdt_len+0x280c>
    301c:	00 00                	add    %al,(%eax)
    301e:	02 23                	add    (%ebx),%ah
    3020:	40                   	inc    %eax
    3021:	03 65 64             	add    0x64(%ebp),%esp
    3024:	69 00 03 9c 7f 00    	imul   $0x7f9c03,(%eax),%eax
    302a:	00 00                	add    %al,(%eax)
    302c:	02 23                	add    (%ebx),%ah
    302e:	44                   	inc    %esp
    302f:	03 65 73             	add    0x73(%ebp),%esp
    3032:	00 03                	add    %al,(%ebx)
    3034:	9d                   	popf   
    3035:	7f 00                	jg     3037 <gdt_len+0x2827>
    3037:	00 00                	add    %al,(%eax)
    3039:	02 23                	add    (%ebx),%ah
    303b:	48                   	dec    %eax
    303c:	03 63 73             	add    0x73(%ebx),%esp
    303f:	00 03                	add    %al,(%ebx)
    3041:	9d                   	popf   
    3042:	7f 00                	jg     3044 <gdt_len+0x2834>
    3044:	00 00                	add    %al,(%eax)
    3046:	02 23                	add    (%ebx),%ah
    3048:	4c                   	dec    %esp
    3049:	03 73 73             	add    0x73(%ebx),%esi
    304c:	00 03                	add    %al,(%ebx)
    304e:	9d                   	popf   
    304f:	7f 00                	jg     3051 <gdt_len+0x2841>
    3051:	00 00                	add    %al,(%eax)
    3053:	02 23                	add    (%ebx),%ah
    3055:	50                   	push   %eax
    3056:	03 64 73 00          	add    0x0(%ebx,%esi,2),%esp
    305a:	03 9d 7f 00 00 00    	add    0x7f(%ebp),%ebx
    3060:	02 23                	add    (%ebx),%ah
    3062:	54                   	push   %esp
    3063:	03 66 73             	add    0x73(%esi),%esp
    3066:	00 03                	add    %al,(%ebx)
    3068:	9d                   	popf   
    3069:	7f 00                	jg     306b <gdt_len+0x285b>
    306b:	00 00                	add    %al,(%eax)
    306d:	02 23                	add    (%ebx),%ah
    306f:	58                   	pop    %eax
    3070:	03 67 73             	add    0x73(%edi),%esp
    3073:	00 03                	add    %al,(%ebx)
    3075:	9d                   	popf   
    3076:	7f 00                	jg     3078 <gdt_len+0x2868>
    3078:	00 00                	add    %al,(%eax)
    307a:	02 23                	add    (%ebx),%ah
    307c:	5c                   	pop    %esp
    307d:	03 6c 64 74          	add    0x74(%esp,%eiz,2),%ebp
    3081:	00 03                	add    %al,(%ebx)
    3083:	9d                   	popf   
    3084:	7f 00                	jg     3086 <gdt_len+0x2876>
    3086:	00 00                	add    %al,(%eax)
    3088:	02 23                	add    (%ebx),%ah
    308a:	60                   	pusha  
    308b:	04 51                	add    $0x51,%al
    308d:	02 00                	add    (%eax),%al
    308f:	00 03                	add    %al,(%ebx)
    3091:	9d                   	popf   
    3092:	7f 00                	jg     3094 <gdt_len+0x2884>
    3094:	00 00                	add    %al,(%eax)
    3096:	02 23                	add    (%ebx),%ah
    3098:	64 00 02             	add    %al,%fs:(%edx)
    309b:	81 00 00 00 b0 08    	addl   $0x8b00000,(%eax)
    30a1:	03 b8 83 03 00 00    	add    0x383(%eax),%edi
    30a7:	03 70 69             	add    0x69(%eax),%esi
    30aa:	64 00 03             	add    %al,%fs:(%ebx)
    30ad:	b9 7f 00 00 00       	mov    $0x7f,%ecx
    30b2:	02 23                	add    (%ebx),%ah
    30b4:	00 04 54             	add    %al,(%esp,%edx,2)
    30b7:	01 00                	add    %eax,(%eax)
    30b9:	00 03                	add    %al,(%ebx)
    30bb:	ba 7f 00 00 00       	mov    $0x7f,%edx
    30c0:	02 23                	add    (%ebx),%ah
    30c2:	04 04                	add    $0x4,%al
    30c4:	36 00 00             	add    %al,%ss:(%eax)
    30c7:	00 03                	add    %al,(%ebx)
    30c9:	bb 7f 00 00 00       	mov    $0x7f,%ebx
    30ce:	02 23                	add    (%ebx),%ah
    30d0:	08 04 b3             	or     %al,(%ebx,%esi,4)
    30d3:	01 00                	add    %eax,(%eax)
    30d5:	00 03                	add    %al,(%ebx)
    30d7:	bc 7f 00 00 00       	mov    $0x7f,%esp
    30dc:	02 23                	add    (%ebx),%ah
    30de:	0c 04                	or     $0x4,%al
    30e0:	ba 00 00 00 03       	mov    $0x3000000,%edx
    30e5:	bd 7f 00 00 00       	mov    $0x7f,%ebp
    30ea:	02 23                	add    (%ebx),%ah
    30ec:	10 04 26             	adc    %al,(%esi,%eiz,1)
    30ef:	00 00                	add    %al,(%eax)
    30f1:	00 03                	add    %al,(%ebx)
    30f3:	be 7f 00 00 00       	mov    $0x7f,%esi
    30f8:	02 23                	add    (%ebx),%ah
    30fa:	14 04                	adc    $0x4,%al
    30fc:	e8 01 00 00 03       	call   3003102 <_end+0x2eb15d6>
    3101:	bf 7f 00 00 00       	mov    $0x7f,%edi
    3106:	02 23                	add    (%ebx),%ah
    3108:	18 04 60             	sbb    %al,(%eax,%eiz,2)
    310b:	00 00                	add    %al,(%eax)
    310d:	00 03                	add    %al,(%ebx)
    310f:	c0 41 01 00          	rolb   $0x0,0x1(%ecx)
    3113:	00 02                	add    %al,(%edx)
    3115:	23 1c 03             	and    (%ebx,%eax,1),%ebx
    3118:	74 73                	je     318d <gdt_len+0x297d>
    311a:	73 00                	jae    311c <gdt_len+0x290c>
    311c:	03 c1                	add    %ecx,%eax
    311e:	48                   	dec    %eax
    311f:	01 00                	add    %eax,(%eax)
    3121:	00 02                	add    %al,(%edx)
    3123:	23 20                	and    (%eax),%esp
    3125:	04 b9                	add    $0xb9,%al
    3127:	02 00                	add    (%eax),%al
    3129:	00 03                	add    %al,(%ebx)
    312b:	c2 41 01             	ret    $0x141
    312e:	00 00                	add    %al,(%eax)
    3130:	03 23                	add    (%ebx),%esp
    3132:	88 01                	mov    %al,(%ecx)
    3134:	03 6c 64 74          	add    0x74(%esp,%eiz,2),%ebp
    3138:	00 03                	add    %al,(%ebx)
    313a:	c3                   	ret    
    313b:	83 03 00             	addl   $0x0,(%ebx)
    313e:	00 03                	add    %al,(%ebx)
    3140:	23 90 01 04 46 00    	and    0x460401(%eax),%edx
    3146:	00 00                	add    %al,(%eax)
    3148:	03 c4                	add    %esp,%eax
    314a:	93                   	xchg   %eax,%ebx
    314b:	03 00                	add    (%eax),%eax
    314d:	00 03                	add    %al,(%ebx)
    314f:	23 b0 01 04 3a 02    	and    0x23a0401(%eax),%esi
    3155:	00 00                	add    %al,(%eax)
    3157:	03 c5                	add    %ebp,%eax
    3159:	93                   	xchg   %eax,%ebx
    315a:	03 00                	add    (%eax),%eax
    315c:	00 03                	add    %al,(%ebx)
    315e:	23 b0 09 00 05 94    	and    -0x6bfafff7(%eax),%esi
    3164:	00 00                	add    %al,(%eax)
    3166:	00 93 03 00 00 0d    	add    %dl,0xd000003(%ebx)
    316c:	7f 00                	jg     316e <gdt_len+0x295e>
    316e:	00 00                	add    %al,(%eax)
    3170:	03 00                	add    (%eax),%eax
    3172:	05 a4 03 00 00       	add    $0x3a4,%eax
    3177:	a4                   	movsb  %ds:(%esi),%es:(%edi)
    3178:	03 00                	add    (%eax),%eax
    317a:	00 06                	add    %al,(%esi)
    317c:	7f 00                	jg     317e <gdt_len+0x296e>
    317e:	00 00                	add    %al,(%eax)
    3180:	ff 03                	incl   (%ebx)
    3182:	00 07                	add    %al,(%edi)
    3184:	01 08                	add    %ecx,(%eax)
    3186:	46                   	inc    %esi
    3187:	01 00                	add    %eax,(%eax)
    3189:	00 0e                	add    %cl,(%esi)
    318b:	01 9b 05 00 00 01    	add    %ebx,0x1000005(%ebx)
    3191:	24 ec                	and    $0xec,%al
    3193:	54                   	push   %esp
    3194:	10 00                	adc    %al,(%eax)
    3196:	3f                   	aas    
    3197:	57                   	push   %edi
    3198:	10 00                	adc    %al,(%eax)
    319a:	c0 0a 00             	rorb   $0x0,(%edx)
    319d:	00 12                	add    %dl,(%edx)
    319f:	04 00                	add    $0x0,%al
    31a1:	00 0f                	add    %cl,(%edi)
    31a3:	6a 05                	push   $0x5
    31a5:	00 00                	add    %al,(%eax)
    31a7:	01 26                	add    %esp,(%esi)
    31a9:	86 00                	xchg   %al,(%eax)
    31ab:	00 00                	add    %al,(%eax)
    31ad:	02 91 65 10 63 68    	add    0x68631065(%ecx),%dl
    31b3:	00 01                	add    %al,(%ecx)
    31b5:	27                   	daa    
    31b6:	7f 00                	jg     31b8 <gdt_len+0x29a8>
    31b8:	00 00                	add    %al,(%eax)
    31ba:	02 91 60 11 32 55    	add    0x55321160(%ecx),%dl
    31c0:	10 00                	adc    %al,(%eax)
    31c2:	72 55                	jb     3219 <gdt_len+0x2a09>
    31c4:	10 00                	adc    %al,(%eax)
    31c6:	0f af 04 00          	imul   (%eax,%eax,1),%eax
    31ca:	00 01                	add    %al,(%ecx)
    31cc:	2d 12 04 00 00       	sub    $0x412,%eax
    31d1:	02 91 6c 10 70 6f    	add    0x6f70106c(%ecx),%dl
    31d7:	73 00                	jae    31d9 <gdt_len+0x29c9>
    31d9:	01 2d 8d 00 00 00    	add    %ebp,0x8d
    31df:	02 91 68 10 63 68    	add    0x68631068(%ecx),%dl
    31e5:	00 01                	add    %al,(%ecx)
    31e7:	2d 18 04 00 00       	sub    $0x418,%eax
    31ec:	02 91 66 00 00 12    	add    0x12000066(%ecx),%dl
    31f2:	04 86                	add    $0x86,%al
    31f4:	00 00                	add    %al,(%eax)
    31f6:	00 07                	add    %al,(%edi)
    31f8:	02 05 3c 00 00 00    	add    0x3c,%al
    31fe:	0e                   	push   %cs
    31ff:	01 e5                	add    %esp,%ebp
    3201:	02 00                	add    (%eax),%al
    3203:	00 01                	add    %al,(%ecx)
    3205:	69 3f 57 10 00 46    	imul   $0x46001057,(%edi),%edi
    320b:	58                   	pop    %eax
    320c:	10 00                	adc    %al,(%eax)
    320e:	ec                   	in     (%dx),%al
    320f:	0a 00                	or     (%eax),%al
    3211:	00 44 04 00          	add    %al,0x0(%esp,%eax,1)
    3215:	00 10                	add    %dl,(%eax)
    3217:	69 00 01 70 8d 00    	imul   $0x8d7001,(%eax),%eax
    321d:	00 00                	add    %al,(%eax)
    321f:	02 91 68 00 13 01    	add    0x1130068(%ecx),%dl
    3225:	a6                   	cmpsb  %es:(%edi),%ds:(%esi)
    3226:	05 00 00 01 78       	add    $0x78010000,%eax
    322b:	01 46 58             	add    %eax,0x58(%esi)
    322e:	10 00                	adc    %al,(%eax)
    3230:	b4 58                	mov    $0x58,%ah
    3232:	10 00                	adc    %al,(%eax)
    3234:	24 0b                	and    $0xb,%al
    3236:	00 00                	add    %al,(%eax)
    3238:	95                   	xchg   %eax,%ebp
    3239:	04 00                	add    $0x0,%al
    323b:	00 14 72             	add    %dl,(%edx,%esi,2)
    323e:	6f                   	outsl  %ds:(%esi),(%dx)
    323f:	77 00                	ja     3241 <gdt_len+0x2a31>
    3241:	01 78 8d             	add    %edi,-0x73(%eax)
    3244:	00 00                	add    %al,(%eax)
    3246:	00 02                	add    %al,(%edx)
    3248:	91                   	xchg   %eax,%ecx
    3249:	00 0f                	add    %cl,(%edi)
    324b:	5d                   	pop    %ebp
    324c:	05 00 00 01 7a       	add    $0x7a010000,%eax
    3251:	12 04 00             	adc    (%eax,%eax,1),%al
    3254:	00 02                	add    %al,(%edx)
    3256:	91                   	xchg   %eax,%ecx
    3257:	68 10 74 6f 00       	push   $0x6f7410
    325c:	01 7b 12             	add    %edi,0x12(%ebx)
    325f:	04 00                	add    $0x0,%al
    3261:	00 02                	add    %al,(%edx)
    3263:	91                   	xchg   %eax,%ecx
    3264:	64 10 65 6e          	adc    %ah,%fs:0x6e(%ebp)
    3268:	64 00 01             	add    %al,%fs:(%ecx)
    326b:	7c 12                	jl     327f <gdt_len+0x2a6f>
    326d:	04 00                	add    $0x0,%al
    326f:	00 02                	add    %al,(%edx)
    3271:	91                   	xchg   %eax,%ecx
    3272:	60                   	pusha  
    3273:	00 05 7f 00 00 00    	add    %al,0x7f
    3279:	a6                   	cmpsb  %es:(%edi),%ds:(%esi)
    327a:	04 00                	add    $0x0,%al
    327c:	00 06                	add    %al,(%esi)
    327e:	7f 00                	jg     3280 <gdt_len+0x2a70>
    3280:	00 00                	add    %al,(%eax)
    3282:	7f 01                	jg     3285 <gdt_len+0x2a75>
    3284:	00 15 7f 05 00 00    	add    %dl,0x57f
    328a:	04 13                	add    $0x13,%al
    328c:	95                   	xchg   %eax,%ebp
    328d:	04 00                	add    $0x0,%al
    328f:	00 01                	add    %al,(%ecx)
    3291:	01 05 94 00 00 00    	add    %eax,0x94
    3297:	c3                   	ret    
    3298:	04 00                	add    $0x0,%al
    329a:	00 0d 7f 00 00 00    	add    %cl,0x7f
    32a0:	fe 00                	incb   (%eax)
    32a2:	16                   	push   %ss
    32a3:	67                   	addr16
    32a4:	64                   	fs
    32a5:	74 00                	je     32a7 <gdt_len+0x2a97>
    32a7:	03 b1 b3 04 00 00    	add    0x4b3(%ecx),%esi
    32ad:	01 01                	add    %eax,(%ecx)
    32af:	05 bb 02 00 00       	add    $0x2bb,%eax
    32b4:	e0 04                	loopne 32ba <gdt_len+0x2aaa>
    32b6:	00 00                	add    %al,(%eax)
    32b8:	0d 7f 00 00 00       	or     $0x7f,%eax
    32bd:	7f 00                	jg     32bf <gdt_len+0x2aaf>
    32bf:	15 16 00 00 00       	adc    $0x16,%eax
    32c4:	03 cd                	add    %ebp,%ecx
    32c6:	d0 04 00             	rolb   (%eax,%eax,1)
    32c9:	00 01                	add    %al,(%ecx)
    32cb:	01 05 86 00 00 00    	add    %eax,0x86
    32d1:	fd                   	std    
    32d2:	04 00                	add    $0x0,%al
    32d4:	00 0d 7f 00 00 00    	add    %cl,0x7f
    32da:	07                   	pop    %es
    32db:	00 15 86 05 00 00    	add    %dl,0x586
    32e1:	01 17                	add    %edx,(%edi)
    32e3:	ed                   	in     (%dx),%eax
    32e4:	04 00                	add    $0x0,%al
    32e6:	00 01                	add    %al,(%ecx)
    32e8:	01 15 74 05 00 00    	add    %edx,0x574
    32ee:	01 18                	add    %ebx,(%eax)
    32f0:	7f 00                	jg     32f2 <gdt_len+0x2ae2>
    32f2:	00 00                	add    %al,(%eax)
    32f4:	01 01                	add    %eax,(%ecx)
    32f6:	15 8b 05 00 00       	adc    $0x58b,%eax
    32fb:	01 20                	add    %esp,(%eax)
    32fd:	7f 00                	jg     32ff <gdt_len+0x2aef>
    32ff:	00 00                	add    %al,(%eax)
    3301:	01 01                	add    %eax,(%ecx)
    3303:	15 95 05 00 00       	adc    $0x595,%eax
    3308:	01 21                	add    %esp,(%ecx)
    330a:	41                   	inc    %ecx
    330b:	01 00                	add    %eax,(%eax)
    330d:	00 01                	add    %al,(%ecx)
    330f:	01 15 36 05 00 00    	add    %edx,0x536
    3315:	01 22                	add    %esp,(%edx)
    3317:	25 00 00 00 01       	and    $0x1000000,%eax
    331c:	01 17                	add    %edx,(%edi)
    331e:	7f 05                	jg     3325 <gdt_len+0x2b15>
    3320:	00 00                	add    %al,(%eax)
    3322:	04 13                	add    $0x13,%al
    3324:	95                   	xchg   %eax,%ebp
    3325:	04 00                	add    $0x0,%al
    3327:	00 01                	add    %al,(%ecx)
    3329:	05 03 00 6f 10       	add    $0x106f0003,%eax
    332e:	00 16                	add    %dl,(%esi)
    3330:	67                   	addr16
    3331:	64                   	fs
    3332:	74 00                	je     3334 <gdt_len+0x2b24>
    3334:	03 b1 b3 04 00 00    	add    0x4b3(%ecx),%esi
    333a:	01 01                	add    %eax,(%ecx)
    333c:	17                   	pop    %ss
    333d:	16                   	push   %ss
    333e:	00 00                	add    %al,(%eax)
    3340:	00 03                	add    %al,(%ebx)
    3342:	cd d0                	int    $0xd0
    3344:	04 00                	add    $0x0,%al
    3346:	00 01                	add    %al,(%ecx)
    3348:	05 03 80 b9 10       	add    $0x10b98003,%eax
    334d:	00 17                	add    %dl,(%edi)
    334f:	86 05 00 00 01 17    	xchg   %al,0x17010000
    3355:	ed                   	in     (%dx),%eax
    3356:	04 00                	add    $0x0,%al
    3358:	00 01                	add    %al,(%ecx)
    335a:	05 03 00 75 10       	add    $0x10750003,%eax
    335f:	00 17                	add    %dl,(%edi)
    3361:	74 05                	je     3368 <gdt_len+0x2b58>
    3363:	00 00                	add    %al,(%eax)
    3365:	01 18                	add    %ebx,(%eax)
    3367:	7f 00                	jg     3369 <gdt_len+0x2b59>
    3369:	00 00                	add    %al,(%eax)
    336b:	01 05 03 6c b9 10    	add    %eax,0x10b96c03
    3371:	00 17                	add    %dl,(%edi)
    3373:	8b 05 00 00 01 20    	mov    0x20010000,%eax
    3379:	7f 00                	jg     337b <gdt_len+0x2b6b>
    337b:	00 00                	add    %al,(%eax)
    337d:	01 05 03 08 75 10    	add    %eax,0x10750803
    3383:	00 17                	add    %dl,(%edi)
    3385:	95                   	xchg   %eax,%ebp
    3386:	05 00 00 01 21       	add    $0x21010000,%eax
    338b:	41                   	inc    %ecx
    338c:	01 00                	add    %eax,(%eax)
    338e:	00 01                	add    %al,(%ecx)
    3390:	05 03 0c 75 10       	add    $0x10750c03,%eax
    3395:	00 15 36 05 00 00    	add    %dl,0x536
    339b:	01 22                	add    %esp,(%edx)
    339d:	25 00 00 00 01       	and    $0x1000000,%eax
    33a2:	01 00                	add    %eax,(%eax)

Disassembly of section .debug_abbrev:

00000000 <.debug_abbrev>:
   0:	01 11                	add    %edx,(%ecx)
   2:	01 25 0e 13 0b 03    	add    %esp,0x30b130e
   8:	0e                   	push   %cs
   9:	1b 0e                	sbb    (%esi),%ecx
   b:	11 01                	adc    %eax,(%ecx)
   d:	12 01                	adc    (%ecx),%al
   f:	10 06                	adc    %al,(%esi)
  11:	00 00                	add    %al,(%eax)
  13:	02 13                	add    (%ebx),%dl
  15:	01 03                	add    %eax,(%ebx)
  17:	0e                   	push   %cs
  18:	0b 0b                	or     (%ebx),%ecx
  1a:	3a 0b                	cmp    (%ebx),%cl
  1c:	3b 0b                	cmp    (%ebx),%ecx
  1e:	01 13                	add    %edx,(%ebx)
  20:	00 00                	add    %al,(%eax)
  22:	03 0d 00 03 0e 3a    	add    0x3a0e0300,%ecx
  28:	0b 3b                	or     (%ebx),%edi
  2a:	0b 49 13             	or     0x13(%ecx),%ecx
  2d:	38 0a                	cmp    %cl,(%edx)
  2f:	00 00                	add    %al,(%eax)
  31:	04 0d                	add    $0xd,%al
  33:	00 03                	add    %al,(%ebx)
  35:	0e                   	push   %cs
  36:	3a 0b                	cmp    (%ebx),%cl
  38:	3b 0b                	cmp    (%ebx),%ecx
  3a:	49                   	dec    %ecx
  3b:	13 0b                	adc    (%ebx),%ecx
  3d:	0b 0d 0b 0c 0b 38    	or     0x380b0c0b,%ecx
  43:	0a 00                	or     (%eax),%al
  45:	00 05 0d 00 03 08    	add    %al,0x803000d
  4b:	3a 0b                	cmp    (%ebx),%cl
  4d:	3b 0b                	cmp    (%ebx),%ecx
  4f:	49                   	dec    %ecx
  50:	13 0b                	adc    (%ebx),%ecx
  52:	0b 0d 0b 0c 0b 38    	or     0x380b0c0b,%ecx
  58:	0a 00                	or     (%eax),%al
  5a:	00 06                	add    %al,(%esi)
  5c:	24 00                	and    $0x0,%al
  5e:	0b 0b                	or     (%ebx),%ecx
  60:	3e 0b 03             	or     %ds:(%ebx),%eax
  63:	0e                   	push   %cs
  64:	00 00                	add    %al,(%eax)
  66:	07                   	pop    %es
  67:	13 01                	adc    (%ecx),%eax
  69:	03 08                	add    (%eax),%ecx
  6b:	0b 0b                	or     (%ebx),%ecx
  6d:	3a 0b                	cmp    (%ebx),%cl
  6f:	3b 0b                	cmp    (%ebx),%ecx
  71:	01 13                	add    %edx,(%ebx)
  73:	00 00                	add    %al,(%eax)
  75:	08 0d 00 03 08 3a    	or     %cl,0x3a080300
  7b:	0b 3b                	or     (%ebx),%edi
  7d:	0b 49 13             	or     0x13(%ecx),%ecx
  80:	38 0a                	cmp    %cl,(%edx)
  82:	00 00                	add    %al,(%eax)
  84:	09 13                	or     %edx,(%ebx)
  86:	01 03                	add    %eax,(%ebx)
  88:	0e                   	push   %cs
  89:	0b 05 3a 0b 3b 0b    	or     0xb3b0b3a,%eax
  8f:	01 13                	add    %edx,(%ebx)
  91:	00 00                	add    %al,(%eax)
  93:	0a 01                	or     (%ecx),%al
  95:	01 49 13             	add    %ecx,0x13(%ecx)
  98:	01 13                	add    %edx,(%ebx)
  9a:	00 00                	add    %al,(%eax)
  9c:	0b 21                	or     (%ecx),%esp
  9e:	00 49 13             	add    %cl,0x13(%ecx)
  a1:	2f                   	das    
  a2:	0b 00                	or     (%eax),%eax
  a4:	00 0c 21             	add    %cl,(%ecx,%eiz,1)
  a7:	00 49 13             	add    %cl,0x13(%ecx)
  aa:	2f                   	das    
  ab:	05 00 00 0d 24       	add    $0x240d0000,%eax
  b0:	00 0b                	add    %cl,(%ebx)
  b2:	0b 3e                	or     (%esi),%edi
  b4:	0b 03                	or     (%ebx),%eax
  b6:	08 00                	or     %al,(%eax)
  b8:	00 0e                	add    %cl,(%esi)
  ba:	2e 00 3f             	add    %bh,%cs:(%edi)
  bd:	0c 03                	or     $0x3,%al
  bf:	0e                   	push   %cs
  c0:	3a 0b                	cmp    (%ebx),%cl
  c2:	3b 0b                	cmp    (%ebx),%ecx
  c4:	11 01                	adc    %eax,(%ecx)
  c6:	12 01                	adc    (%ecx),%al
  c8:	40                   	inc    %eax
  c9:	06                   	push   %es
  ca:	00 00                	add    %al,(%eax)
  cc:	0f 2e 01             	ucomiss (%ecx),%xmm0
  cf:	3f                   	aas    
  d0:	0c 03                	or     $0x3,%al
  d2:	0e                   	push   %cs
  d3:	3a 0b                	cmp    (%ebx),%cl
  d5:	3b 0b                	cmp    (%ebx),%ecx
  d7:	11 01                	adc    %eax,(%ecx)
  d9:	12 01                	adc    (%ecx),%al
  db:	40                   	inc    %eax
  dc:	06                   	push   %es
  dd:	01 13                	add    %edx,(%ebx)
  df:	00 00                	add    %al,(%eax)
  e1:	10 34 00             	adc    %dh,(%eax,%eax,1)
  e4:	03 08                	add    (%eax),%ecx
  e6:	3a 0b                	cmp    (%ebx),%cl
  e8:	3b 0b                	cmp    (%ebx),%ecx
  ea:	49                   	dec    %ecx
  eb:	13 02                	adc    (%edx),%eax
  ed:	0a 00                	or     (%eax),%al
  ef:	00 11                	add    %dl,(%ecx)
  f1:	0b 01                	or     (%ecx),%eax
  f3:	11 01                	adc    %eax,(%ecx)
  f5:	12 01                	adc    (%ecx),%al
  f7:	01 13                	add    %edx,(%ebx)
  f9:	00 00                	add    %al,(%eax)
  fb:	12 0b                	adc    (%ebx),%cl
  fd:	01 11                	add    %edx,(%ecx)
  ff:	01 12                	add    %edx,(%edx)
 101:	01 00                	add    %eax,(%eax)
 103:	00 13                	add    %dl,(%ebx)
 105:	0f 00 0b             	str    (%ebx)
 108:	0b 49 13             	or     0x13(%ecx),%ecx
 10b:	00 00                	add    %al,(%eax)
 10d:	14 2e                	adc    $0x2e,%al
 10f:	01 3f                	add    %edi,(%edi)
 111:	0c 03                	or     $0x3,%al
 113:	0e                   	push   %cs
 114:	3a 0b                	cmp    (%ebx),%cl
 116:	3b 0b                	cmp    (%ebx),%ecx
 118:	27                   	daa    
 119:	0c 11                	or     $0x11,%al
 11b:	01 12                	add    %edx,(%edx)
 11d:	01 40 06             	add    %eax,0x6(%eax)
 120:	01 13                	add    %edx,(%ebx)
 122:	00 00                	add    %al,(%eax)
 124:	15 05 00 03 0e       	adc    $0xe030005,%eax
 129:	3a 0b                	cmp    (%ebx),%cl
 12b:	3b 0b                	cmp    (%ebx),%ecx
 12d:	49                   	dec    %ecx
 12e:	13 02                	adc    (%edx),%eax
 130:	0a 00                	or     (%eax),%al
 132:	00 16                	add    %dl,(%esi)
 134:	34 00                	xor    $0x0,%al
 136:	03 0e                	add    (%esi),%ecx
 138:	3a 0b                	cmp    (%ebx),%cl
 13a:	3b 0b                	cmp    (%ebx),%ecx
 13c:	49                   	dec    %ecx
 13d:	13 02                	adc    (%edx),%eax
 13f:	0a 00                	or     (%eax),%al
 141:	00 17                	add    %dl,(%edi)
 143:	2e 01 3f             	add    %edi,%cs:(%edi)
 146:	0c 03                	or     $0x3,%al
 148:	0e                   	push   %cs
 149:	3a 0b                	cmp    (%ebx),%cl
 14b:	3b 0b                	cmp    (%ebx),%ecx
 14d:	49                   	dec    %ecx
 14e:	13 3c 0c             	adc    (%esp,%ecx,1),%edi
 151:	01 13                	add    %edx,(%ebx)
 153:	00 00                	add    %al,(%eax)
 155:	18 18                	sbb    %bl,(%eax)
 157:	00 00                	add    %al,(%eax)
 159:	00 19                	add    %bl,(%ecx)
 15b:	05 00 03 08 3a       	add    $0x3a080300,%eax
 160:	0b 3b                	or     (%ebx),%edi
 162:	0b 49 13             	or     0x13(%ecx),%ecx
 165:	02 0a                	add    (%edx),%cl
 167:	00 00                	add    %al,(%eax)
 169:	1a 34 00             	sbb    (%eax,%eax,1),%dh
 16c:	03 0e                	add    (%esi),%ecx
 16e:	3a 0b                	cmp    (%ebx),%cl
 170:	3b 0b                	cmp    (%ebx),%ecx
 172:	49                   	dec    %ecx
 173:	13 3f                	adc    (%edi),%edi
 175:	0c 3c                	or     $0x3c,%al
 177:	0c 00                	or     $0x0,%al
 179:	00 1b                	add    %bl,(%ebx)
 17b:	34 00                	xor    $0x0,%al
 17d:	03 08                	add    (%eax),%ecx
 17f:	3a 0b                	cmp    (%ebx),%cl
 181:	3b 0b                	cmp    (%ebx),%ecx
 183:	49                   	dec    %ecx
 184:	13 3f                	adc    (%edi),%edi
 186:	0c 3c                	or     $0x3c,%al
 188:	0c 00                	or     $0x0,%al
 18a:	00 1c 34             	add    %bl,(%esp,%esi,1)
 18d:	00 03                	add    %al,(%ebx)
 18f:	0e                   	push   %cs
 190:	3a 0b                	cmp    (%ebx),%cl
 192:	3b 0b                	cmp    (%ebx),%ecx
 194:	49                   	dec    %ecx
 195:	13 3f                	adc    (%edi),%edi
 197:	0c 02                	or     $0x2,%al
 199:	0a 00                	or     (%eax),%al
 19b:	00 00                	add    %al,(%eax)
 19d:	01 11                	add    %edx,(%ecx)
 19f:	01 25 0e 13 0b 03    	add    %esp,0x30b130e
 1a5:	0e                   	push   %cs
 1a6:	1b 0e                	sbb    (%esi),%ecx
 1a8:	11 01                	adc    %eax,(%ecx)
 1aa:	12 01                	adc    (%ecx),%al
 1ac:	10 06                	adc    %al,(%esi)
 1ae:	00 00                	add    %al,(%eax)
 1b0:	02 13                	add    (%ebx),%dl
 1b2:	01 03                	add    %eax,(%ebx)
 1b4:	0e                   	push   %cs
 1b5:	0b 0b                	or     (%ebx),%ecx
 1b7:	3a 0b                	cmp    (%ebx),%cl
 1b9:	3b 0b                	cmp    (%ebx),%ecx
 1bb:	01 13                	add    %edx,(%ebx)
 1bd:	00 00                	add    %al,(%eax)
 1bf:	03 0d 00 03 0e 3a    	add    0x3a0e0300,%ecx
 1c5:	0b 3b                	or     (%ebx),%edi
 1c7:	0b 49 13             	or     0x13(%ecx),%ecx
 1ca:	38 0a                	cmp    %cl,(%edx)
 1cc:	00 00                	add    %al,(%eax)
 1ce:	04 0d                	add    $0xd,%al
 1d0:	00 03                	add    %al,(%ebx)
 1d2:	0e                   	push   %cs
 1d3:	3a 0b                	cmp    (%ebx),%cl
 1d5:	3b 0b                	cmp    (%ebx),%ecx
 1d7:	49                   	dec    %ecx
 1d8:	13 0b                	adc    (%ebx),%ecx
 1da:	0b 0d 0b 0c 0b 38    	or     0x380b0c0b,%ecx
 1e0:	0a 00                	or     (%eax),%al
 1e2:	00 05 0d 00 03 08    	add    %al,0x803000d
 1e8:	3a 0b                	cmp    (%ebx),%cl
 1ea:	3b 0b                	cmp    (%ebx),%ecx
 1ec:	49                   	dec    %ecx
 1ed:	13 0b                	adc    (%ebx),%ecx
 1ef:	0b 0d 0b 0c 0b 38    	or     0x380b0c0b,%ecx
 1f5:	0a 00                	or     (%eax),%al
 1f7:	00 06                	add    %al,(%esi)
 1f9:	24 00                	and    $0x0,%al
 1fb:	0b 0b                	or     (%ebx),%ecx
 1fd:	3e 0b 03             	or     %ds:(%ebx),%eax
 200:	0e                   	push   %cs
 201:	00 00                	add    %al,(%eax)
 203:	07                   	pop    %es
 204:	13 01                	adc    (%ecx),%eax
 206:	03 08                	add    (%eax),%ecx
 208:	0b 0b                	or     (%ebx),%ecx
 20a:	3a 0b                	cmp    (%ebx),%cl
 20c:	3b 0b                	cmp    (%ebx),%ecx
 20e:	01 13                	add    %edx,(%ebx)
 210:	00 00                	add    %al,(%eax)
 212:	08 0d 00 03 08 3a    	or     %cl,0x3a080300
 218:	0b 3b                	or     (%ebx),%edi
 21a:	0b 49 13             	or     0x13(%ecx),%ecx
 21d:	38 0a                	cmp    %cl,(%edx)
 21f:	00 00                	add    %al,(%eax)
 221:	09 13                	or     %edx,(%ebx)
 223:	01 03                	add    %eax,(%ebx)
 225:	0e                   	push   %cs
 226:	0b 05 3a 0b 3b 0b    	or     0xb3b0b3a,%eax
 22c:	01 13                	add    %edx,(%ebx)
 22e:	00 00                	add    %al,(%eax)
 230:	0a 01                	or     (%ecx),%al
 232:	01 49 13             	add    %ecx,0x13(%ecx)
 235:	01 13                	add    %edx,(%ebx)
 237:	00 00                	add    %al,(%eax)
 239:	0b 21                	or     (%ecx),%esp
 23b:	00 49 13             	add    %cl,0x13(%ecx)
 23e:	2f                   	das    
 23f:	0b 00                	or     (%eax),%eax
 241:	00 0c 21             	add    %cl,(%ecx,%eiz,1)
 244:	00 49 13             	add    %cl,0x13(%ecx)
 247:	2f                   	das    
 248:	05 00 00 0d 24       	add    $0x240d0000,%eax
 24d:	00 0b                	add    %cl,(%ebx)
 24f:	0b 3e                	or     (%esi),%edi
 251:	0b 03                	or     (%ebx),%eax
 253:	08 00                	or     %al,(%eax)
 255:	00 0e                	add    %cl,(%esi)
 257:	2e 01 3f             	add    %edi,%cs:(%edi)
 25a:	0c 03                	or     $0x3,%al
 25c:	0e                   	push   %cs
 25d:	3a 0b                	cmp    (%ebx),%cl
 25f:	3b 0b                	cmp    (%ebx),%ecx
 261:	11 01                	adc    %eax,(%ecx)
 263:	12 01                	adc    (%ecx),%al
 265:	40                   	inc    %eax
 266:	06                   	push   %es
 267:	01 13                	add    %edx,(%ebx)
 269:	00 00                	add    %al,(%eax)
 26b:	0f 2e 01             	ucomiss (%ecx),%xmm0
 26e:	3f                   	aas    
 26f:	0c 03                	or     $0x3,%al
 271:	0e                   	push   %cs
 272:	3a 0b                	cmp    (%ebx),%cl
 274:	3b 0b                	cmp    (%ebx),%ecx
 276:	49                   	dec    %ecx
 277:	13 3c 0c             	adc    (%esp,%ecx,1),%edi
 27a:	01 13                	add    %edx,(%ebx)
 27c:	00 00                	add    %al,(%eax)
 27e:	10 18                	adc    %bl,(%eax)
 280:	00 00                	add    %al,(%eax)
 282:	00 11                	add    %dl,(%ecx)
 284:	2e 01 3f             	add    %edi,%cs:(%edi)
 287:	0c 03                	or     $0x3,%al
 289:	0e                   	push   %cs
 28a:	3a 0b                	cmp    (%ebx),%cl
 28c:	3b 0b                	cmp    (%ebx),%ecx
 28e:	49                   	dec    %ecx
 28f:	13 3c 0c             	adc    (%esp,%ecx,1),%edi
 292:	00 00                	add    %al,(%eax)
 294:	12 2e                	adc    (%esi),%ch
 296:	00 3f                	add    %bh,(%edi)
 298:	0c 03                	or     $0x3,%al
 29a:	0e                   	push   %cs
 29b:	3a 0b                	cmp    (%ebx),%cl
 29d:	3b 0b                	cmp    (%ebx),%ecx
 29f:	11 01                	adc    %eax,(%ecx)
 2a1:	12 01                	adc    (%ecx),%al
 2a3:	40                   	inc    %eax
 2a4:	06                   	push   %es
 2a5:	00 00                	add    %al,(%eax)
 2a7:	13 34 00             	adc    (%eax,%eax,1),%esi
 2aa:	03 0e                	add    (%esi),%ecx
 2ac:	3a 0b                	cmp    (%ebx),%cl
 2ae:	3b 0b                	cmp    (%ebx),%ecx
 2b0:	49                   	dec    %ecx
 2b1:	13 02                	adc    (%edx),%eax
 2b3:	0a 00                	or     (%eax),%al
 2b5:	00 14 0b             	add    %dl,(%ebx,%ecx,1)
 2b8:	01 11                	add    %edx,(%ecx)
 2ba:	01 12                	add    %edx,(%edx)
 2bc:	01 00                	add    %eax,(%eax)
 2be:	00 15 34 00 03 0e    	add    %dl,0xe030034
 2c4:	3a 0b                	cmp    (%ebx),%cl
 2c6:	3b 0b                	cmp    (%ebx),%ecx
 2c8:	49                   	dec    %ecx
 2c9:	13 3f                	adc    (%edi),%edi
 2cb:	0c 3c                	or     $0x3c,%al
 2cd:	0c 00                	or     $0x0,%al
 2cf:	00 16                	add    %dl,(%esi)
 2d1:	34 00                	xor    $0x0,%al
 2d3:	03 08                	add    (%eax),%ecx
 2d5:	3a 0b                	cmp    (%ebx),%cl
 2d7:	3b 0b                	cmp    (%ebx),%ecx
 2d9:	49                   	dec    %ecx
 2da:	13 3f                	adc    (%edi),%edi
 2dc:	0c 3c                	or     $0x3c,%al
 2de:	0c 00                	or     $0x0,%al
 2e0:	00 17                	add    %dl,(%edi)
 2e2:	34 00                	xor    $0x0,%al
 2e4:	03 0e                	add    (%esi),%ecx
 2e6:	3a 0b                	cmp    (%ebx),%cl
 2e8:	3b 0b                	cmp    (%ebx),%ecx
 2ea:	49                   	dec    %ecx
 2eb:	13 3f                	adc    (%edi),%edi
 2ed:	0c 02                	or     $0x2,%al
 2ef:	0a 00                	or     (%eax),%al
 2f1:	00 18                	add    %bl,(%eax)
 2f3:	34 00                	xor    $0x0,%al
 2f5:	03 08                	add    (%eax),%ecx
 2f7:	3a 0b                	cmp    (%ebx),%cl
 2f9:	3b 0b                	cmp    (%ebx),%ecx
 2fb:	49                   	dec    %ecx
 2fc:	13 3f                	adc    (%edi),%edi
 2fe:	0c 02                	or     $0x2,%al
 300:	0a 00                	or     (%eax),%al
 302:	00 00                	add    %al,(%eax)
 304:	01 11                	add    %edx,(%ecx)
 306:	01 25 0e 13 0b 03    	add    %esp,0x30b130e
 30c:	0e                   	push   %cs
 30d:	1b 0e                	sbb    (%esi),%ecx
 30f:	11 01                	adc    %eax,(%ecx)
 311:	12 01                	adc    (%ecx),%al
 313:	10 06                	adc    %al,(%esi)
 315:	00 00                	add    %al,(%eax)
 317:	02 13                	add    (%ebx),%dl
 319:	01 03                	add    %eax,(%ebx)
 31b:	0e                   	push   %cs
 31c:	0b 0b                	or     (%ebx),%ecx
 31e:	3a 0b                	cmp    (%ebx),%cl
 320:	3b 0b                	cmp    (%ebx),%ecx
 322:	01 13                	add    %edx,(%ebx)
 324:	00 00                	add    %al,(%eax)
 326:	03 0d 00 03 0e 3a    	add    0x3a0e0300,%ecx
 32c:	0b 3b                	or     (%ebx),%edi
 32e:	0b 49 13             	or     0x13(%ecx),%ecx
 331:	38 0a                	cmp    %cl,(%edx)
 333:	00 00                	add    %al,(%eax)
 335:	04 0d                	add    $0xd,%al
 337:	00 03                	add    %al,(%ebx)
 339:	0e                   	push   %cs
 33a:	3a 0b                	cmp    (%ebx),%cl
 33c:	3b 0b                	cmp    (%ebx),%ecx
 33e:	49                   	dec    %ecx
 33f:	13 0b                	adc    (%ebx),%ecx
 341:	0b 0d 0b 0c 0b 38    	or     0x380b0c0b,%ecx
 347:	0a 00                	or     (%eax),%al
 349:	00 05 0d 00 03 08    	add    %al,0x803000d
 34f:	3a 0b                	cmp    (%ebx),%cl
 351:	3b 0b                	cmp    (%ebx),%ecx
 353:	49                   	dec    %ecx
 354:	13 0b                	adc    (%ebx),%ecx
 356:	0b 0d 0b 0c 0b 38    	or     0x380b0c0b,%ecx
 35c:	0a 00                	or     (%eax),%al
 35e:	00 06                	add    %al,(%esi)
 360:	24 00                	and    $0x0,%al
 362:	0b 0b                	or     (%ebx),%ecx
 364:	3e 0b 03             	or     %ds:(%ebx),%eax
 367:	0e                   	push   %cs
 368:	00 00                	add    %al,(%eax)
 36a:	07                   	pop    %es
 36b:	13 01                	adc    (%ecx),%eax
 36d:	03 08                	add    (%eax),%ecx
 36f:	0b 0b                	or     (%ebx),%ecx
 371:	3a 0b                	cmp    (%ebx),%cl
 373:	3b 0b                	cmp    (%ebx),%ecx
 375:	01 13                	add    %edx,(%ebx)
 377:	00 00                	add    %al,(%eax)
 379:	08 0d 00 03 08 3a    	or     %cl,0x3a080300
 37f:	0b 3b                	or     (%ebx),%edi
 381:	0b 49 13             	or     0x13(%ecx),%ecx
 384:	38 0a                	cmp    %cl,(%edx)
 386:	00 00                	add    %al,(%eax)
 388:	09 13                	or     %edx,(%ebx)
 38a:	01 03                	add    %eax,(%ebx)
 38c:	0e                   	push   %cs
 38d:	0b 05 3a 0b 3b 0b    	or     0xb3b0b3a,%eax
 393:	01 13                	add    %edx,(%ebx)
 395:	00 00                	add    %al,(%eax)
 397:	0a 01                	or     (%ecx),%al
 399:	01 49 13             	add    %ecx,0x13(%ecx)
 39c:	01 13                	add    %edx,(%ebx)
 39e:	00 00                	add    %al,(%eax)
 3a0:	0b 21                	or     (%ecx),%esp
 3a2:	00 49 13             	add    %cl,0x13(%ecx)
 3a5:	2f                   	das    
 3a6:	0b 00                	or     (%eax),%eax
 3a8:	00 0c 21             	add    %cl,(%ecx,%eiz,1)
 3ab:	00 49 13             	add    %cl,0x13(%ecx)
 3ae:	2f                   	das    
 3af:	05 00 00 0d 2e       	add    $0x2e0d0000,%eax
 3b4:	00 3f                	add    %bh,(%edi)
 3b6:	0c 03                	or     $0x3,%al
 3b8:	0e                   	push   %cs
 3b9:	3a 0b                	cmp    (%ebx),%cl
 3bb:	3b 0b                	cmp    (%ebx),%ecx
 3bd:	11 01                	adc    %eax,(%ecx)
 3bf:	12 01                	adc    (%ecx),%al
 3c1:	40                   	inc    %eax
 3c2:	06                   	push   %es
 3c3:	00 00                	add    %al,(%eax)
 3c5:	0e                   	push   %cs
 3c6:	34 00                	xor    $0x0,%al
 3c8:	03 0e                	add    (%esi),%ecx
 3ca:	3a 0b                	cmp    (%ebx),%cl
 3cc:	3b 0b                	cmp    (%ebx),%ecx
 3ce:	49                   	dec    %ecx
 3cf:	13 3f                	adc    (%edi),%edi
 3d1:	0c 3c                	or     $0x3c,%al
 3d3:	0c 00                	or     $0x0,%al
 3d5:	00 0f                	add    %cl,(%edi)
 3d7:	34 00                	xor    $0x0,%al
 3d9:	03 08                	add    (%eax),%ecx
 3db:	3a 0b                	cmp    (%ebx),%cl
 3dd:	3b 0b                	cmp    (%ebx),%ecx
 3df:	49                   	dec    %ecx
 3e0:	13 3f                	adc    (%edi),%edi
 3e2:	0c 3c                	or     $0x3c,%al
 3e4:	0c 00                	or     $0x0,%al
 3e6:	00 10                	add    %dl,(%eax)
 3e8:	34 00                	xor    $0x0,%al
 3ea:	03 0e                	add    (%esi),%ecx
 3ec:	3a 0b                	cmp    (%ebx),%cl
 3ee:	3b 0b                	cmp    (%ebx),%ecx
 3f0:	49                   	dec    %ecx
 3f1:	13 3f                	adc    (%edi),%edi
 3f3:	0c 02                	or     $0x2,%al
 3f5:	0a 00                	or     (%eax),%al
 3f7:	00 00                	add    %al,(%eax)
 3f9:	01 11                	add    %edx,(%ecx)
 3fb:	01 25 0e 13 0b 03    	add    %esp,0x30b130e
 401:	0e                   	push   %cs
 402:	1b 0e                	sbb    (%esi),%ecx
 404:	11 01                	adc    %eax,(%ecx)
 406:	12 01                	adc    (%ecx),%al
 408:	10 06                	adc    %al,(%esi)
 40a:	00 00                	add    %al,(%eax)
 40c:	02 13                	add    (%ebx),%dl
 40e:	01 03                	add    %eax,(%ebx)
 410:	0e                   	push   %cs
 411:	0b 0b                	or     (%ebx),%ecx
 413:	3a 0b                	cmp    (%ebx),%cl
 415:	3b 0b                	cmp    (%ebx),%ecx
 417:	01 13                	add    %edx,(%ebx)
 419:	00 00                	add    %al,(%eax)
 41b:	03 0d 00 03 0e 3a    	add    0x3a0e0300,%ecx
 421:	0b 3b                	or     (%ebx),%edi
 423:	0b 49 13             	or     0x13(%ecx),%ecx
 426:	38 0a                	cmp    %cl,(%edx)
 428:	00 00                	add    %al,(%eax)
 42a:	04 0d                	add    $0xd,%al
 42c:	00 03                	add    %al,(%ebx)
 42e:	0e                   	push   %cs
 42f:	3a 0b                	cmp    (%ebx),%cl
 431:	3b 0b                	cmp    (%ebx),%ecx
 433:	49                   	dec    %ecx
 434:	13 0b                	adc    (%ebx),%ecx
 436:	0b 0d 0b 0c 0b 38    	or     0x380b0c0b,%ecx
 43c:	0a 00                	or     (%eax),%al
 43e:	00 05 0d 00 03 08    	add    %al,0x803000d
 444:	3a 0b                	cmp    (%ebx),%cl
 446:	3b 0b                	cmp    (%ebx),%ecx
 448:	49                   	dec    %ecx
 449:	13 0b                	adc    (%ebx),%ecx
 44b:	0b 0d 0b 0c 0b 38    	or     0x380b0c0b,%ecx
 451:	0a 00                	or     (%eax),%al
 453:	00 06                	add    %al,(%esi)
 455:	24 00                	and    $0x0,%al
 457:	0b 0b                	or     (%ebx),%ecx
 459:	3e 0b 03             	or     %ds:(%ebx),%eax
 45c:	0e                   	push   %cs
 45d:	00 00                	add    %al,(%eax)
 45f:	07                   	pop    %es
 460:	13 01                	adc    (%ecx),%eax
 462:	03 08                	add    (%eax),%ecx
 464:	0b 0b                	or     (%ebx),%ecx
 466:	3a 0b                	cmp    (%ebx),%cl
 468:	3b 0b                	cmp    (%ebx),%ecx
 46a:	01 13                	add    %edx,(%ebx)
 46c:	00 00                	add    %al,(%eax)
 46e:	08 0d 00 03 08 3a    	or     %cl,0x3a080300
 474:	0b 3b                	or     (%ebx),%edi
 476:	0b 49 13             	or     0x13(%ecx),%ecx
 479:	38 0a                	cmp    %cl,(%edx)
 47b:	00 00                	add    %al,(%eax)
 47d:	09 13                	or     %edx,(%ebx)
 47f:	01 03                	add    %eax,(%ebx)
 481:	0e                   	push   %cs
 482:	0b 05 3a 0b 3b 0b    	or     0xb3b0b3a,%eax
 488:	01 13                	add    %edx,(%ebx)
 48a:	00 00                	add    %al,(%eax)
 48c:	0a 01                	or     (%ecx),%al
 48e:	01 49 13             	add    %ecx,0x13(%ecx)
 491:	01 13                	add    %edx,(%ebx)
 493:	00 00                	add    %al,(%eax)
 495:	0b 21                	or     (%ecx),%esp
 497:	00 49 13             	add    %cl,0x13(%ecx)
 49a:	2f                   	das    
 49b:	0b 00                	or     (%eax),%eax
 49d:	00 0c 21             	add    %cl,(%ecx,%eiz,1)
 4a0:	00 49 13             	add    %cl,0x13(%ecx)
 4a3:	2f                   	das    
 4a4:	05 00 00 0d 2e       	add    $0x2e0d0000,%eax
 4a9:	01 3f                	add    %edi,(%edi)
 4ab:	0c 03                	or     $0x3,%al
 4ad:	0e                   	push   %cs
 4ae:	3a 0b                	cmp    (%ebx),%cl
 4b0:	3b 0b                	cmp    (%ebx),%ecx
 4b2:	11 01                	adc    %eax,(%ecx)
 4b4:	12 01                	adc    (%ecx),%al
 4b6:	40                   	inc    %eax
 4b7:	06                   	push   %es
 4b8:	01 13                	add    %edx,(%ebx)
 4ba:	00 00                	add    %al,(%eax)
 4bc:	0e                   	push   %cs
 4bd:	34 00                	xor    $0x0,%al
 4bf:	03 08                	add    (%eax),%ecx
 4c1:	3a 0b                	cmp    (%ebx),%cl
 4c3:	3b 0b                	cmp    (%ebx),%ecx
 4c5:	49                   	dec    %ecx
 4c6:	13 02                	adc    (%edx),%eax
 4c8:	0a 00                	or     (%eax),%al
 4ca:	00 0f                	add    %cl,(%edi)
 4cc:	24 00                	and    $0x0,%al
 4ce:	0b 0b                	or     (%ebx),%ecx
 4d0:	3e 0b 03             	or     %ds:(%ebx),%eax
 4d3:	08 00                	or     %al,(%eax)
 4d5:	00 10                	add    %dl,(%eax)
 4d7:	2e 01 3f             	add    %edi,%cs:(%edi)
 4da:	0c 03                	or     $0x3,%al
 4dc:	0e                   	push   %cs
 4dd:	3a 0b                	cmp    (%ebx),%cl
 4df:	3b 0b                	cmp    (%ebx),%ecx
 4e1:	27                   	daa    
 4e2:	0c 49                	or     $0x49,%al
 4e4:	13 11                	adc    (%ecx),%edx
 4e6:	01 12                	add    %edx,(%edx)
 4e8:	01 40 06             	add    %eax,0x6(%eax)
 4eb:	01 13                	add    %edx,(%ebx)
 4ed:	00 00                	add    %al,(%eax)
 4ef:	11 05 00 03 0e 3a    	adc    %eax,0x3a0e0300
 4f5:	0b 3b                	or     (%ebx),%edi
 4f7:	0b 49 13             	or     0x13(%ecx),%ecx
 4fa:	02 0a                	add    (%edx),%cl
 4fc:	00 00                	add    %al,(%eax)
 4fe:	12 0f                	adc    (%edi),%cl
 500:	00 0b                	add    %cl,(%ebx)
 502:	0b 49 13             	or     0x13(%ecx),%ecx
 505:	00 00                	add    %al,(%eax)
 507:	13 2e                	adc    (%esi),%ebp
 509:	01 3f                	add    %edi,(%edi)
 50b:	0c 03                	or     $0x3,%al
 50d:	0e                   	push   %cs
 50e:	3a 0b                	cmp    (%ebx),%cl
 510:	3b 0b                	cmp    (%ebx),%ecx
 512:	27                   	daa    
 513:	0c 11                	or     $0x11,%al
 515:	01 12                	add    %edx,(%edx)
 517:	01 40 06             	add    %eax,0x6(%eax)
 51a:	01 13                	add    %edx,(%ebx)
 51c:	00 00                	add    %al,(%eax)
 51e:	14 0b                	adc    $0xb,%al
 520:	01 11                	add    %edx,(%ecx)
 522:	01 12                	add    %edx,(%edx)
 524:	01 00                	add    %eax,(%eax)
 526:	00 15 34 00 03 0e    	add    %dl,0xe030034
 52c:	3a 0b                	cmp    (%ebx),%cl
 52e:	3b 0b                	cmp    (%ebx),%ecx
 530:	49                   	dec    %ecx
 531:	13 02                	adc    (%edx),%eax
 533:	0a 00                	or     (%eax),%al
 535:	00 16                	add    %dl,(%esi)
 537:	2e 01 3f             	add    %edi,%cs:(%edi)
 53a:	0c 03                	or     $0x3,%al
 53c:	0e                   	push   %cs
 53d:	3a 0b                	cmp    (%ebx),%cl
 53f:	3b 0b                	cmp    (%ebx),%ecx
 541:	49                   	dec    %ecx
 542:	13 11                	adc    (%ecx),%edx
 544:	01 12                	add    %edx,(%edx)
 546:	01 40 06             	add    %eax,0x6(%eax)
 549:	01 13                	add    %edx,(%ebx)
 54b:	00 00                	add    %al,(%eax)
 54d:	17                   	pop    %ss
 54e:	2e 01 3f             	add    %edi,%cs:(%edi)
 551:	0c 03                	or     $0x3,%al
 553:	0e                   	push   %cs
 554:	3a 0b                	cmp    (%ebx),%cl
 556:	3b 0b                	cmp    (%ebx),%ecx
 558:	49                   	dec    %ecx
 559:	13 3c 0c             	adc    (%esp,%ecx,1),%edi
 55c:	00 00                	add    %al,(%eax)
 55e:	18 18                	sbb    %bl,(%eax)
 560:	00 00                	add    %al,(%eax)
 562:	00 19                	add    %bl,(%ecx)
 564:	2e 01 3f             	add    %edi,%cs:(%edi)
 567:	0c 03                	or     $0x3,%al
 569:	0e                   	push   %cs
 56a:	3a 0b                	cmp    (%ebx),%cl
 56c:	3b 0b                	cmp    (%ebx),%ecx
 56e:	49                   	dec    %ecx
 56f:	13 3c 0c             	adc    (%esp,%ecx,1),%edi
 572:	01 13                	add    %edx,(%ebx)
 574:	00 00                	add    %al,(%eax)
 576:	1a 0b                	sbb    (%ebx),%cl
 578:	01 55 06             	add    %edx,0x6(%ebp)
 57b:	00 00                	add    %al,(%eax)
 57d:	1b 34 00             	sbb    (%eax,%eax,1),%esi
 580:	03 0e                	add    (%esi),%ecx
 582:	3a 0b                	cmp    (%ebx),%cl
 584:	3b 0b                	cmp    (%ebx),%ecx
 586:	49                   	dec    %ecx
 587:	13 3f                	adc    (%edi),%edi
 589:	0c 3c                	or     $0x3c,%al
 58b:	0c 00                	or     $0x0,%al
 58d:	00 1c 34             	add    %bl,(%esp,%esi,1)
 590:	00 03                	add    %al,(%ebx)
 592:	08 3a                	or     %bh,(%edx)
 594:	0b 3b                	or     (%ebx),%edi
 596:	0b 49 13             	or     0x13(%ecx),%ecx
 599:	3f                   	aas    
 59a:	0c 3c                	or     $0x3c,%al
 59c:	0c 00                	or     $0x0,%al
 59e:	00 1d 34 00 03 0e    	add    %bl,0xe030034
 5a4:	3a 0b                	cmp    (%ebx),%cl
 5a6:	3b 0b                	cmp    (%ebx),%ecx
 5a8:	49                   	dec    %ecx
 5a9:	13 3f                	adc    (%edi),%edi
 5ab:	0c 02                	or     $0x2,%al
 5ad:	0a 00                	or     (%eax),%al
 5af:	00 1e                	add    %bl,(%esi)
 5b1:	34 00                	xor    $0x0,%al
 5b3:	03 08                	add    (%eax),%ecx
 5b5:	3a 0b                	cmp    (%ebx),%cl
 5b7:	3b 0b                	cmp    (%ebx),%ecx
 5b9:	49                   	dec    %ecx
 5ba:	13 3f                	adc    (%edi),%edi
 5bc:	0c 02                	or     $0x2,%al
 5be:	0a 00                	or     (%eax),%al
 5c0:	00 00                	add    %al,(%eax)
 5c2:	01 11                	add    %edx,(%ecx)
 5c4:	01 25 0e 13 0b 03    	add    %esp,0x30b130e
 5ca:	0e                   	push   %cs
 5cb:	1b 0e                	sbb    (%esi),%ecx
 5cd:	11 01                	adc    %eax,(%ecx)
 5cf:	12 01                	adc    (%ecx),%al
 5d1:	10 06                	adc    %al,(%esi)
 5d3:	00 00                	add    %al,(%eax)
 5d5:	02 16                	add    (%esi),%dl
 5d7:	00 03                	add    %al,(%ebx)
 5d9:	0e                   	push   %cs
 5da:	3a 0b                	cmp    (%ebx),%cl
 5dc:	3b 0b                	cmp    (%ebx),%ecx
 5de:	49                   	dec    %ecx
 5df:	13 00                	adc    (%eax),%eax
 5e1:	00 03                	add    %al,(%ebx)
 5e3:	0f 00 0b             	str    (%ebx)
 5e6:	0b 03                	or     (%ebx),%eax
 5e8:	0e                   	push   %cs
 5e9:	49                   	dec    %ecx
 5ea:	13 00                	adc    (%eax),%eax
 5ec:	00 04 24             	add    %al,(%esp)
 5ef:	00 0b                	add    %cl,(%ebx)
 5f1:	0b 3e                	or     (%esi),%edi
 5f3:	0b 03                	or     (%ebx),%eax
 5f5:	0e                   	push   %cs
 5f6:	00 00                	add    %al,(%eax)
 5f8:	05 2e 01 3f 0c       	add    $0xc3f012e,%eax
 5fd:	03 0e                	add    (%esi),%ecx
 5ff:	3a 0b                	cmp    (%ebx),%cl
 601:	3b 0b                	cmp    (%ebx),%ecx
 603:	27                   	daa    
 604:	0c 49                	or     $0x49,%al
 606:	13 11                	adc    (%ecx),%edx
 608:	01 12                	add    %edx,(%edx)
 60a:	01 40 06             	add    %eax,0x6(%eax)
 60d:	01 13                	add    %edx,(%ebx)
 60f:	00 00                	add    %al,(%eax)
 611:	06                   	push   %es
 612:	05 00 03 0e 3a       	add    $0x3a0e0300,%eax
 617:	0b 3b                	or     (%ebx),%edi
 619:	0b 49 13             	or     0x13(%ecx),%ecx
 61c:	02 0a                	add    (%edx),%cl
 61e:	00 00                	add    %al,(%eax)
 620:	07                   	pop    %es
 621:	05 00 03 08 3a       	add    $0x3a080300,%eax
 626:	0b 3b                	or     (%ebx),%edi
 628:	0b 49 13             	or     0x13(%ecx),%ecx
 62b:	02 0a                	add    (%edx),%cl
 62d:	00 00                	add    %al,(%eax)
 62f:	08 34 00             	or     %dh,(%eax,%eax,1)
 632:	03 08                	add    (%eax),%ecx
 634:	3a 0b                	cmp    (%ebx),%cl
 636:	3b 0b                	cmp    (%ebx),%ecx
 638:	49                   	dec    %ecx
 639:	13 02                	adc    (%edx),%eax
 63b:	0a 00                	or     (%eax),%al
 63d:	00 09                	add    %cl,(%ecx)
 63f:	0f 00 0b             	str    (%ebx)
 642:	0b 49 13             	or     0x13(%ecx),%ecx
 645:	00 00                	add    %al,(%eax)
 647:	0a 24 00             	or     (%eax,%eax,1),%ah
 64a:	0b 0b                	or     (%ebx),%ecx
 64c:	3e 0b 03             	or     %ds:(%ebx),%eax
 64f:	08 00                	or     %al,(%eax)
 651:	00 0b                	add    %cl,(%ebx)
 653:	18 00                	sbb    %al,(%eax)
 655:	00 00                	add    %al,(%eax)
 657:	0c 34                	or     $0x34,%al
 659:	00 03                	add    %al,(%ebx)
 65b:	08 3a                	or     %bh,(%edx)
 65d:	0b 3b                	or     (%ebx),%edi
 65f:	0b 49 13             	or     0x13(%ecx),%ecx
 662:	00 00                	add    %al,(%eax)
 664:	0d 01 01 49 13       	or     $0x13490101,%eax
 669:	01 13                	add    %edx,(%ebx)
 66b:	00 00                	add    %al,(%eax)
 66d:	0e                   	push   %cs
 66e:	21 00                	and    %eax,(%eax)
 670:	49                   	dec    %ecx
 671:	13 2f                	adc    (%edi),%ebp
 673:	0b 00                	or     (%eax),%eax
 675:	00 0f                	add    %cl,(%edi)
 677:	2e 01 3f             	add    %edi,%cs:(%edi)
 67a:	0c 03                	or     $0x3,%al
 67c:	0e                   	push   %cs
 67d:	3a 0b                	cmp    (%ebx),%cl
 67f:	3b 0b                	cmp    (%ebx),%ecx
 681:	27                   	daa    
 682:	0c 11                	or     $0x11,%al
 684:	01 12                	add    %edx,(%edx)
 686:	01 40 06             	add    %eax,0x6(%eax)
 689:	01 13                	add    %edx,(%ebx)
 68b:	00 00                	add    %al,(%eax)
 68d:	10 0b                	adc    %cl,(%ebx)
 68f:	01 11                	add    %edx,(%ecx)
 691:	01 12                	add    %edx,(%edx)
 693:	01 00                	add    %eax,(%eax)
 695:	00 11                	add    %dl,(%ecx)
 697:	34 00                	xor    $0x0,%al
 699:	03 0e                	add    (%esi),%ecx
 69b:	3a 0b                	cmp    (%ebx),%cl
 69d:	3b 0b                	cmp    (%ebx),%ecx
 69f:	49                   	dec    %ecx
 6a0:	13 02                	adc    (%edx),%eax
 6a2:	0a 00                	or     (%eax),%al
 6a4:	00 12                	add    %dl,(%edx)
 6a6:	34 00                	xor    $0x0,%al
 6a8:	03 0e                	add    (%esi),%ecx
 6aa:	3a 0b                	cmp    (%ebx),%cl
 6ac:	3b 0b                	cmp    (%ebx),%ecx
 6ae:	49                   	dec    %ecx
 6af:	13 3f                	adc    (%edi),%edi
 6b1:	0c 3c                	or     $0x3c,%al
 6b3:	0c 00                	or     $0x0,%al
 6b5:	00 13                	add    %dl,(%ebx)
 6b7:	34 00                	xor    $0x0,%al
 6b9:	03 0e                	add    (%esi),%ecx
 6bb:	3a 0b                	cmp    (%ebx),%cl
 6bd:	3b 0b                	cmp    (%ebx),%ecx
 6bf:	49                   	dec    %ecx
 6c0:	13 3f                	adc    (%edi),%edi
 6c2:	0c 02                	or     $0x2,%al
 6c4:	0a 00                	or     (%eax),%al
 6c6:	00 00                	add    %al,(%eax)
 6c8:	01 11                	add    %edx,(%ecx)
 6ca:	01 25 0e 13 0b 03    	add    %esp,0x30b130e
 6d0:	0e                   	push   %cs
 6d1:	1b 0e                	sbb    (%esi),%ecx
 6d3:	11 01                	adc    %eax,(%ecx)
 6d5:	12 01                	adc    (%ecx),%al
 6d7:	10 06                	adc    %al,(%esi)
 6d9:	00 00                	add    %al,(%eax)
 6db:	02 13                	add    (%ebx),%dl
 6dd:	01 03                	add    %eax,(%ebx)
 6df:	08 0b                	or     %cl,(%ebx)
 6e1:	0b 3a                	or     (%edx),%edi
 6e3:	0b 3b                	or     (%ebx),%edi
 6e5:	0b 01                	or     (%ecx),%eax
 6e7:	13 00                	adc    (%eax),%eax
 6e9:	00 03                	add    %al,(%ebx)
 6eb:	0d 00 03 0e 3a       	or     $0x3a0e0300,%eax
 6f0:	0b 3b                	or     (%ebx),%edi
 6f2:	0b 49 13             	or     0x13(%ecx),%ecx
 6f5:	38 0a                	cmp    %cl,(%edx)
 6f7:	00 00                	add    %al,(%eax)
 6f9:	04 24                	add    $0x24,%al
 6fb:	00 0b                	add    %cl,(%ebx)
 6fd:	0b 3e                	or     (%esi),%edi
 6ff:	0b 03                	or     (%ebx),%eax
 701:	08 00                	or     %al,(%eax)
 703:	00 05 2e 01 3f 0c    	add    %al,0xc3f012e
 709:	03 0e                	add    (%esi),%ecx
 70b:	3a 0b                	cmp    (%ebx),%cl
 70d:	3b 0b                	cmp    (%ebx),%ecx
 70f:	11 01                	adc    %eax,(%ecx)
 711:	12 01                	adc    (%ecx),%al
 713:	40                   	inc    %eax
 714:	06                   	push   %es
 715:	01 13                	add    %edx,(%ebx)
 717:	00 00                	add    %al,(%eax)
 719:	06                   	push   %es
 71a:	2e 01 3f             	add    %edi,%cs:(%edi)
 71d:	0c 03                	or     $0x3,%al
 71f:	0e                   	push   %cs
 720:	3a 0b                	cmp    (%ebx),%cl
 722:	3b 0b                	cmp    (%ebx),%ecx
 724:	49                   	dec    %ecx
 725:	13 3c 0c             	adc    (%esp,%ecx,1),%edi
 728:	01 13                	add    %edx,(%ebx)
 72a:	00 00                	add    %al,(%eax)
 72c:	07                   	pop    %es
 72d:	18 00                	sbb    %al,(%eax)
 72f:	00 00                	add    %al,(%eax)
 731:	08 0b                	or     %cl,(%ebx)
 733:	01 11                	add    %edx,(%ecx)
 735:	01 12                	add    %edx,(%edx)
 737:	01 01                	add    %eax,(%ecx)
 739:	13 00                	adc    (%eax),%eax
 73b:	00 09                	add    %cl,(%ecx)
 73d:	34 00                	xor    $0x0,%al
 73f:	03 0e                	add    (%esi),%ecx
 741:	3a 0b                	cmp    (%ebx),%cl
 743:	3b 0b                	cmp    (%ebx),%ecx
 745:	49                   	dec    %ecx
 746:	13 02                	adc    (%edx),%eax
 748:	0a 00                	or     (%eax),%al
 74a:	00 0a                	add    %cl,(%edx)
 74c:	0b 01                	or     (%ecx),%eax
 74e:	11 01                	adc    %eax,(%ecx)
 750:	12 01                	adc    (%ecx),%al
 752:	00 00                	add    %al,(%eax)
 754:	0b 34 00             	or     (%eax,%eax,1),%esi
 757:	03 08                	add    (%eax),%ecx
 759:	3a 0b                	cmp    (%ebx),%cl
 75b:	3b 0b                	cmp    (%ebx),%ecx
 75d:	49                   	dec    %ecx
 75e:	13 02                	adc    (%edx),%eax
 760:	0a 00                	or     (%eax),%al
 762:	00 0c 24             	add    %cl,(%esp)
 765:	00 0b                	add    %cl,(%ebx)
 767:	0b 3e                	or     (%esi),%edi
 769:	0b 03                	or     (%ebx),%eax
 76b:	0e                   	push   %cs
 76c:	00 00                	add    %al,(%eax)
 76e:	0d 0f 00 0b 0b       	or     $0xb0b000f,%eax
 773:	49                   	dec    %ecx
 774:	13 00                	adc    (%eax),%eax
 776:	00 0e                	add    %cl,(%esi)
 778:	2e 01 3f             	add    %edi,%cs:(%edi)
 77b:	0c 03                	or     $0x3,%al
 77d:	0e                   	push   %cs
 77e:	3a 0b                	cmp    (%ebx),%cl
 780:	3b 0b                	cmp    (%ebx),%ecx
 782:	27                   	daa    
 783:	0c 11                	or     $0x11,%al
 785:	01 12                	add    %edx,(%edx)
 787:	01 40 06             	add    %eax,0x6(%eax)
 78a:	01 13                	add    %edx,(%ebx)
 78c:	00 00                	add    %al,(%eax)
 78e:	0f 05                	syscall 
 790:	00 03                	add    %al,(%ebx)
 792:	08 3a                	or     %bh,(%edx)
 794:	0b 3b                	or     (%ebx),%edi
 796:	0b 49 13             	or     0x13(%ecx),%ecx
 799:	02 0a                	add    (%edx),%cl
 79b:	00 00                	add    %al,(%eax)
 79d:	10 34 00             	adc    %dh,(%eax,%eax,1)
 7a0:	03 0e                	add    (%esi),%ecx
 7a2:	3a 0b                	cmp    (%ebx),%cl
 7a4:	3b 0b                	cmp    (%ebx),%ecx
 7a6:	49                   	dec    %ecx
 7a7:	13 3f                	adc    (%edi),%edi
 7a9:	0c 3c                	or     $0x3c,%al
 7ab:	0c 00                	or     $0x0,%al
 7ad:	00 11                	add    %dl,(%ecx)
 7af:	01 01                	add    %eax,(%ecx)
 7b1:	49                   	dec    %ecx
 7b2:	13 01                	adc    (%ecx),%eax
 7b4:	13 00                	adc    (%eax),%eax
 7b6:	00 12                	add    %dl,(%edx)
 7b8:	21 00                	and    %eax,(%eax)
 7ba:	49                   	dec    %ecx
 7bb:	13 2f                	adc    (%edi),%ebp
 7bd:	0b 00                	or     (%eax),%eax
 7bf:	00 13                	add    %dl,(%ebx)
 7c1:	21 00                	and    %eax,(%eax)
 7c3:	49                   	dec    %ecx
 7c4:	13 2f                	adc    (%edi),%ebp
 7c6:	05 00 00 14 34       	add    $0x34140000,%eax
 7cb:	00 03                	add    %al,(%ebx)
 7cd:	08 3a                	or     %bh,(%edx)
 7cf:	0b 3b                	or     (%ebx),%edi
 7d1:	0b 49 13             	or     0x13(%ecx),%ecx
 7d4:	3f                   	aas    
 7d5:	0c 3c                	or     $0x3c,%al
 7d7:	0c 00                	or     $0x0,%al
 7d9:	00 15 34 00 03 0e    	add    %dl,0xe030034
 7df:	3a 0b                	cmp    (%ebx),%cl
 7e1:	3b 0b                	cmp    (%ebx),%ecx
 7e3:	49                   	dec    %ecx
 7e4:	13 3f                	adc    (%edi),%edi
 7e6:	0c 02                	or     $0x2,%al
 7e8:	0a 00                	or     (%eax),%al
 7ea:	00 16                	add    %dl,(%esi)
 7ec:	34 00                	xor    $0x0,%al
 7ee:	03 08                	add    (%eax),%ecx
 7f0:	3a 0b                	cmp    (%ebx),%cl
 7f2:	3b 0b                	cmp    (%ebx),%ecx
 7f4:	49                   	dec    %ecx
 7f5:	13 3f                	adc    (%edi),%edi
 7f7:	0c 02                	or     $0x2,%al
 7f9:	0a 00                	or     (%eax),%al
 7fb:	00 00                	add    %al,(%eax)
 7fd:	01 11                	add    %edx,(%ecx)
 7ff:	01 25 0e 13 0b 03    	add    %esp,0x30b130e
 805:	0e                   	push   %cs
 806:	1b 0e                	sbb    (%esi),%ecx
 808:	11 01                	adc    %eax,(%ecx)
 80a:	12 01                	adc    (%ecx),%al
 80c:	10 06                	adc    %al,(%esi)
 80e:	00 00                	add    %al,(%eax)
 810:	02 13                	add    (%ebx),%dl
 812:	01 03                	add    %eax,(%ebx)
 814:	0e                   	push   %cs
 815:	0b 0b                	or     (%ebx),%ecx
 817:	3a 0b                	cmp    (%ebx),%cl
 819:	3b 0b                	cmp    (%ebx),%ecx
 81b:	01 13                	add    %edx,(%ebx)
 81d:	00 00                	add    %al,(%eax)
 81f:	03 0d 00 03 0e 3a    	add    0x3a0e0300,%ecx
 825:	0b 3b                	or     (%ebx),%edi
 827:	0b 49 13             	or     0x13(%ecx),%ecx
 82a:	38 0a                	cmp    %cl,(%edx)
 82c:	00 00                	add    %al,(%eax)
 82e:	04 0d                	add    $0xd,%al
 830:	00 03                	add    %al,(%ebx)
 832:	0e                   	push   %cs
 833:	3a 0b                	cmp    (%ebx),%cl
 835:	3b 0b                	cmp    (%ebx),%ecx
 837:	49                   	dec    %ecx
 838:	13 0b                	adc    (%ebx),%ecx
 83a:	0b 0d 0b 0c 0b 38    	or     0x380b0c0b,%ecx
 840:	0a 00                	or     (%eax),%al
 842:	00 05 0d 00 03 08    	add    %al,0x803000d
 848:	3a 0b                	cmp    (%ebx),%cl
 84a:	3b 0b                	cmp    (%ebx),%ecx
 84c:	49                   	dec    %ecx
 84d:	13 0b                	adc    (%ebx),%ecx
 84f:	0b 0d 0b 0c 0b 38    	or     0x380b0c0b,%ecx
 855:	0a 00                	or     (%eax),%al
 857:	00 06                	add    %al,(%esi)
 859:	24 00                	and    $0x0,%al
 85b:	0b 0b                	or     (%ebx),%ecx
 85d:	3e 0b 03             	or     %ds:(%ebx),%eax
 860:	0e                   	push   %cs
 861:	00 00                	add    %al,(%eax)
 863:	07                   	pop    %es
 864:	13 01                	adc    (%ecx),%eax
 866:	03 08                	add    (%eax),%ecx
 868:	0b 0b                	or     (%ebx),%ecx
 86a:	3a 0b                	cmp    (%ebx),%cl
 86c:	3b 0b                	cmp    (%ebx),%ecx
 86e:	01 13                	add    %edx,(%ebx)
 870:	00 00                	add    %al,(%eax)
 872:	08 0d 00 03 08 3a    	or     %cl,0x3a080300
 878:	0b 3b                	or     (%ebx),%edi
 87a:	0b 49 13             	or     0x13(%ecx),%ecx
 87d:	38 0a                	cmp    %cl,(%edx)
 87f:	00 00                	add    %al,(%eax)
 881:	09 13                	or     %edx,(%ebx)
 883:	01 03                	add    %eax,(%ebx)
 885:	0e                   	push   %cs
 886:	0b 05 3a 0b 3b 0b    	or     0xb3b0b3a,%eax
 88c:	01 13                	add    %edx,(%ebx)
 88e:	00 00                	add    %al,(%eax)
 890:	0a 01                	or     (%ecx),%al
 892:	01 49 13             	add    %ecx,0x13(%ecx)
 895:	01 13                	add    %edx,(%ebx)
 897:	00 00                	add    %al,(%eax)
 899:	0b 21                	or     (%ecx),%esp
 89b:	00 49 13             	add    %cl,0x13(%ecx)
 89e:	2f                   	das    
 89f:	0b 00                	or     (%eax),%eax
 8a1:	00 0c 21             	add    %cl,(%ecx,%eiz,1)
 8a4:	00 49 13             	add    %cl,0x13(%ecx)
 8a7:	2f                   	das    
 8a8:	05 00 00 0d 2e       	add    $0x2e0d0000,%eax
 8ad:	01 3f                	add    %edi,(%edi)
 8af:	0c 03                	or     $0x3,%al
 8b1:	0e                   	push   %cs
 8b2:	3a 0b                	cmp    (%ebx),%cl
 8b4:	3b 0b                	cmp    (%ebx),%ecx
 8b6:	11 01                	adc    %eax,(%ecx)
 8b8:	12 01                	adc    (%ecx),%al
 8ba:	40                   	inc    %eax
 8bb:	06                   	push   %es
 8bc:	01 13                	add    %edx,(%ebx)
 8be:	00 00                	add    %al,(%eax)
 8c0:	0e                   	push   %cs
 8c1:	34 00                	xor    $0x0,%al
 8c3:	03 08                	add    (%eax),%ecx
 8c5:	3a 0b                	cmp    (%ebx),%cl
 8c7:	3b 0b                	cmp    (%ebx),%ecx
 8c9:	49                   	dec    %ecx
 8ca:	13 02                	adc    (%edx),%eax
 8cc:	0a 00                	or     (%eax),%al
 8ce:	00 0f                	add    %cl,(%edi)
 8d0:	0b 01                	or     (%ecx),%eax
 8d2:	11 01                	adc    %eax,(%ecx)
 8d4:	12 01                	adc    (%ecx),%al
 8d6:	01 13                	add    %edx,(%ebx)
 8d8:	00 00                	add    %al,(%eax)
 8da:	10 13                	adc    %dl,(%ebx)
 8dc:	01 0b                	add    %ecx,(%ebx)
 8de:	0b 3a                	or     (%edx),%edi
 8e0:	0b 3b                	or     (%ebx),%edi
 8e2:	0b 01                	or     (%ecx),%eax
 8e4:	13 00                	adc    (%eax),%eax
 8e6:	00 11                	add    %dl,(%ecx)
 8e8:	34 00                	xor    $0x0,%al
 8ea:	03 0e                	add    (%esi),%ecx
 8ec:	3a 0b                	cmp    (%ebx),%cl
 8ee:	3b 0b                	cmp    (%ebx),%ecx
 8f0:	49                   	dec    %ecx
 8f1:	13 02                	adc    (%edx),%eax
 8f3:	0a 00                	or     (%eax),%al
 8f5:	00 12                	add    %dl,(%edx)
 8f7:	0b 01                	or     (%ecx),%eax
 8f9:	11 01                	adc    %eax,(%ecx)
 8fb:	12 01                	adc    (%ecx),%al
 8fd:	00 00                	add    %al,(%eax)
 8ff:	13 2e                	adc    (%esi),%ebp
 901:	01 3f                	add    %edi,(%edi)
 903:	0c 03                	or     $0x3,%al
 905:	0e                   	push   %cs
 906:	3a 0b                	cmp    (%ebx),%cl
 908:	3b 0b                	cmp    (%ebx),%ecx
 90a:	49                   	dec    %ecx
 90b:	13 3c 0c             	adc    (%esp,%ecx,1),%edi
 90e:	00 00                	add    %al,(%eax)
 910:	14 18                	adc    $0x18,%al
 912:	00 00                	add    %al,(%eax)
 914:	00 15 24 00 0b 0b    	add    %dl,0xb0b0024
 91a:	3e 0b 03             	or     %ds:(%ebx),%eax
 91d:	08 00                	or     %al,(%eax)
 91f:	00 16                	add    %dl,(%esi)
 921:	34 00                	xor    $0x0,%al
 923:	03 0e                	add    (%esi),%ecx
 925:	3a 0b                	cmp    (%ebx),%cl
 927:	3b 0b                	cmp    (%ebx),%ecx
 929:	49                   	dec    %ecx
 92a:	13 3f                	adc    (%edi),%edi
 92c:	0c 3c                	or     $0x3c,%al
 92e:	0c 00                	or     $0x0,%al
 930:	00 17                	add    %dl,(%edi)
 932:	34 00                	xor    $0x0,%al
 934:	03 0e                	add    (%esi),%ecx
 936:	3a 0b                	cmp    (%ebx),%cl
 938:	3b 0b                	cmp    (%ebx),%ecx
 93a:	49                   	dec    %ecx
 93b:	13 3f                	adc    (%edi),%edi
 93d:	0c 02                	or     $0x2,%al
 93f:	0a 00                	or     (%eax),%al
 941:	00 00                	add    %al,(%eax)
 943:	01 11                	add    %edx,(%ecx)
 945:	01 25 0e 13 0b 03    	add    %esp,0x30b130e
 94b:	0e                   	push   %cs
 94c:	1b 0e                	sbb    (%esi),%ecx
 94e:	11 01                	adc    %eax,(%ecx)
 950:	12 01                	adc    (%ecx),%al
 952:	10 06                	adc    %al,(%esi)
 954:	00 00                	add    %al,(%eax)
 956:	02 13                	add    (%ebx),%dl
 958:	01 03                	add    %eax,(%ebx)
 95a:	0e                   	push   %cs
 95b:	0b 0b                	or     (%ebx),%ecx
 95d:	3a 0b                	cmp    (%ebx),%cl
 95f:	3b 0b                	cmp    (%ebx),%ecx
 961:	01 13                	add    %edx,(%ebx)
 963:	00 00                	add    %al,(%eax)
 965:	03 0d 00 03 0e 3a    	add    0x3a0e0300,%ecx
 96b:	0b 3b                	or     (%ebx),%edi
 96d:	0b 49 13             	or     0x13(%ecx),%ecx
 970:	38 0a                	cmp    %cl,(%edx)
 972:	00 00                	add    %al,(%eax)
 974:	04 0d                	add    $0xd,%al
 976:	00 03                	add    %al,(%ebx)
 978:	0e                   	push   %cs
 979:	3a 0b                	cmp    (%ebx),%cl
 97b:	3b 0b                	cmp    (%ebx),%ecx
 97d:	49                   	dec    %ecx
 97e:	13 0b                	adc    (%ebx),%ecx
 980:	0b 0d 0b 0c 0b 38    	or     0x380b0c0b,%ecx
 986:	0a 00                	or     (%eax),%al
 988:	00 05 0d 00 03 08    	add    %al,0x803000d
 98e:	3a 0b                	cmp    (%ebx),%cl
 990:	3b 0b                	cmp    (%ebx),%ecx
 992:	49                   	dec    %ecx
 993:	13 0b                	adc    (%ebx),%ecx
 995:	0b 0d 0b 0c 0b 38    	or     0x380b0c0b,%ecx
 99b:	0a 00                	or     (%eax),%al
 99d:	00 06                	add    %al,(%esi)
 99f:	24 00                	and    $0x0,%al
 9a1:	0b 0b                	or     (%ebx),%ecx
 9a3:	3e 0b 03             	or     %ds:(%ebx),%eax
 9a6:	0e                   	push   %cs
 9a7:	00 00                	add    %al,(%eax)
 9a9:	07                   	pop    %es
 9aa:	13 01                	adc    (%ecx),%eax
 9ac:	03 08                	add    (%eax),%ecx
 9ae:	0b 0b                	or     (%ebx),%ecx
 9b0:	3a 0b                	cmp    (%ebx),%cl
 9b2:	3b 0b                	cmp    (%ebx),%ecx
 9b4:	01 13                	add    %edx,(%ebx)
 9b6:	00 00                	add    %al,(%eax)
 9b8:	08 0d 00 03 08 3a    	or     %cl,0x3a080300
 9be:	0b 3b                	or     (%ebx),%edi
 9c0:	0b 49 13             	or     0x13(%ecx),%ecx
 9c3:	38 0a                	cmp    %cl,(%edx)
 9c5:	00 00                	add    %al,(%eax)
 9c7:	09 13                	or     %edx,(%ebx)
 9c9:	01 03                	add    %eax,(%ebx)
 9cb:	0e                   	push   %cs
 9cc:	0b 05 3a 0b 3b 0b    	or     0xb3b0b3a,%eax
 9d2:	01 13                	add    %edx,(%ebx)
 9d4:	00 00                	add    %al,(%eax)
 9d6:	0a 01                	or     (%ecx),%al
 9d8:	01 49 13             	add    %ecx,0x13(%ecx)
 9db:	01 13                	add    %edx,(%ebx)
 9dd:	00 00                	add    %al,(%eax)
 9df:	0b 21                	or     (%ecx),%esp
 9e1:	00 49 13             	add    %cl,0x13(%ecx)
 9e4:	2f                   	das    
 9e5:	0b 00                	or     (%eax),%eax
 9e7:	00 0c 21             	add    %cl,(%ecx,%eiz,1)
 9ea:	00 49 13             	add    %cl,0x13(%ecx)
 9ed:	2f                   	das    
 9ee:	05 00 00 0d 15       	add    $0x150d0000,%eax
 9f3:	01 01                	add    %eax,(%ecx)
 9f5:	13 00                	adc    (%eax),%eax
 9f7:	00 0e                	add    %cl,(%esi)
 9f9:	18 00                	sbb    %al,(%eax)
 9fb:	00 00                	add    %al,(%eax)
 9fd:	0f                   	(bad)  
 9fe:	0f 00 0b             	str    (%ebx)
 a01:	0b 49 13             	or     0x13(%ecx),%ecx
 a04:	00 00                	add    %al,(%eax)
 a06:	10 24 00             	adc    %ah,(%eax,%eax,1)
 a09:	0b 0b                	or     (%ebx),%ecx
 a0b:	3e 0b 03             	or     %ds:(%ebx),%eax
 a0e:	08 00                	or     %al,(%eax)
 a10:	00 11                	add    %dl,(%ecx)
 a12:	2e 01 3f             	add    %edi,%cs:(%edi)
 a15:	0c 03                	or     $0x3,%al
 a17:	0e                   	push   %cs
 a18:	3a 0b                	cmp    (%ebx),%cl
 a1a:	3b 0b                	cmp    (%ebx),%ecx
 a1c:	11 01                	adc    %eax,(%ecx)
 a1e:	12 01                	adc    (%ecx),%al
 a20:	40                   	inc    %eax
 a21:	06                   	push   %es
 a22:	01 13                	add    %edx,(%ebx)
 a24:	00 00                	add    %al,(%eax)
 a26:	12 0b                	adc    (%ebx),%cl
 a28:	01 11                	add    %edx,(%ecx)
 a2a:	01 12                	add    %edx,(%edx)
 a2c:	01 01                	add    %eax,(%ecx)
 a2e:	13 00                	adc    (%eax),%eax
 a30:	00 13                	add    %dl,(%ebx)
 a32:	34 00                	xor    $0x0,%al
 a34:	03 08                	add    (%eax),%ecx
 a36:	3a 0b                	cmp    (%ebx),%cl
 a38:	3b 0b                	cmp    (%ebx),%ecx
 a3a:	49                   	dec    %ecx
 a3b:	13 02                	adc    (%edx),%eax
 a3d:	0a 00                	or     (%eax),%al
 a3f:	00 14 34             	add    %dl,(%esp,%esi,1)
 a42:	00 03                	add    %al,(%ebx)
 a44:	0e                   	push   %cs
 a45:	3a 0b                	cmp    (%ebx),%cl
 a47:	3b 0b                	cmp    (%ebx),%ecx
 a49:	49                   	dec    %ecx
 a4a:	13 02                	adc    (%edx),%eax
 a4c:	0a 00                	or     (%eax),%al
 a4e:	00 15 0b 01 11 01    	add    %dl,0x111010b
 a54:	12 01                	adc    (%ecx),%al
 a56:	00 00                	add    %al,(%eax)
 a58:	16                   	push   %ss
 a59:	2e 01 3f             	add    %edi,%cs:(%edi)
 a5c:	0c 03                	or     $0x3,%al
 a5e:	0e                   	push   %cs
 a5f:	3a 0b                	cmp    (%ebx),%cl
 a61:	3b 0b                	cmp    (%ebx),%ecx
 a63:	27                   	daa    
 a64:	0c 49                	or     $0x49,%al
 a66:	13 11                	adc    (%ecx),%edx
 a68:	01 12                	add    %edx,(%edx)
 a6a:	01 40 06             	add    %eax,0x6(%eax)
 a6d:	01 13                	add    %edx,(%ebx)
 a6f:	00 00                	add    %al,(%eax)
 a71:	17                   	pop    %ss
 a72:	05 00 03 0e 3a       	add    $0x3a0e0300,%eax
 a77:	0b 3b                	or     (%ebx),%edi
 a79:	0b 49 13             	or     0x13(%ecx),%ecx
 a7c:	02 0a                	add    (%edx),%cl
 a7e:	00 00                	add    %al,(%eax)
 a80:	18 05 00 03 08 3a    	sbb    %al,0x3a080300
 a86:	0b 3b                	or     (%ebx),%edi
 a88:	0b 49 13             	or     0x13(%ecx),%ecx
 a8b:	02 0a                	add    (%edx),%cl
 a8d:	00 00                	add    %al,(%eax)
 a8f:	19 34 00             	sbb    %esi,(%eax,%eax,1)
 a92:	03 0e                	add    (%esi),%ecx
 a94:	3a 0b                	cmp    (%ebx),%cl
 a96:	3b 0b                	cmp    (%ebx),%ecx
 a98:	49                   	dec    %ecx
 a99:	13 3f                	adc    (%edi),%edi
 a9b:	0c 3c                	or     $0x3c,%al
 a9d:	0c 00                	or     $0x0,%al
 a9f:	00 1a                	add    %bl,(%edx)
 aa1:	34 00                	xor    $0x0,%al
 aa3:	03 0e                	add    (%esi),%ecx
 aa5:	3a 0b                	cmp    (%ebx),%cl
 aa7:	3b 0b                	cmp    (%ebx),%ecx
 aa9:	49                   	dec    %ecx
 aaa:	13 3f                	adc    (%edi),%edi
 aac:	0c 02                	or     $0x2,%al
 aae:	0a 00                	or     (%eax),%al
 ab0:	00 00                	add    %al,(%eax)
 ab2:	01 11                	add    %edx,(%ecx)
 ab4:	01 25 0e 13 0b 03    	add    %esp,0x30b130e
 aba:	0e                   	push   %cs
 abb:	1b 0e                	sbb    (%esi),%ecx
 abd:	11 01                	adc    %eax,(%ecx)
 abf:	12 01                	adc    (%ecx),%al
 ac1:	10 06                	adc    %al,(%esi)
 ac3:	00 00                	add    %al,(%eax)
 ac5:	02 13                	add    (%ebx),%dl
 ac7:	01 03                	add    %eax,(%ebx)
 ac9:	0e                   	push   %cs
 aca:	0b 05 3a 0b 3b 0b    	or     0xb3b0b3a,%eax
 ad0:	01 13                	add    %edx,(%ebx)
 ad2:	00 00                	add    %al,(%eax)
 ad4:	03 0d 00 03 08 3a    	add    0x3a080300,%ecx
 ada:	0b 3b                	or     (%ebx),%edi
 adc:	0b 49 13             	or     0x13(%ecx),%ecx
 adf:	38 0a                	cmp    %cl,(%edx)
 ae1:	00 00                	add    %al,(%eax)
 ae3:	04 0d                	add    $0xd,%al
 ae5:	00 03                	add    %al,(%ebx)
 ae7:	0e                   	push   %cs
 ae8:	3a 0b                	cmp    (%ebx),%cl
 aea:	3b 0b                	cmp    (%ebx),%ecx
 aec:	49                   	dec    %ecx
 aed:	13 38                	adc    (%eax),%edi
 aef:	0a 00                	or     (%eax),%al
 af1:	00 05 01 01 49 13    	add    %al,0x13490101
 af7:	01 13                	add    %edx,(%ebx)
 af9:	00 00                	add    %al,(%eax)
 afb:	06                   	push   %es
 afc:	21 00                	and    %eax,(%eax)
 afe:	49                   	dec    %ecx
 aff:	13 2f                	adc    (%edi),%ebp
 b01:	05 00 00 07 24       	add    $0x24070000,%eax
 b06:	00 0b                	add    %cl,(%ebx)
 b08:	0b 3e                	or     (%esi),%edi
 b0a:	0b 03                	or     (%ebx),%eax
 b0c:	0e                   	push   %cs
 b0d:	00 00                	add    %al,(%eax)
 b0f:	08 24 00             	or     %ah,(%eax,%eax,1)
 b12:	0b 0b                	or     (%ebx),%ecx
 b14:	3e 0b 03             	or     %ds:(%ebx),%eax
 b17:	08 00                	or     %al,(%eax)
 b19:	00 09                	add    %cl,(%ecx)
 b1b:	2e 01 3f             	add    %edi,%cs:(%edi)
 b1e:	0c 03                	or     $0x3,%al
 b20:	0e                   	push   %cs
 b21:	3a 0b                	cmp    (%ebx),%cl
 b23:	3b 0b                	cmp    (%ebx),%ecx
 b25:	27                   	daa    
 b26:	0c 11                	or     $0x11,%al
 b28:	01 12                	add    %edx,(%edx)
 b2a:	01 40 06             	add    %eax,0x6(%eax)
 b2d:	01 13                	add    %edx,(%ebx)
 b2f:	00 00                	add    %al,(%eax)
 b31:	0a 05 00 03 0e 3a    	or     0x3a0e0300,%al
 b37:	0b 3b                	or     (%ebx),%edi
 b39:	0b 49 13             	or     0x13(%ecx),%ecx
 b3c:	02 0a                	add    (%edx),%cl
 b3e:	00 00                	add    %al,(%eax)
 b40:	0b 34 00             	or     (%eax,%eax,1),%esi
 b43:	03 0e                	add    (%esi),%ecx
 b45:	3a 0b                	cmp    (%ebx),%cl
 b47:	3b 0b                	cmp    (%ebx),%ecx
 b49:	49                   	dec    %ecx
 b4a:	13 02                	adc    (%edx),%eax
 b4c:	0a 00                	or     (%eax),%al
 b4e:	00 0c 0b             	add    %cl,(%ebx,%ecx,1)
 b51:	01 11                	add    %edx,(%ecx)
 b53:	01 12                	add    %edx,(%edx)
 b55:	01 00                	add    %eax,(%eax)
 b57:	00 0d 34 00 03 0e    	add    %cl,0xe030034
 b5d:	3a 0b                	cmp    (%ebx),%cl
 b5f:	3b 0b                	cmp    (%ebx),%ecx
 b61:	49                   	dec    %ecx
 b62:	13 3f                	adc    (%edi),%edi
 b64:	0c 3c                	or     $0x3c,%al
 b66:	0c 00                	or     $0x0,%al
 b68:	00 0e                	add    %cl,(%esi)
 b6a:	34 00                	xor    $0x0,%al
 b6c:	03 0e                	add    (%esi),%ecx
 b6e:	3a 0b                	cmp    (%ebx),%cl
 b70:	3b 0b                	cmp    (%ebx),%ecx
 b72:	49                   	dec    %ecx
 b73:	13 3f                	adc    (%edi),%edi
 b75:	0c 02                	or     $0x2,%al
 b77:	0a 00                	or     (%eax),%al
 b79:	00 0f                	add    %cl,(%edi)
 b7b:	0f 00 0b             	str    (%ebx)
 b7e:	0b 49 13             	or     0x13(%ecx),%ecx
 b81:	00 00                	add    %al,(%eax)
 b83:	00 01                	add    %al,(%ecx)
 b85:	11 01                	adc    %eax,(%ecx)
 b87:	25 0e 13 0b 03       	and    $0x30b130e,%eax
 b8c:	0e                   	push   %cs
 b8d:	1b 0e                	sbb    (%esi),%ecx
 b8f:	11 01                	adc    %eax,(%ecx)
 b91:	12 01                	adc    (%ecx),%al
 b93:	10 06                	adc    %al,(%esi)
 b95:	00 00                	add    %al,(%eax)
 b97:	02 13                	add    (%ebx),%dl
 b99:	01 03                	add    %eax,(%ebx)
 b9b:	0e                   	push   %cs
 b9c:	0b 05 3a 0b 3b 0b    	or     0xb3b0b3a,%eax
 ba2:	01 13                	add    %edx,(%ebx)
 ba4:	00 00                	add    %al,(%eax)
 ba6:	03 0d 00 03 08 3a    	add    0x3a080300,%ecx
 bac:	0b 3b                	or     (%ebx),%edi
 bae:	0b 49 13             	or     0x13(%ecx),%ecx
 bb1:	38 0a                	cmp    %cl,(%edx)
 bb3:	00 00                	add    %al,(%eax)
 bb5:	04 0d                	add    $0xd,%al
 bb7:	00 03                	add    %al,(%ebx)
 bb9:	0e                   	push   %cs
 bba:	3a 0b                	cmp    (%ebx),%cl
 bbc:	3b 0b                	cmp    (%ebx),%ecx
 bbe:	49                   	dec    %ecx
 bbf:	13 38                	adc    (%eax),%edi
 bc1:	0a 00                	or     (%eax),%al
 bc3:	00 05 01 01 49 13    	add    %al,0x13490101
 bc9:	01 13                	add    %edx,(%ebx)
 bcb:	00 00                	add    %al,(%eax)
 bcd:	06                   	push   %es
 bce:	21 00                	and    %eax,(%eax)
 bd0:	49                   	dec    %ecx
 bd1:	13 2f                	adc    (%edi),%ebp
 bd3:	05 00 00 07 24       	add    $0x24070000,%eax
 bd8:	00 0b                	add    %cl,(%ebx)
 bda:	0b 3e                	or     (%esi),%edi
 bdc:	0b 03                	or     (%ebx),%eax
 bde:	0e                   	push   %cs
 bdf:	00 00                	add    %al,(%eax)
 be1:	08 24 00             	or     %ah,(%eax,%eax,1)
 be4:	0b 0b                	or     (%ebx),%ecx
 be6:	3e 0b 03             	or     %ds:(%ebx),%eax
 be9:	08 00                	or     %al,(%eax)
 beb:	00 09                	add    %cl,(%ecx)
 bed:	13 01                	adc    (%ecx),%eax
 bef:	03 0e                	add    (%esi),%ecx
 bf1:	0b 0b                	or     (%ebx),%ecx
 bf3:	3a 0b                	cmp    (%ebx),%cl
 bf5:	3b 0b                	cmp    (%ebx),%ecx
 bf7:	01 13                	add    %edx,(%ebx)
 bf9:	00 00                	add    %al,(%eax)
 bfb:	0a 0d 00 03 0e 3a    	or     0x3a0e0300,%cl
 c01:	0b 3b                	or     (%ebx),%edi
 c03:	0b 49 13             	or     0x13(%ecx),%ecx
 c06:	0b 0b                	or     (%ebx),%ecx
 c08:	0d 0b 0c 0b 38       	or     $0x380b0c0b,%eax
 c0d:	0a 00                	or     (%eax),%al
 c0f:	00 0b                	add    %cl,(%ebx)
 c11:	0d 00 03 08 3a       	or     $0x3a080300,%eax
 c16:	0b 3b                	or     (%ebx),%edi
 c18:	0b 49 13             	or     0x13(%ecx),%ecx
 c1b:	0b 0b                	or     (%ebx),%ecx
 c1d:	0d 0b 0c 0b 38       	or     $0x380b0c0b,%eax
 c22:	0a 00                	or     (%eax),%al
 c24:	00 0c 13             	add    %cl,(%ebx,%edx,1)
 c27:	01 03                	add    %eax,(%ebx)
 c29:	08 0b                	or     %cl,(%ebx)
 c2b:	0b 3a                	or     (%edx),%edi
 c2d:	0b 3b                	or     (%ebx),%edi
 c2f:	0b 01                	or     (%ecx),%eax
 c31:	13 00                	adc    (%eax),%eax
 c33:	00 0d 21 00 49 13    	add    %cl,0x13490021
 c39:	2f                   	das    
 c3a:	0b 00                	or     (%eax),%eax
 c3c:	00 0e                	add    %cl,(%esi)
 c3e:	2e 01 3f             	add    %edi,%cs:(%edi)
 c41:	0c 03                	or     $0x3,%al
 c43:	0e                   	push   %cs
 c44:	3a 0b                	cmp    (%ebx),%cl
 c46:	3b 0b                	cmp    (%ebx),%ecx
 c48:	11 01                	adc    %eax,(%ecx)
 c4a:	12 01                	adc    (%ecx),%al
 c4c:	40                   	inc    %eax
 c4d:	06                   	push   %es
 c4e:	01 13                	add    %edx,(%ebx)
 c50:	00 00                	add    %al,(%eax)
 c52:	0f 34                	sysenter 
 c54:	00 03                	add    %al,(%ebx)
 c56:	0e                   	push   %cs
 c57:	3a 0b                	cmp    (%ebx),%cl
 c59:	3b 0b                	cmp    (%ebx),%ecx
 c5b:	49                   	dec    %ecx
 c5c:	13 02                	adc    (%edx),%eax
 c5e:	0a 00                	or     (%eax),%al
 c60:	00 10                	add    %dl,(%eax)
 c62:	34 00                	xor    $0x0,%al
 c64:	03 08                	add    (%eax),%ecx
 c66:	3a 0b                	cmp    (%ebx),%cl
 c68:	3b 0b                	cmp    (%ebx),%ecx
 c6a:	49                   	dec    %ecx
 c6b:	13 02                	adc    (%edx),%eax
 c6d:	0a 00                	or     (%eax),%al
 c6f:	00 11                	add    %dl,(%ecx)
 c71:	0b 01                	or     (%ecx),%eax
 c73:	11 01                	adc    %eax,(%ecx)
 c75:	12 01                	adc    (%ecx),%al
 c77:	00 00                	add    %al,(%eax)
 c79:	12 0f                	adc    (%edi),%cl
 c7b:	00 0b                	add    %cl,(%ebx)
 c7d:	0b 49 13             	or     0x13(%ecx),%ecx
 c80:	00 00                	add    %al,(%eax)
 c82:	13 2e                	adc    (%esi),%ebp
 c84:	01 3f                	add    %edi,(%edi)
 c86:	0c 03                	or     $0x3,%al
 c88:	0e                   	push   %cs
 c89:	3a 0b                	cmp    (%ebx),%cl
 c8b:	3b 0b                	cmp    (%ebx),%ecx
 c8d:	27                   	daa    
 c8e:	0c 11                	or     $0x11,%al
 c90:	01 12                	add    %edx,(%edx)
 c92:	01 40 06             	add    %eax,0x6(%eax)
 c95:	01 13                	add    %edx,(%ebx)
 c97:	00 00                	add    %al,(%eax)
 c99:	14 05                	adc    $0x5,%al
 c9b:	00 03                	add    %al,(%ebx)
 c9d:	08 3a                	or     %bh,(%edx)
 c9f:	0b 3b                	or     (%ebx),%edi
 ca1:	0b 49 13             	or     0x13(%ecx),%ecx
 ca4:	02 0a                	add    (%edx),%cl
 ca6:	00 00                	add    %al,(%eax)
 ca8:	15 34 00 03 0e       	adc    $0xe030034,%eax
 cad:	3a 0b                	cmp    (%ebx),%cl
 caf:	3b 0b                	cmp    (%ebx),%ecx
 cb1:	49                   	dec    %ecx
 cb2:	13 3f                	adc    (%edi),%edi
 cb4:	0c 3c                	or     $0x3c,%al
 cb6:	0c 00                	or     $0x0,%al
 cb8:	00 16                	add    %dl,(%esi)
 cba:	34 00                	xor    $0x0,%al
 cbc:	03 08                	add    (%eax),%ecx
 cbe:	3a 0b                	cmp    (%ebx),%cl
 cc0:	3b 0b                	cmp    (%ebx),%ecx
 cc2:	49                   	dec    %ecx
 cc3:	13 3f                	adc    (%edi),%edi
 cc5:	0c 3c                	or     $0x3c,%al
 cc7:	0c 00                	or     $0x0,%al
 cc9:	00 17                	add    %dl,(%edi)
 ccb:	34 00                	xor    $0x0,%al
 ccd:	03 0e                	add    (%esi),%ecx
 ccf:	3a 0b                	cmp    (%ebx),%cl
 cd1:	3b 0b                	cmp    (%ebx),%ecx
 cd3:	49                   	dec    %ecx
 cd4:	13 3f                	adc    (%edi),%edi
 cd6:	0c 02                	or     $0x2,%al
 cd8:	0a 00                	or     (%eax),%al
	...

Disassembly of section .debug_line:

00000000 <.debug_line>:
   0:	eb 01                	jmp    3 <MULTIBOOT_HEADER_FLAGS>
   2:	00 00                	add    %al,(%eax)
   4:	02 00                	add    (%eax),%al
   6:	39 00                	cmp    %eax,(%eax)
   8:	00 00                	add    %al,(%eax)
   a:	01 01                	add    %eax,(%ecx)
   c:	fb                   	sti    
   d:	0e                   	push   %cs
   e:	0d 00 01 01 01       	or     $0x1010100,%eax
  13:	01 00                	add    %eax,(%eax)
  15:	00 00                	add    %al,(%eax)
  17:	01 00                	add    %eax,(%eax)
  19:	00 01                	add    %al,(%ecx)
  1b:	69 6e 63 6c 75 64 65 	imul   $0x6564756c,0x63(%esi),%ebp
  22:	00 00                	add    %al,(%eax)
  24:	69 64 74 2e 63 00 00 	imul   $0x63,0x2e(%esp,%esi,2),%esp
  2b:	00 
  2c:	00 73 63             	add    %dh,0x63(%ebx)
  2f:	68 65 64 2e 68       	push   $0x682e6465
  34:	00 01                	add    %al,(%ecx)
  36:	00 00                	add    %al,(%eax)
  38:	74 69                	je     a3 <MULTIBOOT_HEADER_FLAGS+0xa0>
  3a:	6d                   	insl   (%dx),%es:(%edi)
  3b:	65                   	gs
  3c:	2e                   	cs
  3d:	68 00 01 00 00       	push   $0x100
  42:	00 00                	add    %al,(%eax)
  44:	05 02 fc 3a 10       	add    $0x103afc02,%eax
  49:	00 03                	add    %al,(%ebx)
  4b:	0f 01 3c 03          	invlpg (%ebx,%eax,1)
  4f:	1a 2e                	sbb    (%esi),%ch
  51:	3c 03                	cmp    $0x3,%al
  53:	27                   	daa    
  54:	2e 84 9f 9f 9f 5a 00 	test   %bl,%cs:0x5a9f9f(%edi)
  5b:	02 04 02             	add    (%edx,%eax,1),%al
  5e:	06                   	push   %es
  5f:	90                   	nop
  60:	00 02                	add    %al,(%edx)
  62:	04 01                	add    $0x1,%al
  64:	08 2e                	or     %ch,(%esi)
  66:	06                   	push   %es
  67:	91                   	xchg   %eax,%ecx
  68:	00 02                	add    %al,(%edx)
  6a:	04 02                	add    $0x2,%al
  6c:	92                   	xchg   %eax,%edx
  6d:	00 02                	add    %al,(%edx)
  6f:	04 02                	add    $0x2,%al
  71:	02 3a                	add    (%edx),%bh
  73:	10 00                	adc    %al,(%eax)
  75:	02 04 01             	add    (%ecx,%eax,1),%al
  78:	06                   	push   %es
  79:	4a                   	dec    %edx
  7a:	06                   	push   %es
  7b:	94                   	xchg   %eax,%esp
  7c:	08 9f 08 bb 08 83    	or     %bl,-0x7cf744f8(%edi)
  82:	83 e5 e5             	and    $0xffffffe5,%ebp
  85:	7a 67                	jp     ee <MULTIBOOT_HEADER_FLAGS+0xeb>
  87:	00 02                	add    %al,(%edx)
  89:	04 02                	add    $0x2,%al
  8b:	06                   	push   %es
  8c:	08 12                	or     %dl,(%edx)
  8e:	00 02                	add    %al,(%edx)
  90:	04 01                	add    $0x1,%al
  92:	02 25 12 06 9f c9    	add    0xc99f0612,%ah
  98:	31 67 00             	xor    %esp,0x0(%edi)
  9b:	02 04 02             	add    (%edx,%eax,1),%al
  9e:	06                   	push   %es
  9f:	08 12                	or     %dl,(%edx)
  a1:	00 02                	add    %al,(%edx)
  a3:	04 01                	add    $0x1,%al
  a5:	02 25 12 06 9f c9    	add    0xc99f0612,%ah
  ab:	32 3f                	xor    (%edi),%bh
  ad:	31 67 00             	xor    %esp,0x0(%edi)
  b0:	02 04 02             	add    (%edx,%eax,1),%al
  b3:	06                   	push   %es
  b4:	08 12                	or     %dl,(%edx)
  b6:	00 02                	add    %al,(%edx)
  b8:	04 01                	add    $0x1,%al
  ba:	02 25 12 06 9f c9    	add    0xc99f0612,%ah
  c0:	31 67 00             	xor    %esp,0x0(%edi)
  c3:	02 04 02             	add    (%edx,%eax,1),%al
  c6:	06                   	push   %es
  c7:	08 12                	or     %dl,(%edx)
  c9:	00 02                	add    %al,(%edx)
  cb:	04 01                	add    $0x1,%al
  cd:	02 25 12 06 9f c9    	add    0xc99f0612,%ah
  d3:	31 67 00             	xor    %esp,0x0(%edi)
  d6:	02 04 02             	add    (%edx,%eax,1),%al
  d9:	06                   	push   %es
  da:	08 12                	or     %dl,(%edx)
  dc:	00 02                	add    %al,(%edx)
  de:	04 01                	add    $0x1,%al
  e0:	02 25 12 06 9f c9    	add    0xc99f0612,%ah
  e6:	31 67 00             	xor    %esp,0x0(%edi)
  e9:	02 04 02             	add    (%edx,%eax,1),%al
  ec:	06                   	push   %es
  ed:	08 12                	or     %dl,(%edx)
  ef:	00 02                	add    %al,(%edx)
  f1:	04 01                	add    $0x1,%al
  f3:	02 25 12 06 9f c9    	add    0xc99f0612,%ah
  f9:	31 67 00             	xor    %esp,0x0(%edi)
  fc:	02 04 02             	add    (%edx,%eax,1),%al
  ff:	06                   	push   %es
 100:	08 12                	or     %dl,(%edx)
 102:	00 02                	add    %al,(%edx)
 104:	04 01                	add    $0x1,%al
 106:	02 25 12 06 9f c9    	add    0xc99f0612,%ah
 10c:	31 67 00             	xor    %esp,0x0(%edi)
 10f:	02 04 02             	add    (%edx,%eax,1),%al
 112:	06                   	push   %es
 113:	08 12                	or     %dl,(%edx)
 115:	00 02                	add    %al,(%edx)
 117:	04 01                	add    $0x1,%al
 119:	02 25 12 06 9f c9    	add    0xc99f0612,%ah
 11f:	31 67 00             	xor    %esp,0x0(%edi)
 122:	02 04 02             	add    (%edx,%eax,1),%al
 125:	06                   	push   %es
 126:	08 12                	or     %dl,(%edx)
 128:	00 02                	add    %al,(%edx)
 12a:	04 01                	add    $0x1,%al
 12c:	02 25 12 06 9f c9    	add    0xc99f0612,%ah
 132:	31 67 00             	xor    %esp,0x0(%edi)
 135:	02 04 02             	add    (%edx,%eax,1),%al
 138:	06                   	push   %es
 139:	08 12                	or     %dl,(%edx)
 13b:	00 02                	add    %al,(%edx)
 13d:	04 01                	add    $0x1,%al
 13f:	02 25 12 06 9f c9    	add    0xc99f0612,%ah
 145:	31 67 00             	xor    %esp,0x0(%edi)
 148:	02 04 02             	add    (%edx,%eax,1),%al
 14b:	06                   	push   %es
 14c:	08 12                	or     %dl,(%edx)
 14e:	00 02                	add    %al,(%edx)
 150:	04 01                	add    $0x1,%al
 152:	02 25 12 06 9f c9    	add    0xc99f0612,%ah
 158:	31 67 00             	xor    %esp,0x0(%edi)
 15b:	02 04 02             	add    (%edx,%eax,1),%al
 15e:	06                   	push   %es
 15f:	08 12                	or     %dl,(%edx)
 161:	00 02                	add    %al,(%edx)
 163:	04 01                	add    $0x1,%al
 165:	02 25 12 06 9f c9    	add    0xc99f0612,%ah
 16b:	34 67                	xor    $0x67,%al
 16d:	00 02                	add    %al,(%edx)
 16f:	04 02                	add    $0x2,%al
 171:	06                   	push   %es
 172:	08 12                	or     %dl,(%edx)
 174:	00 02                	add    %al,(%edx)
 176:	04 01                	add    $0x1,%al
 178:	02 25 12 06 9f c9    	add    0xc99f0612,%ah
 17e:	31 67 00             	xor    %esp,0x0(%edi)
 181:	02 04 02             	add    (%edx,%eax,1),%al
 184:	06                   	push   %es
 185:	08 12                	or     %dl,(%edx)
 187:	00 02                	add    %al,(%edx)
 189:	04 01                	add    $0x1,%al
 18b:	02 25 12 06 9f c9    	add    0xc99f0612,%ah
 191:	31 67 00             	xor    %esp,0x0(%edi)
 194:	02 04 02             	add    (%edx,%eax,1),%al
 197:	06                   	push   %es
 198:	08 12                	or     %dl,(%edx)
 19a:	00 02                	add    %al,(%edx)
 19c:	04 01                	add    $0x1,%al
 19e:	02 25 12 06 9f c9    	add    0xc99f0612,%ah
 1a4:	31 67 00             	xor    %esp,0x0(%edi)
 1a7:	02 04 02             	add    (%edx,%eax,1),%al
 1aa:	06                   	push   %es
 1ab:	08 12                	or     %dl,(%edx)
 1ad:	00 02                	add    %al,(%edx)
 1af:	04 01                	add    $0x1,%al
 1b1:	02 25 12 06 9f c9    	add    0xc99f0612,%ah
 1b7:	32 67 00             	xor    0x0(%edi),%ah
 1ba:	02 04 02             	add    (%edx,%eax,1),%al
 1bd:	06                   	push   %es
 1be:	08 12                	or     %dl,(%edx)
 1c0:	00 02                	add    %al,(%edx)
 1c2:	04 01                	add    $0x1,%al
 1c4:	02 25 12 06 9f ca    	add    0xca9f0612,%ah
 1ca:	08 ad 59 33 83 00    	or     %ch,0x833359(%ebp)
 1d0:	02 04 02             	add    (%edx,%eax,1),%al
 1d3:	06                   	push   %es
 1d4:	08 12                	or     %dl,(%edx)
 1d6:	00 02                	add    %al,(%edx)
 1d8:	04 01                	add    $0x1,%al
 1da:	02 25 12 06 9f 08    	add    0x89f0612,%ah
 1e0:	67 e5 e5             	addr16 in $0xe5,%eax
 1e3:	c9                   	leave  
 1e4:	77 67                	ja     24d <MULTIBOOT_HEADER_FLAGS+0x24a>
 1e6:	67 02 50 13          	add    0x13(%bx,%si),%dl
 1ea:	02 02                	add    (%edx),%al
 1ec:	00 01                	add    %al,(%ecx)
 1ee:	01 b1 00 00 00 02    	add    %esi,0x2000000(%ecx)
 1f4:	00 4b 00             	add    %cl,0x0(%ebx)
 1f7:	00 00                	add    %al,(%eax)
 1f9:	01 01                	add    %eax,(%ecx)
 1fb:	fb                   	sti    
 1fc:	0e                   	push   %cs
 1fd:	0d 00 01 01 01       	or     $0x1010100,%eax
 202:	01 00                	add    %eax,(%eax)
 204:	00 00                	add    %al,(%eax)
 206:	01 00                	add    %eax,(%eax)
 208:	00 01                	add    %al,(%ecx)
 20a:	69 6e 63 6c 75 64 65 	imul   $0x6564756c,0x63(%esi),%ebp
 211:	00 00                	add    %al,(%eax)
 213:	6b 65 72 6e          	imul   $0x6e,0x72(%ebp),%esp
 217:	65                   	gs
 218:	6c                   	insb   (%dx),%es:(%edi)
 219:	5f                   	pop    %edi
 21a:	6d                   	insl   (%dx),%es:(%edi)
 21b:	61                   	popa   
 21c:	69 6e 2e 63 00 00 00 	imul   $0x63,0x2e(%esi),%ebp
 223:	00 73 63             	add    %dh,0x63(%ebx)
 226:	68 65 64 2e 68       	push   $0x682e6465
 22b:	00 01                	add    %al,(%ecx)
 22d:	00 00                	add    %al,(%eax)
 22f:	74 69                	je     29a <MULTIBOOT_HEADER_FLAGS+0x297>
 231:	6d                   	insl   (%dx),%es:(%edi)
 232:	65                   	gs
 233:	2e                   	cs
 234:	68 00 01 00 00       	push   $0x100
 239:	70 61                	jo     29c <MULTIBOOT_HEADER_FLAGS+0x299>
 23b:	67                   	addr16
 23c:	65                   	gs
 23d:	2e                   	cs
 23e:	68 00 01 00 00       	push   $0x100
 243:	00 00                	add    %al,(%eax)
 245:	05 02 e0 42 10       	add    $0x1042e002,%eax
 24a:	00 03                	add    %al,(%ebx)
 24c:	0e                   	push   %cs
 24d:	01 75 59             	add    %esi,0x59(%ebp)
 250:	59                   	pop    %ecx
 251:	59                   	pop    %ecx
 252:	59                   	pop    %ecx
 253:	59                   	pop    %ecx
 254:	e5 03                	in     $0x3,%eax
 256:	0d e4 08 ad 6c       	or     $0x6cad08e4,%eax
 25b:	3d 03 09 ac 1d       	cmp    $0x1dac0903,%eax
 260:	08 13                	or     %dl,(%ebx)
 262:	83 00 02             	addl   $0x2,(%eax)
 265:	04 01                	add    $0x1,%al
 267:	06                   	push   %es
 268:	ba 00 02 04 01       	mov    $0x1040200,%edx
 26d:	06                   	push   %es
 26e:	9f                   	lahf   
 26f:	31 5e 1d             	xor    %ebx,0x1d(%esi)
 272:	08 13                	or     %dl,(%ebx)
 274:	83 00 02             	addl   $0x2,(%eax)
 277:	04 01                	add    $0x1,%al
 279:	06                   	push   %es
 27a:	ba 00 02 04 01       	mov    $0x1040200,%edx
 27f:	06                   	push   %es
 280:	9f                   	lahf   
 281:	31 5e 1d             	xor    %ebx,0x1d(%esi)
 284:	08 13                	or     %dl,(%ebx)
 286:	83 00 02             	addl   $0x2,(%eax)
 289:	04 01                	add    $0x1,%al
 28b:	06                   	push   %es
 28c:	ba 00 02 04 01       	mov    $0x1040200,%edx
 291:	06                   	push   %es
 292:	9f                   	lahf   
 293:	31 75 4b             	xor    %esi,0x4b(%ebp)
 296:	2f                   	das    
 297:	00 02                	add    %al,(%edx)
 299:	04 01                	add    $0x1,%al
 29b:	08 9d ae e6 02 06    	or     %bl,0x602e6ae(%ebp)
 2a1:	00 01                	add    %al,(%ecx)
 2a3:	01 6f 00             	add    %ebp,0x0(%edi)
 2a6:	00 00                	add    %al,(%eax)
 2a8:	02 00                	add    (%eax),%al
 2aa:	2f                   	das    
 2ab:	00 00                	add    %al,(%eax)
 2ad:	00 01                	add    %al,(%ecx)
 2af:	01 fb                	add    %edi,%ebx
 2b1:	0e                   	push   %cs
 2b2:	0d 00 01 01 01       	or     $0x1010100,%eax
 2b7:	01 00                	add    %eax,(%eax)
 2b9:	00 00                	add    %al,(%eax)
 2bb:	01 00                	add    %eax,(%eax)
 2bd:	00 01                	add    %al,(%ecx)
 2bf:	69 6e 63 6c 75 64 65 	imul   $0x6564756c,0x63(%esi),%ebp
 2c6:	00 00                	add    %al,(%eax)
 2c8:	67                   	addr16
 2c9:	64                   	fs
 2ca:	74 2e                	je     2fa <MULTIBOOT_HEADER_FLAGS+0x2f7>
 2cc:	63 00                	arpl   %ax,(%eax)
 2ce:	00 00                	add    %al,(%eax)
 2d0:	00 73 63             	add    %dh,0x63(%ebx)
 2d3:	68 65 64 2e 68       	push   $0x682e6465
 2d8:	00 01                	add    %al,(%ecx)
 2da:	00 00                	add    %al,(%eax)
 2dc:	00 00                	add    %al,(%eax)
 2de:	05 02 38 44 10       	add    $0x10443802,%eax
 2e3:	00 03                	add    %al,(%ebx)
 2e5:	0e                   	push   %cs
 2e6:	01 67 83             	add    %esp,-0x7d(%edi)
 2e9:	9f                   	lahf   
 2ea:	9f                   	lahf   
 2eb:	9f                   	lahf   
 2ec:	08 67 08             	or     %ah,0x8(%edi)
 2ef:	59                   	pop    %ecx
 2f0:	08 59 9f             	or     %bl,-0x61(%ecx)
 2f3:	9f                   	lahf   
 2f4:	02 32                	add    (%edx),%dh
 2f6:	13 02                	adc    (%edx),%eax
 2f8:	32 14 9f             	xor    (%edi,%ebx,4),%dl
 2fb:	9f                   	lahf   
 2fc:	9f                   	lahf   
 2fd:	08 67 08             	or     %ah,0x8(%edi)
 300:	59                   	pop    %ecx
 301:	08 59 9f             	or     %bl,-0x61(%ecx)
 304:	9f                   	lahf   
 305:	02 32                	add    (%edx),%dh
 307:	13 02                	adc    (%edx),%eax
 309:	32 14 02             	xor    (%edx,%eax,1),%dl
 30c:	d9 01                	flds   (%ecx)
 30e:	13 83 83 76 02 05    	adc    0x5027683(%ebx),%eax
 314:	00 01                	add    %al,(%ecx)
 316:	01 ca                	add    %ecx,%edx
 318:	00 00                	add    %al,(%eax)
 31a:	00 02                	add    %al,(%edx)
 31c:	00 30                	add    %dh,(%eax)
 31e:	00 00                	add    %al,(%eax)
 320:	00 01                	add    %al,(%ecx)
 322:	01 fb                	add    %edi,%ebx
 324:	0e                   	push   %cs
 325:	0d 00 01 01 01       	or     $0x1010100,%eax
 32a:	01 00                	add    %eax,(%eax)
 32c:	00 00                	add    %al,(%eax)
 32e:	01 00                	add    %eax,(%eax)
 330:	00 01                	add    %al,(%ecx)
 332:	69 6e 63 6c 75 64 65 	imul   $0x6564756c,0x63(%esi),%ebp
 339:	00 00                	add    %al,(%eax)
 33b:	70 61                	jo     39e <MULTIBOOT_HEADER_FLAGS+0x39b>
 33d:	67 65 2e 63 00       	gs arpl %ax,%cs:%gs:(%bx,%si)
 342:	00 00                	add    %al,(%eax)
 344:	00 73 63             	add    %dh,0x63(%ebx)
 347:	68 65 64 2e 68       	push   $0x682e6465
 34c:	00 01                	add    %al,(%ecx)
 34e:	00 00                	add    %al,(%eax)
 350:	00 00                	add    %al,(%eax)
 352:	05 02 f0 46 10       	add    $0x1046f002,%eax
 357:	00 03                	add    %al,(%ebx)
 359:	17                   	pop    %ss
 35a:	01 67 9f             	add    %esp,-0x61(%edi)
 35d:	9f                   	lahf   
 35e:	03 09                	add    (%ecx),%ecx
 360:	d6                   	(bad)  
 361:	9f                   	lahf   
 362:	9f                   	lahf   
 363:	75 92                	jne    2f7 <MULTIBOOT_HEADER_FLAGS+0x2f4>
 365:	02 23                	add    (%ebx),%ah
 367:	13 00                	adc    (%eax),%eax
 369:	02 04 02             	add    (%edx,%eax,1),%al
 36c:	92                   	xchg   %eax,%edx
 36d:	00 02                	add    %al,(%edx)
 36f:	04 02                	add    $0x2,%al
 371:	08 9f 00 02 04 02    	or     %bl,0x2040200(%edi)
 377:	71 00                	jno    379 <MULTIBOOT_HEADER_FLAGS+0x376>
 379:	02 04 01             	add    (%ecx,%eax,1),%al
 37c:	06                   	push   %es
 37d:	4a                   	dec    %edx
 37e:	06                   	push   %es
 37f:	8d 00                	lea    (%eax),%eax
 381:	02 04 01             	add    (%ecx,%eax,1),%al
 384:	06                   	push   %es
 385:	4a                   	dec    %edx
 386:	06                   	push   %es
 387:	03 09                	add    (%ecx),%ecx
 389:	66 83 bd 00 02 04 02 	cmpw   $0xffffff92,0x2040200(%ebp)
 390:	92 
 391:	00 02                	add    %al,(%edx)
 393:	04 02                	add    $0x2,%al
 395:	c6 00 02             	movb   $0x2,(%eax)
 398:	04 01                	add    $0x1,%al
 39a:	06                   	push   %es
 39b:	4a                   	dec    %edx
 39c:	06                   	push   %es
 39d:	94                   	xchg   %eax,%esp
 39e:	30 3e                	xor    %bh,(%esi)
 3a0:	3d bb 31 67 00       	cmp    $0x6731bb,%eax
 3a5:	02 04 02             	add    (%edx,%eax,1),%al
 3a8:	06                   	push   %es
 3a9:	08 12                	or     %dl,(%edx)
 3ab:	00 02                	add    %al,(%edx)
 3ad:	04 01                	add    $0x1,%al
 3af:	02 25 12 06 9f c9    	add    0xc99f0612,%ah
 3b5:	08 75 30             	or     %dh,0x30(%ebp)
 3b8:	75 08                	jne    3c2 <MULTIBOOT_HEADER_FLAGS+0x3bf>
 3ba:	ad                   	lods   %ds:(%esi),%eax
 3bb:	83 bb f3 83 68 67 75 	cmpl   $0x75,0x676883f3(%ebx)
 3c2:	30 f3                	xor    %dh,%bl
 3c4:	7f 00                	jg     3c6 <MULTIBOOT_HEADER_FLAGS+0x3c3>
 3c6:	02 04 01             	add    (%ecx,%eax,1),%al
 3c9:	06                   	push   %es
 3ca:	4a                   	dec    %edx
 3cb:	06                   	push   %es
 3cc:	95                   	xchg   %eax,%ebp
 3cd:	bb 30 67 91 00       	mov    $0x916730,%ebx
 3d2:	02 04 01             	add    (%ecx,%eax,1),%al
 3d5:	06                   	push   %es
 3d6:	90                   	nop
 3d7:	06                   	push   %es
 3d8:	92                   	xchg   %eax,%edx
 3d9:	02 26                	add    (%esi),%ah
 3db:	14 b7                	adc    $0xb7,%al
 3dd:	34 d1                	xor    $0xd1,%al
 3df:	26 02 02             	add    %es:(%edx),%al
 3e2:	00 01                	add    %al,(%ecx)
 3e4:	01 43 01             	add    %eax,0x1(%ebx)
 3e7:	00 00                	add    %al,(%eax)
 3e9:	02 00                	add    (%eax),%al
 3eb:	3d 00 00 00 01       	cmp    $0x1000000,%eax
 3f0:	01 fb                	add    %edi,%ebx
 3f2:	0e                   	push   %cs
 3f3:	0d 00 01 01 01       	or     $0x1010100,%eax
 3f8:	01 00                	add    %eax,(%eax)
 3fa:	00 00                	add    %al,(%eax)
 3fc:	01 00                	add    %eax,(%eax)
 3fe:	00 01                	add    %al,(%ecx)
 400:	69 6e 63 6c 75 64 65 	imul   $0x6564756c,0x63(%esi),%ebp
 407:	00 00                	add    %al,(%eax)
 409:	6b 6c 69 62 63       	imul   $0x63,0x62(%ecx,%ebp,2),%ebp
 40e:	2e 63 00             	arpl   %ax,%cs:(%eax)
 411:	00 00                	add    %al,(%eax)
 413:	00 73 74             	add    %dh,0x74(%ebx)
 416:	64                   	fs
 417:	61                   	popa   
 418:	72 67                	jb     481 <MULTIBOOT_HEADER_FLAGS+0x47e>
 41a:	2e                   	cs
 41b:	68 00 01 00 00       	push   $0x100
 420:	6b 6c 69 62 63       	imul   $0x63,0x62(%ecx,%ebp,2),%ebp
 425:	2e                   	cs
 426:	68 00 01 00 00       	push   $0x100
 42b:	00 00                	add    %al,(%eax)
 42d:	05 02 58 49 10       	add    $0x10495802,%eax
 432:	00 17                	add    %dl,(%edi)
 434:	75 68                	jne    49e <MULTIBOOT_HEADER_FLAGS+0x49b>
 436:	67 91                	addr16 xchg %eax,%ecx
 438:	84 00                	test   %al,(%eax)
 43a:	02 04 01             	add    (%ecx,%eax,1),%al
 43d:	06                   	push   %es
 43e:	66                   	data16
 43f:	00 02                	add    %al,(%edx)
 441:	04 02                	add    $0x2,%al
 443:	74 00                	je     445 <MULTIBOOT_HEADER_FLAGS+0x442>
 445:	02 04 03             	add    (%ebx,%eax,1),%al
 448:	58                   	pop    %eax
 449:	00 02                	add    %al,(%edx)
 44b:	04 03                	add    $0x3,%al
 44d:	06                   	push   %es
 44e:	59                   	pop    %ecx
 44f:	00 02                	add    %al,(%edx)
 451:	04 03                	add    $0x3,%al
 453:	76 30                	jbe    485 <MULTIBOOT_HEADER_FLAGS+0x482>
 455:	02 2f                	add    (%edi),%ch
 457:	13 00                	adc    (%eax),%eax
 459:	02 04 01             	add    (%ecx,%eax,1),%al
 45c:	08 71 6b             	or     %dh,0x6b(%ecx)
 45f:	4d                   	dec    %ebp
 460:	00 02                	add    %al,(%edx)
 462:	04 02                	add    $0x2,%al
 464:	92                   	xchg   %eax,%edx
 465:	00 02                	add    %al,(%edx)
 467:	04 02                	add    $0x2,%al
 469:	bb 00 02 04 02       	mov    $0x2040200,%ebx
 46e:	08 13                	or     %dl,(%ebx)
 470:	00 02                	add    %al,(%edx)
 472:	04 02                	add    $0x2,%al
 474:	b6 00                	mov    $0x0,%dh
 476:	02 04 01             	add    (%ecx,%eax,1),%al
 479:	06                   	push   %es
 47a:	82                   	(bad)  
 47b:	06                   	push   %es
 47c:	88 3d 68 75 67 92    	mov    %bh,0x92677568
 482:	08 22                	or     %ah,(%edx)
 484:	08 3d 68 f6 03 77    	or     %bh,0x7703f668
 48a:	d6                   	(bad)  
 48b:	00 02                	add    %al,(%edx)
 48d:	04 01                	add    $0x1,%al
 48f:	06                   	push   %es
 490:	82                   	(bad)  
 491:	06                   	push   %es
 492:	03 0c 66             	add    (%esi,%eiz,2),%ecx
 495:	91                   	xchg   %eax,%ecx
 496:	3d 68 3d 30 00       	cmp    $0x303d68,%eax
 49b:	02 04 01             	add    (%ecx,%eax,1),%al
 49e:	08 2c e8             	or     %ch,(%eax,%ebp,8)
 4a1:	59                   	pop    %ecx
 4a2:	30 67 d7             	xor    %ah,-0x29(%edi)
 4a5:	92                   	xchg   %eax,%edx
 4a6:	08 9f 67 59 7d 00    	or     %bl,0x7d5967(%edi)
 4ac:	02 04 01             	add    (%ecx,%eax,1),%al
 4af:	06                   	push   %es
 4b0:	4a                   	dec    %edx
 4b1:	06                   	push   %es
 4b2:	89 3d 30 67 76 5a    	mov    %edi,0x5a766730
 4b8:	d8 4b 08             	fmuls  0x8(%ebx)
 4bb:	af                   	scas   %es:(%edi),%eax
 4bc:	d7                   	xlat   %ds:(%ebx)
 4bd:	08 4b 00             	or     %cl,0x0(%ebx)
 4c0:	02 04 01             	add    (%ecx,%eax,1),%al
 4c3:	06                   	push   %es
 4c4:	20 06                	and    %al,(%esi)
 4c6:	08 59 5a             	or     %bl,0x5a(%ecx)
 4c9:	d7                   	xlat   %ds:(%ebx)
 4ca:	30 08                	xor    %cl,(%eax)
 4cc:	21 00                	and    %eax,(%eax)
 4ce:	02 04 01             	add    (%ecx,%eax,1),%al
 4d1:	47                   	inc    %edi
 4d2:	a3 30 d7 08 bb       	mov    %eax,0xbb08d730
 4d7:	00 02                	add    %al,(%edx)
 4d9:	04 02                	add    $0x2,%al
 4db:	06                   	push   %es
 4dc:	2e 00 02             	add    %al,%cs:(%edx)
 4df:	04 01                	add    $0x1,%al
 4e1:	4a                   	dec    %edx
 4e2:	06                   	push   %es
 4e3:	c9                   	leave  
 4e4:	30 78 03             	xor    %bh,0x3(%eax)
 4e7:	62 08                	bound  %ecx,(%eax)
 4e9:	20 00                	and    %al,(%eax)
 4eb:	02 04 01             	add    (%ecx,%eax,1),%al
 4ee:	06                   	push   %es
 4ef:	4a                   	dec    %edx
 4f0:	06                   	push   %es
 4f1:	03 20                	add    (%eax),%esp
 4f3:	d6                   	(bad)  
 4f4:	91                   	xchg   %eax,%ecx
 4f5:	30 69 67             	xor    %ch,0x67(%ecx)
 4f8:	08 84 31 83 08 30 67 	or     %al,0x67300883(%ecx,%esi,1)
 4ff:	08 84 59 78 75 91 08 	or     %al,0x8917578(%ecx,%ebx,2)
 506:	13 00                	adc    (%eax),%eax
 508:	02 04 01             	add    (%ecx,%eax,1),%al
 50b:	06                   	push   %es
 50c:	20 06                	and    %al,(%esi)
 50e:	02 29                	add    (%ecx),%ch
 510:	13 69 67             	adc    0x67(%ecx),%ebp
 513:	00 02                	add    %al,(%edx)
 515:	04 02                	add    $0x2,%al
 517:	06                   	push   %es
 518:	f2 00 02             	repnz add %al,(%edx)
 51b:	04 01                	add    $0x1,%al
 51d:	02 25 12 06 9f 00    	add    0x9f0612,%ah
 523:	02 04 01             	add    (%ecx,%eax,1),%al
 526:	c9                   	leave  
 527:	02 02                	add    (%edx),%al
 529:	00 01                	add    %al,(%ecx)
 52b:	01 91 00 00 00 02    	add    %edx,0x2000000(%ecx)
 531:	00 1d 00 00 00 01    	add    %bl,0x1000000
 537:	01 fb                	add    %edi,%ebx
 539:	0e                   	push   %cs
 53a:	0d 00 01 01 01       	or     $0x1010100,%eax
 53f:	01 00                	add    %eax,(%eax)
 541:	00 00                	add    %al,(%eax)
 543:	01 00                	add    %eax,(%eax)
 545:	00 01                	add    %al,(%ecx)
 547:	00 74 69 6d          	add    %dh,0x6d(%ecx,%ebp,2)
 54b:	65 2e 63 00          	gs arpl %ax,%cs:%gs:(%eax)
 54f:	00 00                	add    %al,(%eax)
 551:	00 00                	add    %al,(%eax)
 553:	00 05 02 7c 4d 10    	add    %al,0x104d7c02
 559:	00 03                	add    %al,(%ebx)
 55b:	2b 01                	sub    (%ecx),%eax
 55d:	75 02                	jne    561 <MULTIBOOT_HEADER_FLAGS+0x55e>
 55f:	2f                   	das    
 560:	13 02                	adc    (%edx),%eax
 562:	2f                   	das    
 563:	13 02                	adc    (%edx),%eax
 565:	2f                   	das    
 566:	13 02                	adc    (%edx),%eax
 568:	2f                   	das    
 569:	13 02                	adc    (%edx),%eax
 56b:	2f                   	das    
 56c:	13 02                	adc    (%edx),%eax
 56e:	2f                   	das    
 56f:	13 02                	adc    (%edx),%eax
 571:	25 13 02 25 13       	and    $0x13250213,%eax
 576:	02 25 13 02 25 13    	add    0x13250213,%ah
 57c:	02 25 13 02 25 13    	add    0x13250213,%ah
 582:	00 02                	add    %al,(%edx)
 584:	04 02                	add    $0x2,%al
 586:	06                   	push   %es
 587:	08 66 00             	or     %ah,0x0(%esi)
 58a:	02 04 01             	add    (%ecx,%eax,1),%al
 58d:	02 6d 12             	add    0x12(%ebp),%ch
 590:	06                   	push   %es
 591:	67 08 ad c9 bb       	or     %ch,-0x4437(%di)
 596:	08 4b 08             	or     %cl,0x8(%ebx)
 599:	ad                   	lods   %ds:(%esi),%eax
 59a:	6a 83                	push   $0xffffff83
 59c:	bb 02 79 13 00       	mov    $0x137902,%ebx
 5a1:	02 04 01             	add    (%ecx,%eax,1),%al
 5a4:	06                   	push   %es
 5a5:	f2 00 02             	repnz add %al,(%edx)
 5a8:	04 02                	add    $0x2,%al
 5aa:	08 20                	or     %ah,(%eax)
 5ac:	06                   	push   %es
 5ad:	02 33                	add    (%ebx),%dh
 5af:	13 e5                	adc    %ebp,%esp
 5b1:	08 ad 08 9f 08 9f    	or     %ch,-0x60f760f8(%ebp)
 5b7:	02 23                	add    (%ebx),%ah
 5b9:	13 08                	adc    (%eax),%ecx
 5bb:	3d 02 07 00 01       	cmp    $0x1000702,%eax
 5c0:	01 4d 00             	add    %ecx,0x0(%ebp)
 5c3:	00 00                	add    %al,(%eax)
 5c5:	02 00                	add    (%eax),%al
 5c7:	31 00                	xor    %eax,(%eax)
 5c9:	00 00                	add    %al,(%eax)
 5cb:	01 01                	add    %eax,(%ecx)
 5cd:	fb                   	sti    
 5ce:	0e                   	push   %cs
 5cf:	0d 00 01 01 01       	or     $0x1010100,%eax
 5d4:	01 00                	add    %eax,(%eax)
 5d6:	00 00                	add    %al,(%eax)
 5d8:	01 00                	add    %eax,(%eax)
 5da:	00 01                	add    %al,(%ecx)
 5dc:	69 6e 63 6c 75 64 65 	imul   $0x6564756c,0x63(%esi),%ebp
 5e3:	00 00                	add    %al,(%eax)
 5e5:	73 63                	jae    64a <MULTIBOOT_HEADER_FLAGS+0x647>
 5e7:	68 65 64 2e 63       	push   $0x632e6465
 5ec:	00 00                	add    %al,(%eax)
 5ee:	00 00                	add    %al,(%eax)
 5f0:	73 63                	jae    655 <MULTIBOOT_HEADER_FLAGS+0x652>
 5f2:	68 65 64 2e 68       	push   $0x682e6465
 5f7:	00 01                	add    %al,(%ecx)
 5f9:	00 00                	add    %al,(%eax)
 5fb:	00 00                	add    %al,(%eax)
 5fd:	05 02 f4 51 10       	add    $0x1051f402,%eax
 602:	00 15 68 83 83 08    	add    %dl,0x8838368
 608:	f3 bc 08 5c bc 02    	repz mov $0x2bc5c08,%esp
 60e:	02 00                	add    (%eax),%al
 610:	01 01                	add    %eax,(%ecx)
 612:	67 00 00             	add    %al,(%bx,%si)
 615:	00 02                	add    %al,(%edx)
 617:	00 2e                	add    %ch,(%esi)
 619:	00 00                	add    %al,(%eax)
 61b:	00 01                	add    %al,(%ecx)
 61d:	01 fb                	add    %edi,%ebx
 61f:	0e                   	push   %cs
 620:	0d 00 01 01 01       	or     $0x1010100,%eax
 625:	01 00                	add    %eax,(%eax)
 627:	00 00                	add    %al,(%eax)
 629:	01 00                	add    %eax,(%eax)
 62b:	00 01                	add    %al,(%ecx)
 62d:	69 6e 63 6c 75 64 65 	imul   $0x6564756c,0x63(%esi),%ebp
 634:	00 00                	add    %al,(%eax)
 636:	68 64 2e 63 00       	push   $0x632e64
 63b:	00 00                	add    %al,(%eax)
 63d:	00 73 63             	add    %dh,0x63(%ebx)
 640:	68 65 64 2e 68       	push   $0x682e6465
 645:	00 01                	add    %al,(%ecx)
 647:	00 00                	add    %al,(%eax)
 649:	00 00                	add    %al,(%eax)
 64b:	05 02 5c 52 10       	add    $0x10525c02,%eax
 650:	00 03                	add    %al,(%ebx)
 652:	1f                   	pop    %ds
 653:	01 75 02             	add    %esi,0x2(%ebp)
 656:	7a 13                	jp     66b <MULTIBOOT_HEADER_FLAGS+0x668>
 658:	02 7b 13             	add    0x13(%ebx),%bh
 65b:	69 75 08 13 4b 30 08 	imul   $0x8304b13,0x8(%ebp),%esi
 662:	9f                   	lahf   
 663:	00 02                	add    %al,(%edx)
 665:	04 01                	add    $0x1,%al
 667:	d3 02                	roll   %cl,(%edx)
 669:	22 15 22 00 02 04    	and    0x4020022,%dl
 66f:	01 06                	add    %eax,(%esi)
 671:	ac                   	lods   %ds:(%esi),%al
 672:	06                   	push   %es
 673:	9f                   	lahf   
 674:	02 7f 13             	add    0x13(%edi),%bh
 677:	59                   	pop    %ecx
 678:	02 06                	add    (%esi),%al
 67a:	00 01                	add    %al,(%ecx)
 67c:	01 55 00             	add    %edx,0x0(%ebp)
 67f:	00 00                	add    %al,(%eax)
 681:	02 00                	add    (%eax),%al
 683:	37                   	aaa    
 684:	00 00                	add    %al,(%eax)
 686:	00 01                	add    %al,(%ecx)
 688:	01 fb                	add    %edi,%ebx
 68a:	0e                   	push   %cs
 68b:	0d 00 01 01 01       	or     $0x1010100,%eax
 690:	01 00                	add    %eax,(%eax)
 692:	00 00                	add    %al,(%eax)
 694:	01 00                	add    %eax,(%eax)
 696:	00 01                	add    %al,(%ecx)
 698:	69 6e 63 6c 75 64 65 	imul   $0x6564756c,0x63(%esi),%ebp
 69f:	00 00                	add    %al,(%eax)
 6a1:	6b 65 79 62          	imul   $0x62,0x79(%ebp),%esp
 6a5:	6f                   	outsl  %ds:(%esi),(%dx)
 6a6:	61                   	popa   
 6a7:	72 64                	jb     70d <MULTIBOOT_HEADER_FLAGS+0x70a>
 6a9:	2e 63 00             	arpl   %ax,%cs:(%eax)
 6ac:	00 00                	add    %al,(%eax)
 6ae:	00 6b 65             	add    %ch,0x65(%ebx)
 6b1:	79 62                	jns    715 <MULTIBOOT_HEADER_FLAGS+0x712>
 6b3:	6f                   	outsl  %ds:(%esi),(%dx)
 6b4:	61                   	popa   
 6b5:	72 64                	jb     71b <MULTIBOOT_HEADER_FLAGS+0x718>
 6b7:	2e                   	cs
 6b8:	68 00 01 00 00       	push   $0x100
 6bd:	00 00                	add    %al,(%eax)
 6bf:	05 02 68 54 10       	add    $0x10546802,%eax
 6c4:	00 03                	add    %al,(%ebx)
 6c6:	1a 01                	sbb    (%ecx),%al
 6c8:	75 08                	jne    6d2 <MULTIBOOT_HEADER_FLAGS+0x6cf>
 6ca:	d7                   	xlat   %ds:(%ebx)
 6cb:	bc 02 2d 13 ca       	mov    $0xca132d02,%esp
 6d0:	e5 02                	in     $0x2,%eax
 6d2:	06                   	push   %es
 6d3:	00 01                	add    %al,(%ecx)
 6d5:	01 c5                	add    %eax,%ebp
 6d7:	00 00                	add    %al,(%eax)
 6d9:	00 02                	add    %al,(%edx)
 6db:	00 4b 00             	add    %cl,0x0(%ebx)
 6de:	00 00                	add    %al,(%eax)
 6e0:	01 01                	add    %eax,(%ecx)
 6e2:	fb                   	sti    
 6e3:	0e                   	push   %cs
 6e4:	0d 00 01 01 01       	or     $0x1010100,%eax
 6e9:	01 00                	add    %eax,(%eax)
 6eb:	00 00                	add    %al,(%eax)
 6ed:	01 00                	add    %eax,(%eax)
 6ef:	00 01                	add    %al,(%ecx)
 6f1:	69 6e 63 6c 75 64 65 	imul   $0x6564756c,0x63(%esi),%ebp
 6f8:	00 00                	add    %al,(%eax)
 6fa:	73 68                	jae    764 <MULTIBOOT_HEADER_FLAGS+0x761>
 6fc:	65                   	gs
 6fd:	6c                   	insb   (%dx),%es:(%edi)
 6fe:	6c                   	insb   (%dx),%es:(%edi)
 6ff:	2e 63 00             	arpl   %ax,%cs:(%eax)
 702:	00 00                	add    %al,(%eax)
 704:	00 6b 65             	add    %ch,0x65(%ebx)
 707:	79 62                	jns    76b <MULTIBOOT_HEADER_FLAGS+0x768>
 709:	6f                   	outsl  %ds:(%esi),(%dx)
 70a:	61                   	popa   
 70b:	72 64                	jb     771 <MULTIBOOT_HEADER_FLAGS+0x76e>
 70d:	2e                   	cs
 70e:	68 00 01 00 00       	push   $0x100
 713:	73 63                	jae    778 <MULTIBOOT_HEADER_FLAGS+0x775>
 715:	68 65 64 2e 68       	push   $0x682e6465
 71a:	00 01                	add    %al,(%ecx)
 71c:	00 00                	add    %al,(%eax)
 71e:	6b 65 79 6d          	imul   $0x6d,0x79(%ebp),%esp
 722:	61                   	popa   
 723:	70 2e                	jo     753 <MULTIBOOT_HEADER_FLAGS+0x750>
 725:	68 00 01 00 00       	push   $0x100
 72a:	00 00                	add    %al,(%eax)
 72c:	05 02 ec 54 10       	add    $0x1054ec02,%eax
 731:	00 03                	add    %al,(%ebx)
 733:	24 01                	and    $0x1,%al
 735:	03 c2                	add    %edx,%eax
 737:	00 90 03 43 4a f4    	add    %dl,-0xbb5bcfd(%eax)
 73d:	02 29                	add    (%ecx),%ch
 73f:	13 00                	adc    (%eax),%eax
 741:	02 04 02             	add    (%edx,%eax,1),%al
 744:	06                   	push   %es
 745:	08 12                	or     %dl,(%edx)
 747:	00 02                	add    %al,(%edx)
 749:	04 01                	add    $0x1,%al
 74b:	02 25 12 06 9f c9    	add    0xc99f0612,%ah
 751:	bc bb a0 e5 ca       	mov    $0xcae5a0bb,%esp
 756:	ca e5 02             	lret   $0x2e5
 759:	23 13                	and    (%ebx),%edx
 75b:	c9                   	leave  
 75c:	08 3d a0 03 28 08    	or     %bh,0x82803a0
 762:	20 03                	and    %al,(%ebx)
 764:	58                   	pop    %eax
 765:	58                   	pop    %eax
 766:	03 28                	add    (%eax),%ebp
 768:	08 20                	or     %ah,(%eax)
 76a:	03 5c 58 08          	add    0x8(%eax,%ebx,2),%ebx
 76e:	83 c9 e5             	or     $0xffffffe5,%ecx
 771:	30 75 c9             	xor    %dh,-0x37(%ebp)
 774:	08 83 e5 30 03 19    	or     %al,0x190330e5(%ebx)
 77a:	c8 03 6c 9e          	enter  $0x6c03,$0x9e
 77e:	08 94 c9 31 c9 31 c9 	or     %dl,-0x36ce36cf(%ecx,%ecx,8)
 785:	30 cd                	xor    %cl,%ch
 787:	a1 91 02 d9 01       	mov    0x1d90291,%eax
 78c:	13 c9                	adc    %ecx,%ecx
 78e:	93                   	xchg   %eax,%ebx
 78f:	7b 84                	jnp    715 <MULTIBOOT_HEADER_FLAGS+0x712>
 791:	91                   	xchg   %eax,%ecx
 792:	f3 75 75             	repz jne 80a <idt_len+0xa>
 795:	08 77 08             	or     %dh,0x8(%edi)
 798:	64                   	fs
 799:	f5                   	cmc    
 79a:	02 08                	add    (%eax),%cl
 79c:	00 01                	add    %al,(%ecx)
 79e:	01                   	.byte 0x1

Disassembly of section .debug_frame:

00000000 <.debug_frame>:
   0:	10 00                	adc    %al,(%eax)
   2:	00 00                	add    %al,(%eax)
   4:	ff                   	(bad)  
   5:	ff                   	(bad)  
   6:	ff                   	(bad)  
   7:	ff 01                	incl   (%ecx)
   9:	00 01                	add    %al,(%ecx)
   b:	7c 08                	jl     15 <MULTIBOOT_HEADER_FLAGS+0x12>
   d:	0c 04                	or     $0x4,%al
   f:	04 88                	add    $0x88,%al
  11:	01 00                	add    %eax,(%eax)
  13:	00 1c 00             	add    %bl,(%eax,%eax,1)
  16:	00 00                	add    %al,(%eax)
  18:	00 00                	add    %al,(%eax)
  1a:	00 00                	add    %al,(%eax)
  1c:	fc                   	cld    
  1d:	3a 10                	cmp    (%eax),%dl
  1f:	00 05 00 00 00 41    	add    %al,0x41000000
  25:	0e                   	push   %cs
  26:	08 42 85             	or     %al,-0x7b(%edx)
  29:	02 0d 05 41 c5 0c    	add    0xcc54105,%cl
  2f:	04 04                	add    $0x4,%al
  31:	00 00                	add    %al,(%eax)
  33:	00 1c 00             	add    %bl,(%eax,%eax,1)
  36:	00 00                	add    %al,(%eax)
  38:	00 00                	add    %al,(%eax)
  3a:	00 00                	add    %al,(%eax)
  3c:	01 3b                	add    %edi,(%ebx)
  3e:	10 00                	adc    %al,(%eax)
  40:	05 00 00 00 41       	add    $0x41000000,%eax
  45:	0e                   	push   %cs
  46:	08 42 85             	or     %al,-0x7b(%edx)
  49:	02 0d 05 41 c5 0c    	add    0xcc54105,%cl
  4f:	04 04                	add    $0x4,%al
  51:	00 00                	add    %al,(%eax)
  53:	00 24 00             	add    %ah,(%eax,%eax,1)
  56:	00 00                	add    %al,(%eax)
  58:	00 00                	add    %al,(%eax)
  5a:	00 00                	add    %al,(%eax)
  5c:	06                   	push   %es
  5d:	3b 10                	cmp    (%eax),%edx
  5f:	00 1e                	add    %bl,(%esi)
  61:	01 00                	add    %eax,(%eax)
  63:	00 41 0e             	add    %al,0xe(%ecx)
  66:	08 42 85             	or     %al,-0x7b(%edx)
  69:	02 0d 05 63 83 04    	add    0x4836305,%cl
  6f:	86 03                	xchg   %al,(%ebx)
  71:	02 f5                	add    %ch,%dh
  73:	c3                   	ret    
  74:	41                   	inc    %ecx
  75:	c6 41 c5 0c          	movb   $0xc,-0x3b(%ecx)
  79:	04 04                	add    $0x4,%al
  7b:	00 1c 00             	add    %bl,(%eax,%eax,1)
  7e:	00 00                	add    %al,(%eax)
  80:	00 00                	add    %al,(%eax)
  82:	00 00                	add    %al,(%eax)
  84:	24 3c                	and    $0x3c,%al
  86:	10 00                	adc    %al,(%eax)
  88:	55                   	push   %ebp
  89:	00 00                	add    %al,(%eax)
  8b:	00 41 0e             	add    %al,0xe(%ecx)
  8e:	08 42 85             	or     %al,-0x7b(%edx)
  91:	02 0d 05 02 51 c5    	add    0xc5510205,%cl
  97:	0c 04                	or     $0x4,%al
  99:	04 00                	add    $0x0,%al
  9b:	00 1c 00             	add    %bl,(%eax,%eax,1)
  9e:	00 00                	add    %al,(%eax)
  a0:	00 00                	add    %al,(%eax)
  a2:	00 00                	add    %al,(%eax)
  a4:	79 3c                	jns    e2 <MULTIBOOT_HEADER_FLAGS+0xdf>
  a6:	10 00                	adc    %al,(%eax)
  a8:	55                   	push   %ebp
  a9:	00 00                	add    %al,(%eax)
  ab:	00 41 0e             	add    %al,0xe(%ecx)
  ae:	08 42 85             	or     %al,-0x7b(%edx)
  b1:	02 0d 05 02 51 c5    	add    0xc5510205,%cl
  b7:	0c 04                	or     $0x4,%al
  b9:	04 00                	add    $0x0,%al
  bb:	00 1c 00             	add    %bl,(%eax,%eax,1)
  be:	00 00                	add    %al,(%eax)
  c0:	00 00                	add    %al,(%eax)
  c2:	00 00                	add    %al,(%eax)
  c4:	ce                   	into   
  c5:	3c 10                	cmp    $0x10,%al
  c7:	00 05 00 00 00 41    	add    %al,0x41000000
  cd:	0e                   	push   %cs
  ce:	08 42 85             	or     %al,-0x7b(%edx)
  d1:	02 0d 05 41 c5 0c    	add    0xcc54105,%cl
  d7:	04 04                	add    $0x4,%al
  d9:	00 00                	add    %al,(%eax)
  db:	00 1c 00             	add    %bl,(%eax,%eax,1)
  de:	00 00                	add    %al,(%eax)
  e0:	00 00                	add    %al,(%eax)
  e2:	00 00                	add    %al,(%eax)
  e4:	d3 3c 10             	sarl   %cl,(%eax,%edx,1)
  e7:	00 55 00             	add    %dl,0x0(%ebp)
  ea:	00 00                	add    %al,(%eax)
  ec:	41                   	inc    %ecx
  ed:	0e                   	push   %cs
  ee:	08 42 85             	or     %al,-0x7b(%edx)
  f1:	02 0d 05 02 51 c5    	add    0xc5510205,%cl
  f7:	0c 04                	or     $0x4,%al
  f9:	04 00                	add    $0x0,%al
  fb:	00 1c 00             	add    %bl,(%eax,%eax,1)
  fe:	00 00                	add    %al,(%eax)
 100:	00 00                	add    %al,(%eax)
 102:	00 00                	add    %al,(%eax)
 104:	28 3d 10 00 55 00    	sub    %bh,0x550010
 10a:	00 00                	add    %al,(%eax)
 10c:	41                   	inc    %ecx
 10d:	0e                   	push   %cs
 10e:	08 42 85             	or     %al,-0x7b(%edx)
 111:	02 0d 05 02 51 c5    	add    0xc5510205,%cl
 117:	0c 04                	or     $0x4,%al
 119:	04 00                	add    $0x0,%al
 11b:	00 1c 00             	add    %bl,(%eax,%eax,1)
 11e:	00 00                	add    %al,(%eax)
 120:	00 00                	add    %al,(%eax)
 122:	00 00                	add    %al,(%eax)
 124:	7d 3d                	jge    163 <MULTIBOOT_HEADER_FLAGS+0x160>
 126:	10 00                	adc    %al,(%eax)
 128:	55                   	push   %ebp
 129:	00 00                	add    %al,(%eax)
 12b:	00 41 0e             	add    %al,0xe(%ecx)
 12e:	08 42 85             	or     %al,-0x7b(%edx)
 131:	02 0d 05 02 51 c5    	add    0xc5510205,%cl
 137:	0c 04                	or     $0x4,%al
 139:	04 00                	add    $0x0,%al
 13b:	00 1c 00             	add    %bl,(%eax,%eax,1)
 13e:	00 00                	add    %al,(%eax)
 140:	00 00                	add    %al,(%eax)
 142:	00 00                	add    %al,(%eax)
 144:	d2 3d 10 00 55 00    	sarb   %cl,0x550010
 14a:	00 00                	add    %al,(%eax)
 14c:	41                   	inc    %ecx
 14d:	0e                   	push   %cs
 14e:	08 42 85             	or     %al,-0x7b(%edx)
 151:	02 0d 05 02 51 c5    	add    0xc5510205,%cl
 157:	0c 04                	or     $0x4,%al
 159:	04 00                	add    $0x0,%al
 15b:	00 1c 00             	add    %bl,(%eax,%eax,1)
 15e:	00 00                	add    %al,(%eax)
 160:	00 00                	add    %al,(%eax)
 162:	00 00                	add    %al,(%eax)
 164:	27                   	daa    
 165:	3e 10 00             	adc    %al,%ds:(%eax)
 168:	55                   	push   %ebp
 169:	00 00                	add    %al,(%eax)
 16b:	00 41 0e             	add    %al,0xe(%ecx)
 16e:	08 42 85             	or     %al,-0x7b(%edx)
 171:	02 0d 05 02 51 c5    	add    0xc5510205,%cl
 177:	0c 04                	or     $0x4,%al
 179:	04 00                	add    $0x0,%al
 17b:	00 1c 00             	add    %bl,(%eax,%eax,1)
 17e:	00 00                	add    %al,(%eax)
 180:	00 00                	add    %al,(%eax)
 182:	00 00                	add    %al,(%eax)
 184:	7c 3e                	jl     1c4 <MULTIBOOT_HEADER_FLAGS+0x1c1>
 186:	10 00                	adc    %al,(%eax)
 188:	55                   	push   %ebp
 189:	00 00                	add    %al,(%eax)
 18b:	00 41 0e             	add    %al,0xe(%ecx)
 18e:	08 42 85             	or     %al,-0x7b(%edx)
 191:	02 0d 05 02 51 c5    	add    0xc5510205,%cl
 197:	0c 04                	or     $0x4,%al
 199:	04 00                	add    $0x0,%al
 19b:	00 1c 00             	add    %bl,(%eax,%eax,1)
 19e:	00 00                	add    %al,(%eax)
 1a0:	00 00                	add    %al,(%eax)
 1a2:	00 00                	add    %al,(%eax)
 1a4:	d1 3e                	sarl   (%esi)
 1a6:	10 00                	adc    %al,(%eax)
 1a8:	55                   	push   %ebp
 1a9:	00 00                	add    %al,(%eax)
 1ab:	00 41 0e             	add    %al,0xe(%ecx)
 1ae:	08 42 85             	or     %al,-0x7b(%edx)
 1b1:	02 0d 05 02 51 c5    	add    0xc5510205,%cl
 1b7:	0c 04                	or     $0x4,%al
 1b9:	04 00                	add    $0x0,%al
 1bb:	00 1c 00             	add    %bl,(%eax,%eax,1)
 1be:	00 00                	add    %al,(%eax)
 1c0:	00 00                	add    %al,(%eax)
 1c2:	00 00                	add    %al,(%eax)
 1c4:	26                   	es
 1c5:	3f                   	aas    
 1c6:	10 00                	adc    %al,(%eax)
 1c8:	55                   	push   %ebp
 1c9:	00 00                	add    %al,(%eax)
 1cb:	00 41 0e             	add    %al,0xe(%ecx)
 1ce:	08 42 85             	or     %al,-0x7b(%edx)
 1d1:	02 0d 05 02 51 c5    	add    0xc5510205,%cl
 1d7:	0c 04                	or     $0x4,%al
 1d9:	04 00                	add    $0x0,%al
 1db:	00 1c 00             	add    %bl,(%eax,%eax,1)
 1de:	00 00                	add    %al,(%eax)
 1e0:	00 00                	add    %al,(%eax)
 1e2:	00 00                	add    %al,(%eax)
 1e4:	7b 3f                	jnp    225 <MULTIBOOT_HEADER_FLAGS+0x222>
 1e6:	10 00                	adc    %al,(%eax)
 1e8:	55                   	push   %ebp
 1e9:	00 00                	add    %al,(%eax)
 1eb:	00 41 0e             	add    %al,0xe(%ecx)
 1ee:	08 42 85             	or     %al,-0x7b(%edx)
 1f1:	02 0d 05 02 51 c5    	add    0xc5510205,%cl
 1f7:	0c 04                	or     $0x4,%al
 1f9:	04 00                	add    $0x0,%al
 1fb:	00 1c 00             	add    %bl,(%eax,%eax,1)
 1fe:	00 00                	add    %al,(%eax)
 200:	00 00                	add    %al,(%eax)
 202:	00 00                	add    %al,(%eax)
 204:	d0 3f                	sarb   (%edi)
 206:	10 00                	adc    %al,(%eax)
 208:	55                   	push   %ebp
 209:	00 00                	add    %al,(%eax)
 20b:	00 41 0e             	add    %al,0xe(%ecx)
 20e:	08 42 85             	or     %al,-0x7b(%edx)
 211:	02 0d 05 02 51 c5    	add    0xc5510205,%cl
 217:	0c 04                	or     $0x4,%al
 219:	04 00                	add    $0x0,%al
 21b:	00 1c 00             	add    %bl,(%eax,%eax,1)
 21e:	00 00                	add    %al,(%eax)
 220:	00 00                	add    %al,(%eax)
 222:	00 00                	add    %al,(%eax)
 224:	25 40 10 00 55       	and    $0x55001040,%eax
 229:	00 00                	add    %al,(%eax)
 22b:	00 41 0e             	add    %al,0xe(%ecx)
 22e:	08 42 85             	or     %al,-0x7b(%edx)
 231:	02 0d 05 02 51 c5    	add    0xc5510205,%cl
 237:	0c 04                	or     $0x4,%al
 239:	04 00                	add    $0x0,%al
 23b:	00 1c 00             	add    %bl,(%eax,%eax,1)
 23e:	00 00                	add    %al,(%eax)
 240:	00 00                	add    %al,(%eax)
 242:	00 00                	add    %al,(%eax)
 244:	7a 40                	jp     286 <MULTIBOOT_HEADER_FLAGS+0x283>
 246:	10 00                	adc    %al,(%eax)
 248:	55                   	push   %ebp
 249:	00 00                	add    %al,(%eax)
 24b:	00 41 0e             	add    %al,0xe(%ecx)
 24e:	08 42 85             	or     %al,-0x7b(%edx)
 251:	02 0d 05 02 51 c5    	add    0xc5510205,%cl
 257:	0c 04                	or     $0x4,%al
 259:	04 00                	add    $0x0,%al
 25b:	00 1c 00             	add    %bl,(%eax,%eax,1)
 25e:	00 00                	add    %al,(%eax)
 260:	00 00                	add    %al,(%eax)
 262:	00 00                	add    %al,(%eax)
 264:	cf                   	iret   
 265:	40                   	inc    %eax
 266:	10 00                	adc    %al,(%eax)
 268:	55                   	push   %ebp
 269:	00 00                	add    %al,(%eax)
 26b:	00 41 0e             	add    %al,0xe(%ecx)
 26e:	08 42 85             	or     %al,-0x7b(%edx)
 271:	02 0d 05 02 51 c5    	add    0xc5510205,%cl
 277:	0c 04                	or     $0x4,%al
 279:	04 00                	add    $0x0,%al
 27b:	00 1c 00             	add    %bl,(%eax,%eax,1)
 27e:	00 00                	add    %al,(%eax)
 280:	00 00                	add    %al,(%eax)
 282:	00 00                	add    %al,(%eax)
 284:	24 41                	and    $0x41,%al
 286:	10 00                	adc    %al,(%eax)
 288:	55                   	push   %ebp
 289:	00 00                	add    %al,(%eax)
 28b:	00 41 0e             	add    %al,0xe(%ecx)
 28e:	08 42 85             	or     %al,-0x7b(%edx)
 291:	02 0d 05 02 51 c5    	add    0xc5510205,%cl
 297:	0c 04                	or     $0x4,%al
 299:	04 00                	add    $0x0,%al
 29b:	00 1c 00             	add    %bl,(%eax,%eax,1)
 29e:	00 00                	add    %al,(%eax)
 2a0:	00 00                	add    %al,(%eax)
 2a2:	00 00                	add    %al,(%eax)
 2a4:	79 41                	jns    2e7 <MULTIBOOT_HEADER_FLAGS+0x2e4>
 2a6:	10 00                	adc    %al,(%eax)
 2a8:	76 00                	jbe    2aa <MULTIBOOT_HEADER_FLAGS+0x2a7>
 2aa:	00 00                	add    %al,(%eax)
 2ac:	41                   	inc    %ecx
 2ad:	0e                   	push   %cs
 2ae:	08 42 85             	or     %al,-0x7b(%edx)
 2b1:	02 0d 05 02 72 c5    	add    0xc5720205,%cl
 2b7:	0c 04                	or     $0x4,%al
 2b9:	04 00                	add    $0x0,%al
 2bb:	00 24 00             	add    %ah,(%eax,%eax,1)
 2be:	00 00                	add    %al,(%eax)
 2c0:	00 00                	add    %al,(%eax)
 2c2:	00 00                	add    %al,(%eax)
 2c4:	ef                   	out    %eax,(%dx)
 2c5:	41                   	inc    %ecx
 2c6:	10 00                	adc    %al,(%eax)
 2c8:	91                   	xchg   %eax,%ecx
 2c9:	00 00                	add    %al,(%eax)
 2cb:	00 41 0e             	add    %al,0xe(%ecx)
 2ce:	08 42 85             	or     %al,-0x7b(%edx)
 2d1:	02 0d 05 56 83 04    	add    0x4835605,%cl
 2d7:	87 03                	xchg   %eax,(%ebx)
 2d9:	02 75 c3             	add    -0x3d(%ebp),%dh
 2dc:	41                   	inc    %ecx
 2dd:	c7 41 c5 0c 04 04 00 	movl   $0x4040c,-0x3b(%ecx)
 2e4:	1c 00                	sbb    $0x0,%al
 2e6:	00 00                	add    %al,(%eax)
 2e8:	00 00                	add    %al,(%eax)
 2ea:	00 00                	add    %al,(%eax)
 2ec:	80 42 10 00          	addb   $0x0,0x10(%edx)
 2f0:	5e                   	pop    %esi
 2f1:	00 00                	add    %al,(%eax)
 2f3:	00 41 0e             	add    %al,0xe(%ecx)
 2f6:	08 42 85             	or     %al,-0x7b(%edx)
 2f9:	02 0d 05 02 5a c5    	add    0xc55a0205,%cl
 2ff:	0c 04                	or     $0x4,%al
 301:	04 00                	add    $0x0,%al
 303:	00 10                	add    %dl,(%eax)
 305:	00 00                	add    %al,(%eax)
 307:	00 ff                	add    %bh,%bh
 309:	ff                   	(bad)  
 30a:	ff                   	(bad)  
 30b:	ff 01                	incl   (%ecx)
 30d:	00 01                	add    %al,(%ecx)
 30f:	7c 08                	jl     319 <MULTIBOOT_HEADER_FLAGS+0x316>
 311:	0c 04                	or     $0x4,%al
 313:	04 88                	add    $0x88,%al
 315:	01 00                	add    %eax,(%eax)
 317:	00 20                	add    %ah,(%eax)
 319:	00 00                	add    %al,(%eax)
 31b:	00 04 03             	add    %al,(%ebx,%eax,1)
 31e:	00 00                	add    %al,(%eax)
 320:	e0 42                	loopne 364 <MULTIBOOT_HEADER_FLAGS+0x361>
 322:	10 00                	adc    %al,(%eax)
 324:	60                   	pusha  
 325:	00 00                	add    %al,(%eax)
 327:	00 41 0e             	add    %al,0xe(%ecx)
 32a:	08 42 85             	or     %al,-0x7b(%edx)
 32d:	02 0d 05 44 83 03    	add    0x3834405,%cl
 333:	02 57 c3             	add    -0x3d(%edi),%dl
 336:	41                   	inc    %ecx
 337:	c5 0c 04             	lds    (%esp,%eax,1),%ecx
 33a:	04 00                	add    $0x0,%al
 33c:	14 00                	adc    $0x0,%al
 33e:	00 00                	add    %al,(%eax)
 340:	04 03                	add    $0x3,%al
 342:	00 00                	add    %al,(%eax)
 344:	40                   	inc    %eax
 345:	43                   	inc    %ebx
 346:	10 00                	adc    %al,(%eax)
 348:	40                   	inc    %eax
 349:	00 00                	add    %al,(%eax)
 34b:	00 41 0e             	add    %al,0xe(%ecx)
 34e:	08 42 85             	or     %al,-0x7b(%edx)
 351:	02 0d 05 14 00 00    	add    0x1405,%cl
 357:	00 04 03             	add    %al,(%ebx,%eax,1)
 35a:	00 00                	add    %al,(%eax)
 35c:	80 43 10 00          	addb   $0x0,0x10(%ebx)
 360:	37                   	aaa    
 361:	00 00                	add    %al,(%eax)
 363:	00 41 0e             	add    %al,0xe(%ecx)
 366:	08 42 85             	or     %al,-0x7b(%edx)
 369:	02 0d 05 14 00 00    	add    0x1405,%cl
 36f:	00 04 03             	add    %al,(%ebx,%eax,1)
 372:	00 00                	add    %al,(%eax)
 374:	b7 43                	mov    $0x43,%bh
 376:	10 00                	adc    %al,(%eax)
 378:	37                   	aaa    
 379:	00 00                	add    %al,(%eax)
 37b:	00 41 0e             	add    %al,0xe(%ecx)
 37e:	08 42 85             	or     %al,-0x7b(%edx)
 381:	02 0d 05 20 00 00    	add    0x2005,%cl
 387:	00 04 03             	add    %al,(%ebx,%eax,1)
 38a:	00 00                	add    %al,(%eax)
 38c:	ee                   	out    %al,(%dx)
 38d:	43                   	inc    %ebx
 38e:	10 00                	adc    %al,(%eax)
 390:	48                   	dec    %eax
 391:	00 00                	add    %al,(%eax)
 393:	00 41 0e             	add    %al,0xe(%ecx)
 396:	08 42 85             	or     %al,-0x7b(%edx)
 399:	02 0d 05 4a 83 03    	add    0x3834a05,%cl
 39f:	79 c3                	jns    364 <MULTIBOOT_HEADER_FLAGS+0x361>
 3a1:	41                   	inc    %ecx
 3a2:	c5 0c 04             	lds    (%esp,%eax,1),%ecx
 3a5:	04 00                	add    $0x0,%al
 3a7:	00 10                	add    %dl,(%eax)
 3a9:	00 00                	add    %al,(%eax)
 3ab:	00 ff                	add    %bh,%bh
 3ad:	ff                   	(bad)  
 3ae:	ff                   	(bad)  
 3af:	ff 01                	incl   (%ecx)
 3b1:	00 01                	add    %al,(%ecx)
 3b3:	7c 08                	jl     3bd <MULTIBOOT_HEADER_FLAGS+0x3ba>
 3b5:	0c 04                	or     $0x4,%al
 3b7:	04 88                	add    $0x88,%al
 3b9:	01 00                	add    %eax,(%eax)
 3bb:	00 28                	add    %ch,(%eax)
 3bd:	00 00                	add    %al,(%eax)
 3bf:	00 a8 03 00 00 38    	add    %ch,0x38000003(%eax)
 3c5:	44                   	inc    %esp
 3c6:	10 00                	adc    %al,(%eax)
 3c8:	b5 02                	mov    $0x2,%ch
 3ca:	00 00                	add    %al,(%eax)
 3cc:	41                   	inc    %ecx
 3cd:	0e                   	push   %cs
 3ce:	08 42 85             	or     %al,-0x7b(%edx)
 3d1:	02 0d 05 73 83 05    	add    0x5837305,%cl
 3d7:	86 04 87             	xchg   %al,(%edi,%eax,4)
 3da:	03 03                	add    (%ebx),%eax
 3dc:	7b 02                	jnp    3e0 <MULTIBOOT_HEADER_FLAGS+0x3dd>
 3de:	c3                   	ret    
 3df:	41                   	inc    %ecx
 3e0:	c6 41 c7 41          	movb   $0x41,-0x39(%ecx)
 3e4:	c5 0c 04             	lds    (%esp,%eax,1),%ecx
 3e7:	04 10                	add    $0x10,%al
 3e9:	00 00                	add    %al,(%eax)
 3eb:	00 ff                	add    %bh,%bh
 3ed:	ff                   	(bad)  
 3ee:	ff                   	(bad)  
 3ef:	ff 01                	incl   (%ecx)
 3f1:	00 01                	add    %al,(%ecx)
 3f3:	7c 08                	jl     3fd <MULTIBOOT_HEADER_FLAGS+0x3fa>
 3f5:	0c 04                	or     $0x4,%al
 3f7:	04 88                	add    $0x88,%al
 3f9:	01 00                	add    %eax,(%eax)
 3fb:	00 1c 00             	add    %bl,(%eax,%eax,1)
 3fe:	00 00                	add    %al,(%eax)
 400:	e8 03 00 00 f0       	call   f0000408 <CHECKSUM+0xbadb40d>
 405:	46                   	inc    %esi
 406:	10 00                	adc    %al,(%eax)
 408:	ea 00 00 00 41 0e 08 	ljmp   $0x80e,$0x41000000
 40f:	42                   	inc    %edx
 410:	85 02                	test   %eax,(%edx)
 412:	0d 05 02 e6 c5       	or     $0xc5e60205,%eax
 417:	0c 04                	or     $0x4,%al
 419:	04 00                	add    $0x0,%al
 41b:	00 1c 00             	add    %bl,(%eax,%eax,1)
 41e:	00 00                	add    %al,(%eax)
 420:	e8 03 00 00 da       	call   da000428 <MULTIBOOT_HEADER_MAGIC+0xbe525426>
 425:	47                   	inc    %edi
 426:	10 00                	adc    %al,(%eax)
 428:	14 00                	adc    $0x0,%al
 42a:	00 00                	add    %al,(%eax)
 42c:	41                   	inc    %ecx
 42d:	0e                   	push   %cs
 42e:	08 42 85             	or     %al,-0x7b(%edx)
 431:	02 0d 05 50 c5 0c    	add    0xcc55005,%cl
 437:	04 04                	add    $0x4,%al
 439:	00 00                	add    %al,(%eax)
 43b:	00 1c 00             	add    %bl,(%eax,%eax,1)
 43e:	00 00                	add    %al,(%eax)
 440:	e8 03 00 00 ee       	call   ee000448 <CHECKSUM+0x9adb44d>
 445:	47                   	inc    %edi
 446:	10 00                	adc    %al,(%eax)
 448:	6d                   	insl   (%dx),%es:(%edi)
 449:	00 00                	add    %al,(%eax)
 44b:	00 41 0e             	add    %al,0xe(%ecx)
 44e:	08 42 85             	or     %al,-0x7b(%edx)
 451:	02 0d 05 02 69 c5    	add    0xc5690205,%cl
 457:	0c 04                	or     $0x4,%al
 459:	04 00                	add    $0x0,%al
 45b:	00 20                	add    %ah,(%eax)
 45d:	00 00                	add    %al,(%eax)
 45f:	00 e8                	add    %ch,%al
 461:	03 00                	add    (%eax),%eax
 463:	00 5b 48             	add    %bl,0x48(%ebx)
 466:	10 00                	adc    %al,(%eax)
 468:	55                   	push   %ebp
 469:	00 00                	add    %al,(%eax)
 46b:	00 41 0e             	add    %al,0xe(%ecx)
 46e:	08 42 85             	or     %al,-0x7b(%edx)
 471:	02 0d 05 65 83 03    	add    0x3836505,%cl
 477:	6b c3 41             	imul   $0x41,%ebx,%eax
 47a:	c5 0c 04             	lds    (%esp,%eax,1),%ecx
 47d:	04 00                	add    $0x0,%al
 47f:	00 1c 00             	add    %bl,(%eax,%eax,1)
 482:	00 00                	add    %al,(%eax)
 484:	e8 03 00 00 b0       	call   b000048c <MULTIBOOT_HEADER_MAGIC+0x9452548a>
 489:	48                   	dec    %eax
 48a:	10 00                	adc    %al,(%eax)
 48c:	42                   	inc    %edx
 48d:	00 00                	add    %al,(%eax)
 48f:	00 41 0e             	add    %al,0xe(%ecx)
 492:	08 42 85             	or     %al,-0x7b(%edx)
 495:	02 0d 05 7e c5 0c    	add    0xcc57e05,%cl
 49b:	04 04                	add    $0x4,%al
 49d:	00 00                	add    %al,(%eax)
 49f:	00 1c 00             	add    %bl,(%eax,%eax,1)
 4a2:	00 00                	add    %al,(%eax)
 4a4:	e8 03 00 00 f2       	call   f20004ac <CHECKSUM+0xdadb4b1>
 4a9:	48                   	dec    %eax
 4aa:	10 00                	adc    %al,(%eax)
 4ac:	66                   	data16
 4ad:	00 00                	add    %al,(%eax)
 4af:	00 41 0e             	add    %al,0xe(%ecx)
 4b2:	08 42 85             	or     %al,-0x7b(%edx)
 4b5:	02 0d 05 02 62 c5    	add    0xc5620205,%cl
 4bb:	0c 04                	or     $0x4,%al
 4bd:	04 00                	add    $0x0,%al
 4bf:	00 10                	add    %dl,(%eax)
 4c1:	00 00                	add    %al,(%eax)
 4c3:	00 ff                	add    %bh,%bh
 4c5:	ff                   	(bad)  
 4c6:	ff                   	(bad)  
 4c7:	ff 01                	incl   (%ecx)
 4c9:	00 01                	add    %al,(%ecx)
 4cb:	7c 08                	jl     4d5 <MULTIBOOT_HEADER_FLAGS+0x4d2>
 4cd:	0c 04                	or     $0x4,%al
 4cf:	04 88                	add    $0x88,%al
 4d1:	01 00                	add    %eax,(%eax)
 4d3:	00 20                	add    %ah,(%eax)
 4d5:	00 00                	add    %al,(%eax)
 4d7:	00 c0                	add    %al,%al
 4d9:	04 00                	add    $0x0,%al
 4db:	00 58 49             	add    %bl,0x49(%eax)
 4de:	10 00                	adc    %al,(%eax)
 4e0:	e0 00                	loopne 4e2 <MULTIBOOT_HEADER_FLAGS+0x4df>
 4e2:	00 00                	add    %al,(%eax)
 4e4:	41                   	inc    %ecx
 4e5:	0e                   	push   %cs
 4e6:	08 42 85             	or     %al,-0x7b(%edx)
 4e9:	02 0d 05 4a 83 03    	add    0x3834a05,%cl
 4ef:	02 d1                	add    %cl,%dl
 4f1:	c3                   	ret    
 4f2:	41                   	inc    %ecx
 4f3:	c5 0c 04             	lds    (%esp,%eax,1),%ecx
 4f6:	04 00                	add    $0x0,%al
 4f8:	20 00                	and    %al,(%eax)
 4fa:	00 00                	add    %al,(%eax)
 4fc:	c0 04 00 00          	rolb   $0x0,(%eax,%eax,1)
 500:	38 4a 10             	cmp    %cl,0x10(%edx)
 503:	00 80 00 00 00 41    	add    %al,0x41000000(%eax)
 509:	0e                   	push   %cs
 50a:	08 42 85             	or     %al,-0x7b(%edx)
 50d:	02 0d 05 65 83 03    	add    0x3836505,%cl
 513:	02 56 c3             	add    -0x3d(%esi),%dl
 516:	41                   	inc    %ecx
 517:	c5 0c 04             	lds    (%esp,%eax,1),%ecx
 51a:	04 00                	add    $0x0,%al
 51c:	1c 00                	sbb    $0x0,%al
 51e:	00 00                	add    %al,(%eax)
 520:	c0 04 00 00          	rolb   $0x0,(%eax,%eax,1)
 524:	b8 4a 10 00 2e       	mov    $0x2e00104a,%eax
 529:	00 00                	add    %al,(%eax)
 52b:	00 41 0e             	add    %al,0xe(%ecx)
 52e:	08 42 85             	or     %al,-0x7b(%edx)
 531:	02 0d 05 6a c5 0c    	add    0xcc56a05,%cl
 537:	04 04                	add    $0x4,%al
 539:	00 00                	add    %al,(%eax)
 53b:	00 1c 00             	add    %bl,(%eax,%eax,1)
 53e:	00 00                	add    %al,(%eax)
 540:	c0 04 00 00          	rolb   $0x0,(%eax,%eax,1)
 544:	e6 4a                	out    %al,$0x4a
 546:	10 00                	adc    %al,(%eax)
 548:	5c                   	pop    %esp
 549:	00 00                	add    %al,(%eax)
 54b:	00 41 0e             	add    %al,0xe(%ecx)
 54e:	08 42 85             	or     %al,-0x7b(%edx)
 551:	02 0d 05 02 58 c5    	add    0xc5580205,%cl
 557:	0c 04                	or     $0x4,%al
 559:	04 00                	add    $0x0,%al
 55b:	00 1c 00             	add    %bl,(%eax,%eax,1)
 55e:	00 00                	add    %al,(%eax)
 560:	c0 04 00 00          	rolb   $0x0,(%eax,%eax,1)
 564:	42                   	inc    %edx
 565:	4b                   	dec    %ebx
 566:	10 00                	adc    %al,(%eax)
 568:	27                   	daa    
 569:	01 00                	add    %eax,(%eax)
 56b:	00 41 0e             	add    %al,0xe(%ecx)
 56e:	08 42 85             	or     %al,-0x7b(%edx)
 571:	02 0d 05 03 23 01    	add    0x1230305,%cl
 577:	c5 0c 04             	lds    (%esp,%eax,1),%ecx
 57a:	04 00                	add    $0x0,%al
 57c:	1c 00                	sbb    $0x0,%al
 57e:	00 00                	add    %al,(%eax)
 580:	c0 04 00 00          	rolb   $0x0,(%eax,%eax,1)
 584:	69 4c 10 00 27 00 00 	imul   $0x27,0x0(%eax,%edx,1),%ecx
 58b:	00 
 58c:	41                   	inc    %ecx
 58d:	0e                   	push   %cs
 58e:	08 42 85             	or     %al,-0x7b(%edx)
 591:	02 0d 05 63 c5 0c    	add    0xcc56305,%cl
 597:	04 04                	add    $0x4,%al
 599:	00 00                	add    %al,(%eax)
 59b:	00 24 00             	add    %ah,(%eax,%eax,1)
 59e:	00 00                	add    %al,(%eax)
 5a0:	c0 04 00 00          	rolb   $0x0,(%eax,%eax,1)
 5a4:	90                   	nop
 5a5:	4c                   	dec    %esp
 5a6:	10 00                	adc    %al,(%eax)
 5a8:	46                   	inc    %esi
 5a9:	00 00                	add    %al,(%eax)
 5ab:	00 41 0e             	add    %al,0xe(%ecx)
 5ae:	08 42 85             	or     %al,-0x7b(%edx)
 5b1:	02 0d 05 48 83 04    	add    0x4834805,%cl
 5b7:	87 03                	xchg   %eax,(%ebx)
 5b9:	78 c3                	js     57e <MULTIBOOT_HEADER_FLAGS+0x57b>
 5bb:	41                   	inc    %ecx
 5bc:	c7 41 c5 0c 04 04 00 	movl   $0x4040c,-0x3b(%ecx)
 5c3:	00 20                	add    %ah,(%eax)
 5c5:	00 00                	add    %al,(%eax)
 5c7:	00 c0                	add    %al,%al
 5c9:	04 00                	add    $0x0,%al
 5cb:	00 d6                	add    %dl,%dh
 5cd:	4c                   	dec    %esp
 5ce:	10 00                	adc    %al,(%eax)
 5d0:	51                   	push   %ecx
 5d1:	00 00                	add    %al,(%eax)
 5d3:	00 41 0e             	add    %al,0xe(%ecx)
 5d6:	08 42 85             	or     %al,-0x7b(%edx)
 5d9:	02 0d 05 6e 83 03    	add    0x3836e05,%cl
 5df:	5e                   	pop    %esi
 5e0:	c3                   	ret    
 5e1:	41                   	inc    %ecx
 5e2:	c5 0c 04             	lds    (%esp,%eax,1),%ecx
 5e5:	04 00                	add    $0x0,%al
 5e7:	00 14 00             	add    %dl,(%eax,%eax,1)
 5ea:	00 00                	add    %al,(%eax)
 5ec:	c0 04 00 00          	rolb   $0x0,(%eax,%eax,1)
 5f0:	27                   	daa    
 5f1:	4d                   	dec    %ebp
 5f2:	10 00                	adc    %al,(%eax)
 5f4:	54                   	push   %esp
 5f5:	00 00                	add    %al,(%eax)
 5f7:	00 41 0e             	add    %al,0xe(%ecx)
 5fa:	08 42 85             	or     %al,-0x7b(%edx)
 5fd:	02 0d 05 10 00 00    	add    0x1005,%cl
 603:	00 ff                	add    %bh,%bh
 605:	ff                   	(bad)  
 606:	ff                   	(bad)  
 607:	ff 01                	incl   (%ecx)
 609:	00 01                	add    %al,(%ecx)
 60b:	7c 08                	jl     615 <MULTIBOOT_HEADER_FLAGS+0x612>
 60d:	0c 04                	or     $0x4,%al
 60f:	04 88                	add    $0x88,%al
 611:	01 00                	add    %eax,(%eax)
 613:	00 20                	add    %ah,(%eax)
 615:	00 00                	add    %al,(%eax)
 617:	00 00                	add    %al,(%eax)
 619:	06                   	push   %es
 61a:	00 00                	add    %al,(%eax)
 61c:	7c 4d                	jl     66b <MULTIBOOT_HEADER_FLAGS+0x668>
 61e:	10 00                	adc    %al,(%eax)
 620:	f5                   	cmc    
 621:	02 00                	add    (%eax),%al
 623:	00 41 0e             	add    %al,0xe(%ecx)
 626:	08 42 85             	or     %al,-0x7b(%edx)
 629:	02 0d 05 64 83 03    	add    0x3836405,%cl
 62f:	03 cc                	add    %esp,%ecx
 631:	02 c3                	add    %bl,%al
 633:	41                   	inc    %ecx
 634:	c5 0c 04             	lds    (%esp,%eax,1),%ecx
 637:	04 24                	add    $0x24,%al
 639:	00 00                	add    %al,(%eax)
 63b:	00 00                	add    %al,(%eax)
 63d:	06                   	push   %es
 63e:	00 00                	add    %al,(%eax)
 640:	71 50                	jno    692 <MULTIBOOT_HEADER_FLAGS+0x68f>
 642:	10 00                	adc    %al,(%eax)
 644:	81 01 00 00 41 0e    	addl   $0xe410000,(%ecx)
 64a:	08 42 85             	or     %al,-0x7b(%edx)
 64d:	02 0d 05 5a 83 04    	add    0x4835a05,%cl
 653:	86 03                	xchg   %al,(%ebx)
 655:	03 61 01             	add    0x1(%ecx),%esp
 658:	c3                   	ret    
 659:	41                   	inc    %ecx
 65a:	c6 41 c5 0c          	movb   $0xc,-0x3b(%ecx)
 65e:	04 04                	add    $0x4,%al
 660:	10 00                	adc    %al,(%eax)
 662:	00 00                	add    %al,(%eax)
 664:	ff                   	(bad)  
 665:	ff                   	(bad)  
 666:	ff                   	(bad)  
 667:	ff 01                	incl   (%ecx)
 669:	00 01                	add    %al,(%ecx)
 66b:	7c 08                	jl     675 <MULTIBOOT_HEADER_FLAGS+0x672>
 66d:	0c 04                	or     $0x4,%al
 66f:	04 88                	add    $0x88,%al
 671:	01 00                	add    %eax,(%eax)
 673:	00 1c 00             	add    %bl,(%eax,%eax,1)
 676:	00 00                	add    %al,(%eax)
 678:	60                   	pusha  
 679:	06                   	push   %es
 67a:	00 00                	add    %al,(%eax)
 67c:	f4                   	hlt    
 67d:	51                   	push   %ecx
 67e:	10 00                	adc    %al,(%eax)
 680:	67 00 00             	add    %al,(%bx,%si)
 683:	00 41 0e             	add    %al,0xe(%ecx)
 686:	08 42 85             	or     %al,-0x7b(%edx)
 689:	02 0d 05 02 63 c5    	add    0xc5630205,%cl
 68f:	0c 04                	or     $0x4,%al
 691:	04 00                	add    $0x0,%al
 693:	00 10                	add    %dl,(%eax)
 695:	00 00                	add    %al,(%eax)
 697:	00 ff                	add    %bh,%bh
 699:	ff                   	(bad)  
 69a:	ff                   	(bad)  
 69b:	ff 01                	incl   (%ecx)
 69d:	00 01                	add    %al,(%ecx)
 69f:	7c 08                	jl     6a9 <MULTIBOOT_HEADER_FLAGS+0x6a6>
 6a1:	0c 04                	or     $0x4,%al
 6a3:	04 88                	add    $0x88,%al
 6a5:	01 00                	add    %eax,(%eax)
 6a7:	00 20                	add    %ah,(%eax)
 6a9:	00 00                	add    %al,(%eax)
 6ab:	00 94 06 00 00 5c 52 	add    %dl,0x525c0000(%esi,%eax,1)
 6b2:	10 00                	adc    %al,(%eax)
 6b4:	02 01                	add    (%ecx),%al
 6b6:	00 00                	add    %al,(%eax)
 6b8:	41                   	inc    %ecx
 6b9:	0e                   	push   %cs
 6ba:	08 42 85             	or     %al,-0x7b(%edx)
 6bd:	02 0d 05 55 83 03    	add    0x3835505,%cl
 6c3:	02 e8                	add    %al,%ch
 6c5:	c3                   	ret    
 6c6:	41                   	inc    %ecx
 6c7:	c5 0c 04             	lds    (%esp,%eax,1),%ecx
 6ca:	04 00                	add    $0x0,%al
 6cc:	20 00                	and    %al,(%eax)
 6ce:	00 00                	add    %al,(%eax)
 6d0:	94                   	xchg   %eax,%esp
 6d1:	06                   	push   %es
 6d2:	00 00                	add    %al,(%eax)
 6d4:	5e                   	pop    %esi
 6d5:	53                   	push   %ebx
 6d6:	10 00                	adc    %al,(%eax)
 6d8:	09 01                	or     %eax,(%ecx)
 6da:	00 00                	add    %al,(%eax)
 6dc:	41                   	inc    %ecx
 6dd:	0e                   	push   %cs
 6de:	08 42 85             	or     %al,-0x7b(%edx)
 6e1:	02 0d 05 5b 83 03    	add    0x3835b05,%cl
 6e7:	02 e9                	add    %cl,%ch
 6e9:	c3                   	ret    
 6ea:	41                   	inc    %ecx
 6eb:	c5 0c 04             	lds    (%esp,%eax,1),%ecx
 6ee:	04 00                	add    $0x0,%al
 6f0:	10 00                	adc    %al,(%eax)
 6f2:	00 00                	add    %al,(%eax)
 6f4:	ff                   	(bad)  
 6f5:	ff                   	(bad)  
 6f6:	ff                   	(bad)  
 6f7:	ff 01                	incl   (%ecx)
 6f9:	00 01                	add    %al,(%ecx)
 6fb:	7c 08                	jl     705 <MULTIBOOT_HEADER_FLAGS+0x702>
 6fd:	0c 04                	or     $0x4,%al
 6ff:	04 88                	add    $0x88,%al
 701:	01 00                	add    %eax,(%eax)
 703:	00 20                	add    %ah,(%eax)
 705:	00 00                	add    %al,(%eax)
 707:	00 f0                	add    %dh,%al
 709:	06                   	push   %es
 70a:	00 00                	add    %al,(%eax)
 70c:	68 54 10 00 81       	push   $0x81001054
 711:	00 00                	add    %al,(%eax)
 713:	00 41 0e             	add    %al,0xe(%ecx)
 716:	08 42 85             	or     %al,-0x7b(%edx)
 719:	02 0d 05 55 83 03    	add    0x3835505,%cl
 71f:	02 67 c3             	add    -0x3d(%edi),%ah
 722:	41                   	inc    %ecx
 723:	c5 0c 04             	lds    (%esp,%eax,1),%ecx
 726:	04 00                	add    $0x0,%al
 728:	10 00                	adc    %al,(%eax)
 72a:	00 00                	add    %al,(%eax)
 72c:	ff                   	(bad)  
 72d:	ff                   	(bad)  
 72e:	ff                   	(bad)  
 72f:	ff 01                	incl   (%ecx)
 731:	00 01                	add    %al,(%ecx)
 733:	7c 08                	jl     73d <MULTIBOOT_HEADER_FLAGS+0x73a>
 735:	0c 04                	or     $0x4,%al
 737:	04 88                	add    $0x88,%al
 739:	01 00                	add    %eax,(%eax)
 73b:	00 18                	add    %bl,(%eax)
 73d:	00 00                	add    %al,(%eax)
 73f:	00 28                	add    %ch,(%eax)
 741:	07                   	pop    %es
 742:	00 00                	add    %al,(%eax)
 744:	ec                   	in     (%dx),%al
 745:	54                   	push   %esp
 746:	10 00                	adc    %al,(%eax)
 748:	53                   	push   %ebx
 749:	02 00                	add    (%eax),%al
 74b:	00 41 0e             	add    %al,0xe(%ecx)
 74e:	08 42 85             	or     %al,-0x7b(%edx)
 751:	02 0d 05 46 83 03    	add    0x3834605,%cl
 757:	00 28                	add    %ch,(%eax)
 759:	00 00                	add    %al,(%eax)
 75b:	00 28                	add    %ch,(%eax)
 75d:	07                   	pop    %es
 75e:	00 00                	add    %al,(%eax)
 760:	3f                   	aas    
 761:	57                   	push   %edi
 762:	10 00                	adc    %al,(%eax)
 764:	07                   	pop    %es
 765:	01 00                	add    %eax,(%eax)
 767:	00 41 0e             	add    %al,0xe(%ecx)
 76a:	08 42 85             	or     %al,-0x7b(%edx)
 76d:	02 0d 05 7c 83 05    	add    0x5837c05,%cl
 773:	86 04 87             	xchg   %al,(%edi,%eax,4)
 776:	03 02                	add    (%edx),%eax
 778:	c4 c3 41 c6          	(bad)  
 77c:	41                   	inc    %ecx
 77d:	c7 41 c5 0c 04 04 00 	movl   $0x4040c,-0x3b(%ecx)
 784:	28 00                	sub    %al,(%eax)
 786:	00 00                	add    %al,(%eax)
 788:	28 07                	sub    %al,(%edi)
 78a:	00 00                	add    %al,(%eax)
 78c:	46                   	inc    %esi
 78d:	58                   	pop    %eax
 78e:	10 00                	adc    %al,(%eax)
 790:	6e                   	outsb  %ds:(%esi),(%dx)
 791:	00 00                	add    %al,(%eax)
 793:	00 41 0e             	add    %al,0xe(%ecx)
 796:	08 42 85             	or     %al,-0x7b(%edx)
 799:	02 0d 05 76 83 05    	add    0x5837605,%cl
 79f:	86 04 87             	xchg   %al,(%edi,%eax,4)
 7a2:	03 71 c3             	add    -0x3d(%ecx),%esi
 7a5:	41                   	inc    %ecx
 7a6:	c6 41 c7 41          	movb   $0x41,-0x39(%ecx)
 7aa:	c5 0c 04             	lds    (%esp,%eax,1),%ecx
 7ad:	04 00                	add    $0x0,%al
	...

Disassembly of section .debug_str:

00000000 <.debug_str>:
   0:	68 64 5f 62 75       	push   $0x75625f64
   5:	66                   	data16
   6:	00 64 6f 5f          	add    %ah,0x5f(%edi,%ebp,2)
   a:	64 65 62 75 67       	fs bound %esi,%fs:%gs:0x67(%ebp)
   f:	00 69 64             	add    %ch,0x64(%ecx)
  12:	74 2e                	je     42 <MULTIBOOT_HEADER_FLAGS+0x3f>
  14:	63 00                	arpl   %ax,(%eax)
  16:	70 72                	jo     8a <MULTIBOOT_HEADER_FLAGS+0x87>
  18:	6f                   	outsl  %ds:(%esi),(%dx)
  19:	63 65 73             	arpl   %sp,0x73(%ebp)
  1c:	73 00                	jae    1e <MULTIBOOT_HEADER_FLAGS+0x1b>
  1e:	69 64 74 5f 70 74 72 	imul   $0x727470,0x5f(%esp,%esi,2),%esp
  25:	00 
  26:	70 72                	jo     9a <MULTIBOOT_HEADER_FLAGS+0x97>
  28:	69 6f 72 69 74 79 00 	imul   $0x797469,0x72(%edi),%ebp
  2f:	65                   	gs
  30:	78 5f                	js     91 <MULTIBOOT_HEADER_FLAGS+0x8e>
  32:	74 73                	je     a7 <MULTIBOOT_HEADER_FLAGS+0xa4>
  34:	73 00                	jae    36 <MULTIBOOT_HEADER_FLAGS+0x33>
  36:	73 74                	jae    ac <MULTIBOOT_HEADER_FLAGS+0xa9>
  38:	61                   	popa   
  39:	74 65                	je     a0 <MULTIBOOT_HEADER_FLAGS+0x9d>
  3b:	00 73 68             	add    %dh,0x68(%ebx)
  3e:	6f                   	outsl  %ds:(%esi),(%dx)
  3f:	72 74                	jb     b5 <MULTIBOOT_HEADER_FLAGS+0xb2>
  41:	20 69 6e             	and    %ch,0x6e(%ecx)
  44:	74 00                	je     46 <MULTIBOOT_HEADER_FLAGS+0x43>
  46:	6b 65 72 6e          	imul   $0x6e,0x72(%ebp),%esp
  4a:	65                   	gs
  4b:	6c                   	insb   (%dx),%es:(%edi)
  4c:	5f                   	pop    %edi
  4d:	73 74                	jae    c3 <MULTIBOOT_HEADER_FLAGS+0xc0>
  4f:	61                   	popa   
  50:	63 6b 00             	arpl   %bp,0x0(%ebx)
  53:	65                   	gs
  54:	66                   	data16
  55:	6c                   	insb   (%dx),%es:(%edi)
  56:	61                   	popa   
  57:	67 73 00             	addr16 jae 5a <MULTIBOOT_HEADER_FLAGS+0x57>
  5a:	5f                   	pop    %edi
  5b:	74 69                	je     c6 <MULTIBOOT_HEADER_FLAGS+0xc3>
  5d:	63 6b 00             	arpl   %bp,0x0(%ebx)
  60:	74 73                	je     d5 <MULTIBOOT_HEADER_FLAGS+0xd2>
  62:	73 5f                	jae    c3 <MULTIBOOT_HEADER_FLAGS+0xc0>
  64:	73 65                	jae    cb <MULTIBOOT_HEADER_FLAGS+0xc8>
  66:	6c                   	insb   (%dx),%es:(%edi)
  67:	65 63 74 6f 72       	arpl   %si,%gs:0x72(%edi,%ebp,2)
  6c:	00 64 6f 5f          	add    %ah,0x5f(%edi,%ebp,2)
  70:	73 69                	jae    db <MULTIBOOT_HEADER_FLAGS+0xd8>
  72:	6d                   	insl   (%dx),%es:(%edi)
  73:	64                   	fs
  74:	5f                   	pop    %edi
  75:	66 61                	popaw  
  77:	75 6c                	jne    e5 <MULTIBOOT_HEADER_FLAGS+0xe2>
  79:	74 00                	je     7b <MULTIBOOT_HEADER_FLAGS+0x78>
  7b:	70 5f                	jo     dc <MULTIBOOT_HEADER_FLAGS+0xd9>
  7d:	69 6e 74 00 74 61 73 	imul   $0x73617400,0x74(%esi),%ebp
  84:	6b 5f 73 74          	imul   $0x74,0x73(%edi),%ebx
  88:	72 75                	jb     ff <MULTIBOOT_HEADER_FLAGS+0xfc>
  8a:	63 74 00 64          	arpl   %si,0x64(%eax,%eax,1)
  8e:	6f                   	outsl  %ds:(%esi),(%dx)
  8f:	5f                   	pop    %edi
  90:	6d                   	insl   (%dx),%es:(%edi)
  91:	61                   	popa   
  92:	63 68 69             	arpl   %bp,0x69(%eax)
  95:	6e                   	outsb  %ds:(%esi),(%dx)
  96:	65                   	gs
  97:	5f                   	pop    %edi
  98:	63 68 65             	arpl   %bp,0x65(%eax)
  9b:	63 6b 00             	arpl   %bp,0x0(%ebx)
  9e:	64 6f                	outsl  %fs:(%esi),(%dx)
  a0:	5f                   	pop    %edi
  a1:	75 6e                	jne    111 <MULTIBOOT_HEADER_FLAGS+0x10e>
  a3:	64 65 66 69 6e 65 00 	fs imul $0x6c00,%fs:%gs:0x65(%esi),%bp
  aa:	6c 
  ab:	69 6d 69 74 5f 68 00 	imul   $0x685f74,0x69(%ebp),%ebp
  b2:	6c                   	insb   (%dx),%es:(%edi)
  b3:	69 6d 69 74 5f 6c 00 	imul   $0x6c5f74,0x69(%ebp),%ebp
  ba:	73 6c                	jae    128 <MULTIBOOT_HEADER_FLAGS+0x125>
  bc:	69 63 65 5f 6c 65 66 	imul   $0x66656c5f,0x65(%ebx),%esp
  c3:	74 00                	je     c5 <MULTIBOOT_HEADER_FLAGS+0xc2>
  c5:	64 6f                	outsl  %fs:(%esi),(%dx)
  c7:	5f                   	pop    %edi
  c8:	62 72 65             	bound  %esi,0x65(%edx)
  cb:	61                   	popa   
  cc:	6b 70 6f 69          	imul   $0x69,0x6f(%eax),%esi
  d0:	6e                   	outsb  %ds:(%esi),(%dx)
  d1:	74 00                	je     d3 <MULTIBOOT_HEADER_FLAGS+0xd0>
  d3:	64 6f                	outsl  %fs:(%esi),(%dx)
  d5:	5f                   	pop    %edi
  d6:	67 65 6e             	outsb  %gs:(%si),(%dx)
  d9:	65                   	gs
  da:	72 61                	jb     13d <MULTIBOOT_HEADER_FLAGS+0x13a>
  dc:	6c                   	insb   (%dx),%es:(%edi)
  dd:	5f                   	pop    %edi
  de:	70 72                	jo     152 <MULTIBOOT_HEADER_FLAGS+0x14f>
  e0:	6f                   	outsl  %ds:(%esi),(%dx)
  e1:	74 65                	je     148 <MULTIBOOT_HEADER_FLAGS+0x145>
  e3:	63 74 00 65          	arpl   %si,0x65(%eax,%eax,1)
  e7:	72 72                	jb     15b <MULTIBOOT_HEADER_FLAGS+0x158>
  e9:	6f                   	outsl  %ds:(%esi),(%dx)
  ea:	72 5f                	jb     14b <MULTIBOOT_HEADER_FLAGS+0x148>
  ec:	63 6f 64             	arpl   %bp,0x64(%edi)
  ef:	65 00 64 6f 5f       	add    %ah,%gs:0x5f(%edi,%ebp,2)
  f4:	64 6f                	outsl  %fs:(%esi),(%dx)
  f6:	75 62                	jne    15a <MULTIBOOT_HEADER_FLAGS+0x157>
  f8:	6c                   	insb   (%dx),%es:(%edi)
  f9:	65                   	gs
  fa:	66 61                	popaw  
  fc:	75 6c                	jne    16a <MULTIBOOT_HEADER_FLAGS+0x167>
  fe:	74 00                	je     100 <MULTIBOOT_HEADER_FLAGS+0xfd>
 100:	74 6d                	je     16f <MULTIBOOT_HEADER_FLAGS+0x16c>
 102:	5f                   	pop    %edi
 103:	68 6f 75 72 00       	push   $0x72756f
 108:	74 6d                	je     177 <MULTIBOOT_HEADER_FLAGS+0x174>
 10a:	5f                   	pop    %edi
 10b:	6d                   	insl   (%dx),%es:(%edi)
 10c:	6f                   	outsl  %ds:(%esi),(%dx)
 10d:	6e                   	outsb  %ds:(%esi),(%dx)
 10e:	00 6c 6f 6e          	add    %ch,0x6e(%edi,%ebp,2)
 112:	67 20 6c 6f          	and    %ch,0x6f(%si)
 116:	6e                   	outsb  %ds:(%esi),(%dx)
 117:	67 20 75 6e          	and    %dh,0x6e(%di)
 11b:	73 69                	jae    186 <MULTIBOOT_HEADER_FLAGS+0x183>
 11d:	67 6e                	outsb  %ds:(%si),(%dx)
 11f:	65 64 20 69 6e       	gs and %ch,%fs:%gs:0x6e(%ecx)
 124:	74 00                	je     126 <MULTIBOOT_HEADER_FLAGS+0x123>
 126:	70 5f                	jo     187 <MULTIBOOT_HEADER_FLAGS+0x184>
 128:	63 6f 75             	arpl   %bp,0x75(%edi)
 12b:	6e                   	outsb  %ds:(%esi),(%dx)
 12c:	74 00                	je     12e <MULTIBOOT_HEADER_FLAGS+0x12b>
 12e:	73 79                	jae    1a9 <MULTIBOOT_HEADER_FLAGS+0x1a6>
 130:	73 5f                	jae    191 <MULTIBOOT_HEADER_FLAGS+0x18e>
 132:	63 61 6c             	arpl   %sp,0x6c(%ecx)
 135:	6c                   	insb   (%dx),%es:(%edi)
 136:	00 64 6f 5f          	add    %ah,0x5f(%edi,%ebp,2)
 13a:	73 74                	jae    1b0 <MULTIBOOT_HEADER_FLAGS+0x1ad>
 13c:	61                   	popa   
 13d:	63 6b 5f             	arpl   %bp,0x5f(%ebx)
 140:	66 61                	popaw  
 142:	75 6c                	jne    1b0 <MULTIBOOT_HEADER_FLAGS+0x1ad>
 144:	74 00                	je     146 <MULTIBOOT_HEADER_FLAGS+0x143>
 146:	75 6e                	jne    1b6 <MULTIBOOT_HEADER_FLAGS+0x1b3>
 148:	73 69                	jae    1b3 <MULTIBOOT_HEADER_FLAGS+0x1b0>
 14a:	67 6e                	outsb  %ds:(%si),(%dx)
 14c:	65 64 20 63 68       	gs and %ah,%fs:%gs:0x68(%ebx)
 151:	61                   	popa   
 152:	72 00                	jb     154 <MULTIBOOT_HEADER_FLAGS+0x151>
 154:	6e                   	outsb  %ds:(%esi),(%dx)
 155:	5f                   	pop    %edi
 156:	67                   	addr16
 157:	64                   	fs
 158:	74 00                	je     15a <MULTIBOOT_HEADER_FLAGS+0x157>
 15a:	64 6f                	outsl  %fs:(%esi),(%dx)
 15c:	5f                   	pop    %edi
 15d:	6f                   	outsl  %ds:(%esi),(%dx)
 15e:	76 65                	jbe    1c5 <MULTIBOOT_HEADER_FLAGS+0x1c2>
 160:	72 66                	jb     1c8 <MULTIBOOT_HEADER_FLAGS+0x1c5>
 162:	6c                   	insb   (%dx),%es:(%edi)
 163:	6f                   	outsl  %ds:(%esi),(%dx)
 164:	77 00                	ja     166 <MULTIBOOT_HEADER_FLAGS+0x163>
 166:	67 61                	addr16 popa 
 168:	74 65                	je     1cf <MULTIBOOT_HEADER_FLAGS+0x1cc>
 16a:	00 64 6f 5f          	add    %ah,0x5f(%edi,%ebp,2)
 16e:	6e                   	outsb  %ds:(%esi),(%dx)
 16f:	6f                   	outsl  %ds:(%esi),(%dx)
 170:	6d                   	insl   (%dx),%es:(%edi)
 171:	00 74 6d 5f          	add    %dh,0x5f(%ebp,%ebp,2)
 175:	6d                   	insl   (%dx),%es:(%edi)
 176:	64                   	fs
 177:	61                   	popa   
 178:	79 00                	jns    17a <MULTIBOOT_HEADER_FLAGS+0x177>
 17a:	69 6e 69 74 5f 69 64 	imul   $0x64695f74,0x69(%esi),%ebp
 181:	74 00                	je     183 <MULTIBOOT_HEADER_FLAGS+0x180>
 183:	74 79                	je     1fe <MULTIBOOT_HEADER_FLAGS+0x1fb>
 185:	70 65                	jo     1ec <MULTIBOOT_HEADER_FLAGS+0x1e9>
 187:	00 68 61             	add    %ch,0x61(%eax)
 18a:	6e                   	outsb  %ds:(%esi),(%dx)
 18b:	64                   	fs
 18c:	6c                   	insb   (%dx),%es:(%edi)
 18d:	65                   	gs
 18e:	72 73                	jb     203 <MULTIBOOT_HEADER_FLAGS+0x200>
 190:	00 62 61             	add    %ah,0x61(%edx)
 193:	73 65                	jae    1fa <MULTIBOOT_HEADER_FLAGS+0x1f7>
 195:	5f                   	pop    %edi
 196:	68 00 64 6f 5f       	push   $0x5f6f6400
 19b:	6f                   	outsl  %ds:(%esi),(%dx)
 19c:	76 65                	jbe    203 <MULTIBOOT_HEADER_FLAGS+0x200>
 19e:	72 62                	jb     202 <MULTIBOOT_HEADER_FLAGS+0x1ff>
 1a0:	6f                   	outsl  %ds:(%esi),(%dx)
 1a1:	75 6e                	jne    211 <MULTIBOOT_HEADER_FLAGS+0x20e>
 1a3:	64 00 62 61          	add    %ah,%fs:0x61(%edx)
 1a7:	73 65                	jae    20e <MULTIBOOT_HEADER_FLAGS+0x20b>
 1a9:	5f                   	pop    %edi
 1aa:	6c                   	insb   (%dx),%es:(%edi)
 1ab:	00 62 61             	add    %ah,0x61(%edx)
 1ae:	73 65                	jae    215 <MULTIBOOT_HEADER_FLAGS+0x212>
 1b0:	5f                   	pop    %edi
 1b1:	6d                   	insl   (%dx),%es:(%edi)
 1b2:	00 73 6c             	add    %dh,0x6c(%ebx)
 1b5:	69 63 65 5f 75 73 65 	imul   $0x6573755f,0x65(%ebx),%esp
 1bc:	64 00 73 68          	add    %dh,%fs:0x68(%ebx)
 1c0:	6f                   	outsl  %ds:(%esi),(%dx)
 1c1:	72 74                	jb     237 <MULTIBOOT_HEADER_FLAGS+0x234>
 1c3:	20 75 6e             	and    %dh,0x6e(%ebp)
 1c6:	73 69                	jae    231 <MULTIBOOT_HEADER_FLAGS+0x22e>
 1c8:	67 6e                	outsb  %ds:(%si),(%dx)
 1ca:	65 64 20 69 6e       	gs and %ch,%fs:%gs:0x6e(%ecx)
 1cf:	74 00                	je     1d1 <MULTIBOOT_HEADER_FLAGS+0x1ce>
 1d1:	74 6d                	je     240 <MULTIBOOT_HEADER_FLAGS+0x23d>
 1d3:	5f                   	pop    %edi
 1d4:	79 65                	jns    23b <MULTIBOOT_HEADER_FLAGS+0x238>
 1d6:	61                   	popa   
 1d7:	72 00                	jb     1d9 <MULTIBOOT_HEADER_FLAGS+0x1d6>
 1d9:	65                   	gs
 1da:	73 70                	jae    24c <MULTIBOOT_HEADER_FLAGS+0x249>
 1dc:	30 00                	xor    %al,(%eax)
 1de:	65                   	gs
 1df:	73 70                	jae    251 <MULTIBOOT_HEADER_FLAGS+0x24e>
 1e1:	31 00                	xor    %eax,(%eax)
 1e3:	65                   	gs
 1e4:	73 70                	jae    256 <MULTIBOOT_HEADER_FLAGS+0x253>
 1e6:	32 00                	xor    (%eax),%al
 1e8:	73 69                	jae    253 <MULTIBOOT_HEADER_FLAGS+0x250>
 1ea:	67 6e                	outsb  %ds:(%si),(%dx)
 1ec:	61                   	popa   
 1ed:	6c                   	insb   (%dx),%es:(%edi)
 1ee:	00 64 6f 5f          	add    %ah,0x5f(%edi,%ebp,2)
 1f2:	69 6e 74 5f 68 64 00 	imul   $0x64685f,0x74(%esi),%ebp
 1f9:	2f                   	das    
 1fa:	68 6f 6d 65 2f       	push   $0x2f656d6f
 1ff:	63 75 69             	arpl   %si,0x69(%ebp)
 202:	2f                   	das    
 203:	6e                   	outsb  %ds:(%esi),(%dx)
 204:	65                   	gs
 205:	77 5f                	ja     266 <MULTIBOOT_HEADER_FLAGS+0x263>
 207:	61                   	popa   
 208:	67                   	addr16
 209:	65                   	gs
 20a:	2f                   	das    
 20b:	65 6f                	outsl  %gs:(%esi),(%dx)
 20d:	73 2f                	jae    23e <MULTIBOOT_HEADER_FLAGS+0x23b>
 20f:	73 72                	jae    283 <MULTIBOOT_HEADER_FLAGS+0x280>
 211:	63 00                	arpl   %ax,(%eax)
 213:	64 6f                	outsl  %fs:(%esi),(%dx)
 215:	5f                   	pop    %edi
 216:	64 69 76 5f 65 72 72 	imul   $0x6f727265,%fs:0x5f(%esi),%esi
 21d:	6f 
 21e:	72 00                	jb     220 <MULTIBOOT_HEADER_FLAGS+0x21d>
 220:	64 6f                	outsl  %fs:(%esi),(%dx)
 222:	5f                   	pop    %edi
 223:	6e                   	outsb  %ds:(%esi),(%dx)
 224:	6d                   	insl   (%dx),%es:(%edi)
 225:	00 64 6f 5f          	add    %ah,0x5f(%edi,%ebp,2)
 229:	69 6e 74 5f 74 69 6d 	imul   $0x6d69745f,0x74(%esi),%ebp
 230:	65                   	gs
 231:	72 00                	jb     233 <MULTIBOOT_HEADER_FLAGS+0x230>
 233:	74 6d                	je     2a2 <MULTIBOOT_HEADER_FLAGS+0x29f>
 235:	5f                   	pop    %edi
 236:	6d                   	insl   (%dx),%es:(%edi)
 237:	69 6e 00 75 73 65 72 	imul   $0x72657375,0x0(%esi),%ebp
 23e:	5f                   	pop    %edi
 23f:	73 74                	jae    2b5 <MULTIBOOT_HEADER_FLAGS+0x2b2>
 241:	61                   	popa   
 242:	63 6b 00             	arpl   %bp,0x0(%ebx)
 245:	47                   	inc    %edi
 246:	4e                   	dec    %esi
 247:	55                   	push   %ebp
 248:	20 43 20             	and    %al,0x20(%ebx)
 24b:	34 2e                	xor    $0x2e,%al
 24d:	35 2e 32 00 69       	xor    $0x6900322e,%eax
 252:	6f                   	outsl  %ds:(%esi),(%dx)
 253:	5f                   	pop    %edi
 254:	62 61 73             	bound  %esp,0x73(%ecx)
 257:	65 00 6f 66          	add    %ch,%gs:0x66(%edi)
 25b:	66                   	data16
 25c:	73 65                	jae    2c3 <MULTIBOOT_HEADER_FLAGS+0x2c0>
 25e:	74 5f                	je     2bf <MULTIBOOT_HEADER_FLAGS+0x2bc>
 260:	68 00 6f 66 66       	push   $0x66666f00
 265:	73 65                	jae    2cc <MULTIBOOT_HEADER_FLAGS+0x2c9>
 267:	74 5f                	je     2c8 <MULTIBOOT_HEADER_FLAGS+0x2c5>
 269:	6c                   	insb   (%dx),%es:(%edi)
 26a:	00 64 6f 5f          	add    %ah,0x5f(%edi,%ebp,2)
 26e:	72 65                	jb     2d5 <MULTIBOOT_HEADER_FLAGS+0x2d2>
 270:	73 65                	jae    2d7 <MULTIBOOT_HEADER_FLAGS+0x2d4>
 272:	72 76                	jb     2ea <MULTIBOOT_HEADER_FLAGS+0x2e7>
 274:	65 00 64 6f 5f       	add    %ah,%gs:0x5f(%edi,%ebp,2)
 279:	73 65                	jae    2e0 <MULTIBOOT_HEADER_FLAGS+0x2dd>
 27b:	67 5f                	addr16 pop %edi
 27d:	66 61                	popaw  
 27f:	75 6c                	jne    2ed <MULTIBOOT_HEADER_FLAGS+0x2ea>
 281:	74 00                	je     283 <MULTIBOOT_HEADER_FLAGS+0x280>
 283:	73 63                	jae    2e8 <MULTIBOOT_HEADER_FLAGS+0x2e5>
 285:	68 65 64 75 6c       	push   $0x6c756465
 28a:	65 00 70 6f          	add    %dh,%gs:0x6f(%eax)
 28e:	73 69                	jae    2f9 <MULTIBOOT_HEADER_FLAGS+0x2f6>
 290:	74 69                	je     2fb <MULTIBOOT_HEADER_FLAGS+0x2f8>
 292:	6f                   	outsl  %ds:(%esi),(%dx)
 293:	6e                   	outsb  %ds:(%esi),(%dx)
 294:	00 64 6f 5f          	add    %ah,0x5f(%edi,%ebp,2)
 298:	74 73                	je     30d <MULTIBOOT_HEADER_FLAGS+0x30a>
 29a:	73 00                	jae    29c <MULTIBOOT_HEADER_FLAGS+0x299>
 29c:	74 6d                	je     30b <MULTIBOOT_HEADER_FLAGS+0x308>
 29e:	5f                   	pop    %edi
 29f:	73 65                	jae    306 <MULTIBOOT_HEADER_FLAGS+0x303>
 2a1:	63 00                	arpl   %ax,(%eax)
 2a3:	64 6f                	outsl  %fs:(%esi),(%dx)
 2a5:	5f                   	pop    %edi
 2a6:	61                   	popa   
 2a7:	6c                   	insb   (%dx),%es:(%edi)
 2a8:	69 67 6e 5f 63 68 65 	imul   $0x6568635f,0x6e(%edi),%esp
 2af:	63 6b 00             	arpl   %bp,0x0(%ebx)
 2b2:	64 6f                	outsl  %fs:(%esi),(%dx)
 2b4:	5f                   	pop    %edi
 2b5:	63 6f 70             	arpl   %bp,0x70(%edi)
 2b8:	00 6c 64 74          	add    %ch,0x74(%esp,%eiz,2)
 2bc:	5f                   	pop    %edi
 2bd:	73 65                	jae    324 <MULTIBOOT_HEADER_FLAGS+0x321>
 2bf:	6c                   	insb   (%dx),%es:(%edi)
 2c0:	65 63 74 6f 72       	arpl   %si,%gs:0x72(%edi,%ebp,2)
 2c5:	00 61 74             	add    %ah,0x74(%ecx)
 2c8:	74 72                	je     33c <MULTIBOOT_HEADER_FLAGS+0x339>
 2ca:	5f                   	pop    %edi
 2cb:	68 00 64 6f 5f       	push   $0x5f6f6400
 2d0:	66                   	data16
 2d1:	70 75                	jo     348 <MULTIBOOT_HEADER_FLAGS+0x345>
 2d3:	5f                   	pop    %edi
 2d4:	65                   	gs
 2d5:	72 72                	jb     349 <MULTIBOOT_HEADER_FLAGS+0x346>
 2d7:	6f                   	outsl  %ds:(%esi),(%dx)
 2d8:	72 00                	jb     2da <MULTIBOOT_HEADER_FLAGS+0x2d7>
 2da:	64                   	fs
 2db:	65                   	gs
 2dc:	73 63                	jae    341 <MULTIBOOT_HEADER_FLAGS+0x33e>
 2de:	72 69                	jb     349 <MULTIBOOT_HEADER_FLAGS+0x346>
 2e0:	70 74                	jo     356 <MULTIBOOT_HEADER_FLAGS+0x353>
 2e2:	6f                   	outsl  %ds:(%esi),(%dx)
 2e3:	72 00                	jb     2e5 <MULTIBOOT_HEADER_FLAGS+0x2e2>
 2e5:	69 6e 69 74 5f 73 68 	imul   $0x68735f74,0x69(%esi),%ebp
 2ec:	65                   	gs
 2ed:	6c                   	insb   (%dx),%es:(%edi)
 2ee:	6c                   	insb   (%dx),%es:(%edi)
 2ef:	00 64 61 74          	add    %ah,0x74(%ecx,%eiz,2)
 2f3:	61                   	popa   
 2f4:	00 6b 65             	add    %ch,0x65(%ebx)
 2f7:	72 6e                	jb     367 <MULTIBOOT_HEADER_FLAGS+0x364>
 2f9:	65                   	gs
 2fa:	6c                   	insb   (%dx),%es:(%edi)
 2fb:	5f                   	pop    %edi
 2fc:	6d                   	insl   (%dx),%es:(%edi)
 2fd:	61                   	popa   
 2fe:	69 6e 2e 63 00 67 6f 	imul   $0x6f670063,0x2e(%esi),%ebp
 305:	6f                   	outsl  %ds:(%esi),(%dx)
 306:	64 00 6d 6d          	add    %ch,%fs:0x6d(%ebp)
 30a:	5f                   	pop    %edi
 30b:	6d                   	insl   (%dx),%es:(%edi)
 30c:	61                   	popa   
 30d:	70 00                	jo     30f <MULTIBOOT_HEADER_FLAGS+0x30c>
 30f:	54                   	push   %esp
 310:	61                   	popa   
 311:	73 6b                	jae    37e <MULTIBOOT_HEADER_FLAGS+0x37b>
 313:	30 00                	xor    %al,(%eax)
 315:	69 6e 69 74 5f 70 61 	imul   $0x61705f74,0x69(%esi),%ebp
 31c:	67 65 00 54 61       	add    %dl,%gs:0x61(%si)
 321:	73 6b                	jae    38e <MULTIBOOT_HEADER_FLAGS+0x38b>
 323:	32 00                	xor    (%eax),%al
 325:	72 65                	jb     38c <MULTIBOOT_HEADER_FLAGS+0x389>
 327:	62 6f 6f             	bound  %ebp,0x6f(%edi)
 32a:	74 00                	je     32c <MULTIBOOT_HEADER_FLAGS+0x329>
 32c:	54                   	push   %esp
 32d:	61                   	popa   
 32e:	73 6b                	jae    39b <MULTIBOOT_HEADER_FLAGS+0x398>
 330:	31 00                	xor    %eax,(%eax)
 332:	6b 65 72 6e          	imul   $0x6e,0x72(%ebp),%esp
 336:	65                   	gs
 337:	6c                   	insb   (%dx),%es:(%edi)
 338:	5f                   	pop    %edi
 339:	6d                   	insl   (%dx),%es:(%edi)
 33a:	61                   	popa   
 33b:	69 6e 00 69 6e 69 74 	imul   $0x74696e69,0x0(%esi),%ebp
 342:	5f                   	pop    %edi
 343:	67                   	addr16
 344:	64                   	fs
 345:	74 00                	je     347 <MULTIBOOT_HEADER_FLAGS+0x344>
 347:	67                   	addr16
 348:	64                   	fs
 349:	74 2e                	je     379 <MULTIBOOT_HEADER_FLAGS+0x376>
 34b:	63 00                	arpl   %ax,(%eax)
 34d:	74 73                	je     3c2 <MULTIBOOT_HEADER_FLAGS+0x3bf>
 34f:	73 31                	jae    382 <MULTIBOOT_HEADER_FLAGS+0x37f>
 351:	00 67 64             	add    %ah,0x64(%edi)
 354:	74 5f                	je     3b5 <MULTIBOOT_HEADER_FLAGS+0x3b2>
 356:	70 74                	jo     3cc <MULTIBOOT_HEADER_FLAGS+0x3c9>
 358:	72 00                	jb     35a <MULTIBOOT_HEADER_FLAGS+0x357>
 35a:	6c                   	insb   (%dx),%es:(%edi)
 35b:	64                   	fs
 35c:	74 31                	je     38f <MULTIBOOT_HEADER_FLAGS+0x38c>
 35e:	00 6c 64 74          	add    %ch,0x74(%esp,%eiz,2)
 362:	30 00                	xor    %al,(%eax)
 364:	74 73                	je     3d9 <MULTIBOOT_HEADER_FLAGS+0x3d6>
 366:	73 30                	jae    398 <MULTIBOOT_HEADER_FLAGS+0x395>
 368:	00 64 6f 5f          	add    %ah,0x5f(%edi,%ebp,2)
 36c:	70 61                	jo     3cf <MULTIBOOT_HEADER_FLAGS+0x3cc>
 36e:	67                   	addr16
 36f:	65                   	gs
 370:	5f                   	pop    %edi
 371:	66 61                	popaw  
 373:	75 6c                	jne    3e1 <MULTIBOOT_HEADER_FLAGS+0x3de>
 375:	74 00                	je     377 <MULTIBOOT_HEADER_FLAGS+0x374>
 377:	6b 66 72 65          	imul   $0x65,0x72(%esi),%esp
 37b:	65                   	gs
 37c:	5f                   	pop    %edi
 37d:	70 61                	jo     3e0 <MULTIBOOT_HEADER_FLAGS+0x3dd>
 37f:	67 65 00 70 75       	add    %dh,%gs:0x75(%bx,%si)
 384:	74 5f                	je     3e5 <MULTIBOOT_HEADER_FLAGS+0x3e2>
 386:	70 61                	jo     3e9 <MULTIBOOT_HEADER_FLAGS+0x3e6>
 388:	67 65 00 70 61       	add    %dh,%gs:0x61(%bx,%si)
 38d:	67 65 2e 63 00       	gs arpl %ax,%cs:%gs:(%bx,%si)
 392:	70 67                	jo     3fb <MULTIBOOT_HEADER_FLAGS+0x3f8>
 394:	5f                   	pop    %edi
 395:	66                   	data16
 396:	72 6d                	jb     405 <MULTIBOOT_HEADER_FLAGS+0x402>
 398:	00 75 5f             	add    %dh,0x5f(%ebp)
 39b:	70 74                	jo     411 <MULTIBOOT_HEADER_FLAGS+0x40e>
 39d:	65 00 6c 6e 72       	add    %ch,%gs:0x72(%esi,%ebp,2)
 3a2:	5f                   	pop    %edi
 3a3:	70 67                	jo     40c <MULTIBOOT_HEADER_FLAGS+0x409>
 3a5:	5f                   	pop    %edi
 3a6:	61                   	popa   
 3a7:	64                   	fs
 3a8:	64                   	fs
 3a9:	72 00                	jb     3ab <MULTIBOOT_HEADER_FLAGS+0x3a8>
 3ab:	70 6f                	jo     41c <MULTIBOOT_HEADER_FLAGS+0x419>
 3ad:	73 5f                	jae    40e <MULTIBOOT_HEADER_FLAGS+0x40b>
 3af:	70 61                	jo     412 <MULTIBOOT_HEADER_FLAGS+0x40f>
 3b1:	67                   	addr16
 3b2:	65                   	gs
 3b3:	5f                   	pop    %edi
 3b4:	66 61                	popaw  
 3b6:	75 6c                	jne    424 <MULTIBOOT_HEADER_FLAGS+0x421>
 3b8:	74 00                	je     3ba <MULTIBOOT_HEADER_FLAGS+0x3b7>
 3ba:	6b 67 65 74          	imul   $0x74,0x65(%edi),%esp
 3be:	5f                   	pop    %edi
 3bf:	66                   	data16
 3c0:	72 65                	jb     427 <MULTIBOOT_HEADER_FLAGS+0x424>
 3c2:	65                   	gs
 3c3:	5f                   	pop    %edi
 3c4:	70 61                	jo     427 <MULTIBOOT_HEADER_FLAGS+0x424>
 3c6:	67 65 00 70 67       	add    %dh,%gs:0x67(%bx,%si)
 3cb:	5f                   	pop    %edi
 3cc:	64 69 72 5f 62 61 73 	imul   $0x65736162,%fs:0x5f(%edx),%esi
 3d3:	65 
 3d4:	00 70 67             	add    %dh,0x67(%eax)
 3d7:	5f                   	pop    %edi
 3d8:	64 69 72 00 70 68 5f 	imul   $0x705f6870,%fs:0x0(%edx),%esi
 3df:	70 
 3e0:	67 5f                	addr16 pop %edi
 3e2:	61                   	popa   
 3e3:	64                   	fs
 3e4:	64                   	fs
 3e5:	72 00                	jb     3e7 <MULTIBOOT_HEADER_FLAGS+0x3e4>
 3e7:	75 5f                	jne    448 <MULTIBOOT_HEADER_FLAGS+0x445>
 3e9:	70 64                	jo     44f <MULTIBOOT_HEADER_FLAGS+0x44c>
 3eb:	65 00 67 65          	add    %ah,%gs:0x65(%edi)
 3ef:	74 5f                	je     450 <MULTIBOOT_HEADER_FLAGS+0x44d>
 3f1:	70 64                	jo     457 <MULTIBOOT_HEADER_FLAGS+0x454>
 3f3:	65                   	gs
 3f4:	5f                   	pop    %edi
 3f5:	62 79 5f             	bound  %edi,0x5f(%ecx)
 3f8:	76 69                	jbe    463 <MULTIBOOT_HEADER_FLAGS+0x460>
 3fa:	72 00                	jb     3fc <MULTIBOOT_HEADER_FLAGS+0x3f9>
 3fc:	73 74                	jae    472 <MULTIBOOT_HEADER_FLAGS+0x46f>
 3fe:	72 63                	jb     463 <MULTIBOOT_HEADER_FLAGS+0x460>
 400:	70 79                	jo     47b <MULTIBOOT_HEADER_FLAGS+0x478>
 402:	00 70 6f             	add    %dh,0x6f(%eax)
 405:	73 5f                	jae    466 <MULTIBOOT_HEADER_FLAGS+0x463>
 407:	70 61                	jo     46a <MULTIBOOT_HEADER_FLAGS+0x467>
 409:	6e                   	outsb  %ds:(%esi),(%dx)
 40a:	69 63 00 62 75 66 66 	imul   $0x66667562,0x0(%ebx),%esp
 411:	65                   	gs
 412:	72 00                	jb     414 <MULTIBOOT_HEADER_FLAGS+0x411>
 414:	5f                   	pop    %edi
 415:	5f                   	pop    %edi
 416:	62 75 69             	bound  %esi,0x69(%ebp)
 419:	6c                   	insb   (%dx),%es:(%edi)
 41a:	74 69                	je     485 <MULTIBOOT_HEADER_FLAGS+0x482>
 41c:	6e                   	outsb  %ds:(%esi),(%dx)
 41d:	5f                   	pop    %edi
 41e:	76 61                	jbe    481 <MULTIBOOT_HEADER_FLAGS+0x47e>
 420:	5f                   	pop    %edi
 421:	6c                   	insb   (%dx),%es:(%edi)
 422:	69 73 74 00 77 61 69 	imul   $0x69617700,0x74(%ebx),%esi
 429:	74 5f                	je     48a <MULTIBOOT_HEADER_FLAGS+0x487>
 42b:	74 69                	je     496 <MULTIBOOT_HEADER_FLAGS+0x493>
 42d:	6d                   	insl   (%dx),%es:(%edi)
 42e:	65 00 76 73          	add    %dh,%gs:0x73(%esi)
 432:	70 72                	jo     4a6 <MULTIBOOT_HEADER_FLAGS+0x4a3>
 434:	69 6e 74 66 00 73 74 	imul   $0x74730066,0x74(%esi),%ebp
 43b:	72 63                	jb     4a0 <MULTIBOOT_HEADER_FLAGS+0x49d>
 43d:	6d                   	insl   (%dx),%es:(%edi)
 43e:	70 00                	jo     440 <MULTIBOOT_HEADER_FLAGS+0x43d>
 440:	73 74                	jae    4b6 <MULTIBOOT_HEADER_FLAGS+0x4b3>
 442:	72 32                	jb     476 <MULTIBOOT_HEADER_FLAGS+0x473>
 444:	00 69 74             	add    %ch,0x74(%ecx)
 447:	6f                   	outsl  %ds:(%esi),(%dx)
 448:	61                   	popa   
 449:	68 00 73 69 7a       	push   $0x7a697300
 44e:	65 00 5f 5f          	add    %bl,%gs:0x5f(%edi)
 452:	67 6e                	outsb  %ds:(%si),(%dx)
 454:	75 63                	jne    4b9 <MULTIBOOT_HEADER_FLAGS+0x4b6>
 456:	5f                   	pop    %edi
 457:	76 61                	jbe    4ba <MULTIBOOT_HEADER_FLAGS+0x4b7>
 459:	5f                   	pop    %edi
 45a:	6c                   	insb   (%dx),%es:(%edi)
 45b:	69 73 74 00 73 74 72 	imul   $0x72747300,0x74(%ebx),%esi
 462:	31 00                	xor    %eax,(%eax)
 464:	69 74 6f 61 00 6b 6c 	imul   $0x696c6b00,0x61(%edi,%ebp,2),%esi
 46b:	69 
 46c:	62 63 2e             	bound  %esp,0x2e(%ebx)
 46f:	63 00                	arpl   %ax,(%eax)
 471:	6d                   	insl   (%dx),%es:(%edi)
 472:	6b 5f 74 69          	imul   $0x69,0x74(%edi),%ebx
 476:	6d                   	insl   (%dx),%es:(%edi)
 477:	65 00 6d 6f          	add    %ch,%gs:0x6f(%ebp)
 47b:	6e                   	outsb  %ds:(%esi),(%dx)
 47c:	73 00                	jae    47e <MULTIBOOT_HEADER_FLAGS+0x47b>
 47e:	70 72                	jo     4f2 <MULTIBOOT_HEADER_FLAGS+0x4ef>
 480:	69 6e 74 5f 73 74 72 	imul   $0x7274735f,0x74(%esi),%ebp
 487:	00 74 69 6d          	add    %dh,0x6d(%ecx,%ebp,2)
 48b:	65 2e 63 00          	gs arpl %ax,%cs:%gs:(%eax)
 48f:	69 6e 69 74 5f 74 69 	imul   $0x69745f74,0x69(%esi),%ebp
 496:	6d                   	insl   (%dx),%es:(%edi)
 497:	65 00 73 74          	add    %dh,%gs:0x74(%ebx)
 49b:	61                   	popa   
 49c:	72 74                	jb     512 <MULTIBOOT_HEADER_FLAGS+0x50f>
 49e:	75 70                	jne    510 <MULTIBOOT_HEADER_FLAGS+0x50d>
 4a0:	5f                   	pop    %edi
 4a1:	74 69                	je     50c <MULTIBOOT_HEADER_FLAGS+0x509>
 4a3:	6d                   	insl   (%dx),%es:(%edi)
 4a4:	65 00 73 63          	add    %dh,%gs:0x63(%ebx)
 4a8:	68 65 64 2e 63       	push   $0x632e6465
 4ad:	00 5f 5f             	add    %bl,0x5f(%edi)
 4b0:	74 6d                	je     51f <MULTIBOOT_HEADER_FLAGS+0x51c>
 4b2:	70 00                	jo     4b4 <MULTIBOOT_HEADER_FLAGS+0x4b1>
 4b4:	63 75 72             	arpl   %si,0x72(%ebp)
 4b7:	72 65                	jb     51e <MULTIBOOT_HEADER_FLAGS+0x51b>
 4b9:	6e                   	outsb  %ds:(%esi),(%dx)
 4ba:	74 00                	je     4bc <MULTIBOOT_HEADER_FLAGS+0x4b9>
 4bc:	6c                   	insb   (%dx),%es:(%edi)
 4bd:	6f                   	outsl  %ds:(%esi),(%dx)
 4be:	6e                   	outsb  %ds:(%esi),(%dx)
 4bf:	67 20 6c 6f          	and    %ch,0x6f(%si)
 4c3:	6e                   	outsb  %ds:(%esi),(%dx)
 4c4:	67 20 69 6e          	and    %ch,0x6e(%bx,%di)
 4c8:	74 00                	je     4ca <MULTIBOOT_HEADER_FLAGS+0x4c7>
 4ca:	68 64 5f 72 71       	push   $0x71725f64
 4cf:	5f                   	pop    %edi
 4d0:	63 75 72             	arpl   %si,0x72(%ebp)
 4d3:	00 69 6e             	add    %ch,0x6e(%ecx)
 4d6:	69 74 5f 68 64 00 68 	imul   $0x64680064,0x68(%edi,%ebx,2),%esi
 4dd:	64 
 4de:	2e 63 00             	arpl   %ax,%cs:(%eax)
 4e1:	6d                   	insl   (%dx),%es:(%edi)
 4e2:	61                   	popa   
 4e3:	73 6b                	jae    550 <MULTIBOOT_HEADER_FLAGS+0x54d>
 4e5:	00 64 6f 5f          	add    %ah,0x5f(%edi,%ebp,2)
 4e9:	68 64 00 66 65       	push   $0x65660064
 4ee:	61                   	popa   
 4ef:	74 75                	je     566 <MULTIBOOT_HEADER_FLAGS+0x563>
 4f1:	72 65                	jb     558 <MULTIBOOT_HEADER_FLAGS+0x555>
 4f3:	73 00                	jae    4f5 <MULTIBOOT_HEADER_FLAGS+0x4f2>
 4f5:	68 64 5f 72 65       	push   $0x65725f64
 4fa:	71 75                	jno    571 <MULTIBOOT_HEADER_FLAGS+0x56e>
 4fc:	65                   	gs
 4fd:	73 74                	jae    573 <MULTIBOOT_HEADER_FLAGS+0x570>
 4ff:	00 63 6f             	add    %ah,0x6f(%ebx)
 502:	6d                   	insl   (%dx),%es:(%edi)
 503:	6d                   	insl   (%dx),%es:(%edi)
 504:	61                   	popa   
 505:	6e                   	outsb  %ds:(%esi),(%dx)
 506:	64 00 64 65 76       	add    %ah,%fs:0x76(%ebp,%eiz,2)
 50b:	69 63 65 00 68 64 5f 	imul   $0x5f646800,0x65(%ebx),%esp
 512:	6f                   	outsl  %ds:(%esi),(%dx)
 513:	75 74                	jne    589 <MULTIBOOT_HEADER_FLAGS+0x586>
 515:	00 64 6f 5f          	add    %ah,0x5f(%edi,%ebp,2)
 519:	69 6e 74 5f 6b 65 79 	imul   $0x79656b5f,0x74(%esi),%ebp
 520:	62 6f 61             	bound  %ebp,0x61(%edi)
 523:	72 64                	jb     589 <MULTIBOOT_HEADER_FLAGS+0x586>
 525:	00 68 65             	add    %ch,0x65(%eax)
 528:	61                   	popa   
 529:	64 00 6b 65          	add    %ch,%fs:0x65(%ebx)
 52d:	79 62                	jns    591 <MULTIBOOT_HEADER_FLAGS+0x58e>
 52f:	6f                   	outsl  %ds:(%esi),(%dx)
 530:	61                   	popa   
 531:	72 64                	jb     597 <MULTIBOOT_HEADER_FLAGS+0x594>
 533:	2e 63 00             	arpl   %ax,%cs:(%eax)
 536:	6b 65 79 62          	imul   $0x62,0x79(%ebp),%esp
 53a:	6f                   	outsl  %ds:(%esi),(%dx)
 53b:	61                   	popa   
 53c:	72 64                	jb     5a2 <MULTIBOOT_HEADER_FLAGS+0x59f>
 53e:	5f                   	pop    %edi
 53f:	62 75 66             	bound  %esi,0x66(%ebp)
 542:	00 70 5f             	add    %dh,0x5f(%eax)
 545:	6f                   	outsl  %ds:(%esi),(%dx)
 546:	75 74                	jne    5bc <MULTIBOOT_HEADER_FLAGS+0x5b9>
 548:	00 73 63             	add    %dh,0x63(%ebx)
 54b:	72 65                	jb     5b2 <MULTIBOOT_HEADER_FLAGS+0x5af>
 54d:	65 6e                	outsb  %gs:(%esi),(%dx)
 54f:	00 74 61 69          	add    %dh,0x69(%ecx,%eiz,2)
 553:	6c                   	insb   (%dx),%es:(%edi)
 554:	00 63 68             	add    %ah,0x68(%ebx)
 557:	5f                   	pop    %edi
 558:	73 63                	jae    5bd <MULTIBOOT_HEADER_FLAGS+0x5ba>
 55a:	61                   	popa   
 55b:	6e                   	outsb  %ds:(%esi),(%dx)
 55c:	00 66 72             	add    %ah,0x72(%esi)
 55f:	6f                   	outsl  %ds:(%esi),(%dx)
 560:	6d                   	insl   (%dx),%es:(%edi)
 561:	00 73 68             	add    %dh,0x68(%ebx)
 564:	65                   	gs
 565:	6c                   	insb   (%dx),%es:(%edi)
 566:	6c                   	insb   (%dx),%es:(%edi)
 567:	2e 63 00             	arpl   %ax,%cs:(%eax)
 56a:	73 63                	jae    5cf <MULTIBOOT_HEADER_FLAGS+0x5cc>
 56c:	61                   	popa   
 56d:	6e                   	outsb  %ds:(%esi),(%dx)
 56e:	5f                   	pop    %edi
 56f:	63 6f 64             	arpl   %bp,0x64(%edi)
 572:	65 00 6f 75          	add    %ch,%gs:0x75(%edi)
 576:	74 70                	je     5e8 <MULTIBOOT_HEADER_FLAGS+0x5e5>
 578:	75 74                	jne    5ee <MULTIBOOT_HEADER_FLAGS+0x5eb>
 57a:	5f                   	pop    %edi
 57b:	70 6f                	jo     5ec <MULTIBOOT_HEADER_FLAGS+0x5e9>
 57d:	73 00                	jae    57f <MULTIBOOT_HEADER_FLAGS+0x57c>
 57f:	6b 65 79 6d          	imul   $0x6d,0x79(%ebp),%esp
 583:	61                   	popa   
 584:	70 00                	jo     586 <MULTIBOOT_HEADER_FLAGS+0x583>
 586:	68 69 6e 74 00       	push   $0x746e69
 58b:	6b 65 79 5f          	imul   $0x5f,0x79(%ebp),%esp
 58f:	66                   	data16
 590:	6c                   	insb   (%dx),%es:(%edi)
 591:	61                   	popa   
 592:	67 73 00             	addr16 jae 595 <MULTIBOOT_HEADER_FLAGS+0x592>
 595:	63 6f 6c             	arpl   %bp,0x6c(%edi)
 598:	6f                   	outsl  %ds:(%esi),(%dx)
 599:	72 00                	jb     59b <MULTIBOOT_HEADER_FLAGS+0x598>
 59b:	74 61                	je     5fe <MULTIBOOT_HEADER_FLAGS+0x5fb>
 59d:	73 6b                	jae    60a <MULTIBOOT_HEADER_FLAGS+0x607>
 59f:	5f                   	pop    %edi
 5a0:	73 68                	jae    60a <MULTIBOOT_HEADER_FLAGS+0x607>
 5a2:	65                   	gs
 5a3:	6c                   	insb   (%dx),%es:(%edi)
 5a4:	6c                   	insb   (%dx),%es:(%edi)
 5a5:	00 6d 6f             	add    %ch,0x6f(%ebp)
 5a8:	76 65                	jbe    60f <MULTIBOOT_HEADER_FLAGS+0x60c>
 5aa:	5f                   	pop    %edi
 5ab:	74 6f                	je     61c <MULTIBOOT_HEADER_FLAGS+0x619>
 5ad:	5f                   	pop    %edi
 5ae:	74 6f                	je     61f <MULTIBOOT_HEADER_FLAGS+0x61c>
 5b0:	70 00                	jo     5b2 <MULTIBOOT_HEADER_FLAGS+0x5af>

Disassembly of section .debug_loc:

00000000 <.debug_loc>:
   0:	00 00                	add    %al,(%eax)
   2:	00 00                	add    %al,(%eax)
   4:	01 00                	add    %eax,(%eax)
   6:	00 00                	add    %al,(%eax)
   8:	02 00                	add    (%eax),%al
   a:	74 04                	je     10 <MULTIBOOT_HEADER_FLAGS+0xd>
   c:	01 00                	add    %eax,(%eax)
   e:	00 00                	add    %al,(%eax)
  10:	03 00                	add    (%eax),%eax
  12:	00 00                	add    %al,(%eax)
  14:	02 00                	add    (%eax),%al
  16:	74 08                	je     20 <MULTIBOOT_HEADER_FLAGS+0x1d>
  18:	03 00                	add    (%eax),%eax
  1a:	00 00                	add    %al,(%eax)
  1c:	04 00                	add    $0x0,%al
  1e:	00 00                	add    %al,(%eax)
  20:	02 00                	add    (%eax),%al
  22:	75 08                	jne    2c <MULTIBOOT_HEADER_FLAGS+0x29>
  24:	04 00                	add    $0x0,%al
  26:	00 00                	add    %al,(%eax)
  28:	05 00 00 00 02       	add    $0x2000000,%eax
  2d:	00 74 04 00          	add    %dh,0x0(%esp,%eax,1)
  31:	00 00                	add    %al,(%eax)
  33:	00 00                	add    %al,(%eax)
  35:	00 00                	add    %al,(%eax)
  37:	00 05 00 00 00 06    	add    %al,0x6000000
  3d:	00 00                	add    %al,(%eax)
  3f:	00 02                	add    %al,(%edx)
  41:	00 74 04 06          	add    %dh,0x6(%esp,%eax,1)
  45:	00 00                	add    %al,(%eax)
  47:	00 08                	add    %cl,(%eax)
  49:	00 00                	add    %al,(%eax)
  4b:	00 02                	add    %al,(%edx)
  4d:	00 74 08 08          	add    %dh,0x8(%eax,%ecx,1)
  51:	00 00                	add    %al,(%eax)
  53:	00 09                	add    %cl,(%ecx)
  55:	00 00                	add    %al,(%eax)
  57:	00 02                	add    %al,(%edx)
  59:	00 75 08             	add    %dh,0x8(%ebp)
  5c:	09 00                	or     %eax,(%eax)
  5e:	00 00                	add    %al,(%eax)
  60:	0a 00                	or     (%eax),%al
  62:	00 00                	add    %al,(%eax)
  64:	02 00                	add    (%eax),%al
  66:	74 04                	je     6c <MULTIBOOT_HEADER_FLAGS+0x69>
	...
  70:	0a 00                	or     (%eax),%al
  72:	00 00                	add    %al,(%eax)
  74:	0b 00                	or     (%eax),%eax
  76:	00 00                	add    %al,(%eax)
  78:	02 00                	add    (%eax),%al
  7a:	74 04                	je     80 <MULTIBOOT_HEADER_FLAGS+0x7d>
  7c:	0b 00                	or     (%eax),%eax
  7e:	00 00                	add    %al,(%eax)
  80:	0d 00 00 00 02       	or     $0x2000000,%eax
  85:	00 74 08 0d          	add    %dh,0xd(%eax,%ecx,1)
  89:	00 00                	add    %al,(%eax)
  8b:	00 27                	add    %ah,(%edi)
  8d:	01 00                	add    %eax,(%eax)
  8f:	00 02                	add    %al,(%edx)
  91:	00 75 08             	add    %dh,0x8(%ebp)
  94:	27                   	daa    
  95:	01 00                	add    %eax,(%eax)
  97:	00 28                	add    %ch,(%eax)
  99:	01 00                	add    %eax,(%eax)
  9b:	00 02                	add    %al,(%edx)
  9d:	00 74 04 00          	add    %dh,0x0(%esp,%eax,1)
  a1:	00 00                	add    %al,(%eax)
  a3:	00 00                	add    %al,(%eax)
  a5:	00 00                	add    %al,(%eax)
  a7:	00 28                	add    %ch,(%eax)
  a9:	01 00                	add    %eax,(%eax)
  ab:	00 29                	add    %ch,(%ecx)
  ad:	01 00                	add    %eax,(%eax)
  af:	00 02                	add    %al,(%edx)
  b1:	00 74 04 29          	add    %dh,0x29(%esp,%eax,1)
  b5:	01 00                	add    %eax,(%eax)
  b7:	00 2b                	add    %ch,(%ebx)
  b9:	01 00                	add    %eax,(%eax)
  bb:	00 02                	add    %al,(%edx)
  bd:	00 74 08 2b          	add    %dh,0x2b(%eax,%ecx,1)
  c1:	01 00                	add    %eax,(%eax)
  c3:	00 7c 01 00          	add    %bh,0x0(%ecx,%eax,1)
  c7:	00 02                	add    %al,(%edx)
  c9:	00 75 08             	add    %dh,0x8(%ebp)
  cc:	7c 01                	jl     cf <MULTIBOOT_HEADER_FLAGS+0xcc>
  ce:	00 00                	add    %al,(%eax)
  d0:	7d 01                	jge    d3 <MULTIBOOT_HEADER_FLAGS+0xd0>
  d2:	00 00                	add    %al,(%eax)
  d4:	02 00                	add    (%eax),%al
  d6:	74 04                	je     dc <MULTIBOOT_HEADER_FLAGS+0xd9>
	...
  e0:	7d 01                	jge    e3 <MULTIBOOT_HEADER_FLAGS+0xe0>
  e2:	00 00                	add    %al,(%eax)
  e4:	7e 01                	jle    e7 <MULTIBOOT_HEADER_FLAGS+0xe4>
  e6:	00 00                	add    %al,(%eax)
  e8:	02 00                	add    (%eax),%al
  ea:	74 04                	je     f0 <MULTIBOOT_HEADER_FLAGS+0xed>
  ec:	7e 01                	jle    ef <MULTIBOOT_HEADER_FLAGS+0xec>
  ee:	00 00                	add    %al,(%eax)
  f0:	80 01 00             	addb   $0x0,(%ecx)
  f3:	00 02                	add    %al,(%edx)
  f5:	00 74 08 80          	add    %dh,-0x80(%eax,%ecx,1)
  f9:	01 00                	add    %eax,(%eax)
  fb:	00 d1                	add    %dl,%cl
  fd:	01 00                	add    %eax,(%eax)
  ff:	00 02                	add    %al,(%edx)
 101:	00 75 08             	add    %dh,0x8(%ebp)
 104:	d1 01                	roll   (%ecx)
 106:	00 00                	add    %al,(%eax)
 108:	d2 01                	rolb   %cl,(%ecx)
 10a:	00 00                	add    %al,(%eax)
 10c:	02 00                	add    (%eax),%al
 10e:	74 04                	je     114 <MULTIBOOT_HEADER_FLAGS+0x111>
	...
 118:	d2 01                	rolb   %cl,(%ecx)
 11a:	00 00                	add    %al,(%eax)
 11c:	d3 01                	roll   %cl,(%ecx)
 11e:	00 00                	add    %al,(%eax)
 120:	02 00                	add    (%eax),%al
 122:	74 04                	je     128 <MULTIBOOT_HEADER_FLAGS+0x125>
 124:	d3 01                	roll   %cl,(%ecx)
 126:	00 00                	add    %al,(%eax)
 128:	d5 01                	aad    $0x1
 12a:	00 00                	add    %al,(%eax)
 12c:	02 00                	add    (%eax),%al
 12e:	74 08                	je     138 <MULTIBOOT_HEADER_FLAGS+0x135>
 130:	d5 01                	aad    $0x1
 132:	00 00                	add    %al,(%eax)
 134:	d6                   	(bad)  
 135:	01 00                	add    %eax,(%eax)
 137:	00 02                	add    %al,(%edx)
 139:	00 75 08             	add    %dh,0x8(%ebp)
 13c:	d6                   	(bad)  
 13d:	01 00                	add    %eax,(%eax)
 13f:	00 d7                	add    %dl,%bh
 141:	01 00                	add    %eax,(%eax)
 143:	00 02                	add    %al,(%edx)
 145:	00 74 04 00          	add    %dh,0x0(%esp,%eax,1)
 149:	00 00                	add    %al,(%eax)
 14b:	00 00                	add    %al,(%eax)
 14d:	00 00                	add    %al,(%eax)
 14f:	00 d7                	add    %dl,%bh
 151:	01 00                	add    %eax,(%eax)
 153:	00 d8                	add    %bl,%al
 155:	01 00                	add    %eax,(%eax)
 157:	00 02                	add    %al,(%edx)
 159:	00 74 04 d8          	add    %dh,-0x28(%esp,%eax,1)
 15d:	01 00                	add    %eax,(%eax)
 15f:	00 da                	add    %bl,%dl
 161:	01 00                	add    %eax,(%eax)
 163:	00 02                	add    %al,(%edx)
 165:	00 74 08 da          	add    %dh,-0x26(%eax,%ecx,1)
 169:	01 00                	add    %eax,(%eax)
 16b:	00 2b                	add    %ch,(%ebx)
 16d:	02 00                	add    (%eax),%al
 16f:	00 02                	add    %al,(%edx)
 171:	00 75 08             	add    %dh,0x8(%ebp)
 174:	2b 02                	sub    (%edx),%eax
 176:	00 00                	add    %al,(%eax)
 178:	2c 02                	sub    $0x2,%al
 17a:	00 00                	add    %al,(%eax)
 17c:	02 00                	add    (%eax),%al
 17e:	74 04                	je     184 <MULTIBOOT_HEADER_FLAGS+0x181>
	...
 188:	2c 02                	sub    $0x2,%al
 18a:	00 00                	add    %al,(%eax)
 18c:	2d 02 00 00 02       	sub    $0x2000002,%eax
 191:	00 74 04 2d          	add    %dh,0x2d(%esp,%eax,1)
 195:	02 00                	add    (%eax),%al
 197:	00 2f                	add    %ch,(%edi)
 199:	02 00                	add    (%eax),%al
 19b:	00 02                	add    %al,(%edx)
 19d:	00 74 08 2f          	add    %dh,0x2f(%eax,%ecx,1)
 1a1:	02 00                	add    (%eax),%al
 1a3:	00 80 02 00 00 02    	add    %al,0x2000002(%eax)
 1a9:	00 75 08             	add    %dh,0x8(%ebp)
 1ac:	80 02 00             	addb   $0x0,(%edx)
 1af:	00 81 02 00 00 02    	add    %al,0x2000002(%ecx)
 1b5:	00 74 04 00          	add    %dh,0x0(%esp,%eax,1)
 1b9:	00 00                	add    %al,(%eax)
 1bb:	00 00                	add    %al,(%eax)
 1bd:	00 00                	add    %al,(%eax)
 1bf:	00 81 02 00 00 82    	add    %al,-0x7dfffffe(%ecx)
 1c5:	02 00                	add    (%eax),%al
 1c7:	00 02                	add    %al,(%edx)
 1c9:	00 74 04 82          	add    %dh,-0x7e(%esp,%eax,1)
 1cd:	02 00                	add    (%eax),%al
 1cf:	00 84 02 00 00 02 00 	add    %al,0x20000(%edx,%eax,1)
 1d6:	74 08                	je     1e0 <MULTIBOOT_HEADER_FLAGS+0x1dd>
 1d8:	84 02                	test   %al,(%edx)
 1da:	00 00                	add    %al,(%eax)
 1dc:	d5 02                	aad    $0x2
 1de:	00 00                	add    %al,(%eax)
 1e0:	02 00                	add    (%eax),%al
 1e2:	75 08                	jne    1ec <MULTIBOOT_HEADER_FLAGS+0x1e9>
 1e4:	d5 02                	aad    $0x2
 1e6:	00 00                	add    %al,(%eax)
 1e8:	d6                   	(bad)  
 1e9:	02 00                	add    (%eax),%al
 1eb:	00 02                	add    %al,(%edx)
 1ed:	00 74 04 00          	add    %dh,0x0(%esp,%eax,1)
 1f1:	00 00                	add    %al,(%eax)
 1f3:	00 00                	add    %al,(%eax)
 1f5:	00 00                	add    %al,(%eax)
 1f7:	00 d6                	add    %dl,%dh
 1f9:	02 00                	add    (%eax),%al
 1fb:	00 d7                	add    %dl,%bh
 1fd:	02 00                	add    (%eax),%al
 1ff:	00 02                	add    %al,(%edx)
 201:	00 74 04 d7          	add    %dh,-0x29(%esp,%eax,1)
 205:	02 00                	add    (%eax),%al
 207:	00 d9                	add    %bl,%cl
 209:	02 00                	add    (%eax),%al
 20b:	00 02                	add    %al,(%edx)
 20d:	00 74 08 d9          	add    %dh,-0x27(%eax,%ecx,1)
 211:	02 00                	add    (%eax),%al
 213:	00 2a                	add    %ch,(%edx)
 215:	03 00                	add    (%eax),%eax
 217:	00 02                	add    %al,(%edx)
 219:	00 75 08             	add    %dh,0x8(%ebp)
 21c:	2a 03                	sub    (%ebx),%al
 21e:	00 00                	add    %al,(%eax)
 220:	2b 03                	sub    (%ebx),%eax
 222:	00 00                	add    %al,(%eax)
 224:	02 00                	add    (%eax),%al
 226:	74 04                	je     22c <MULTIBOOT_HEADER_FLAGS+0x229>
	...
 230:	2b 03                	sub    (%ebx),%eax
 232:	00 00                	add    %al,(%eax)
 234:	2c 03                	sub    $0x3,%al
 236:	00 00                	add    %al,(%eax)
 238:	02 00                	add    (%eax),%al
 23a:	74 04                	je     240 <MULTIBOOT_HEADER_FLAGS+0x23d>
 23c:	2c 03                	sub    $0x3,%al
 23e:	00 00                	add    %al,(%eax)
 240:	2e 03 00             	add    %cs:(%eax),%eax
 243:	00 02                	add    %al,(%edx)
 245:	00 74 08 2e          	add    %dh,0x2e(%eax,%ecx,1)
 249:	03 00                	add    (%eax),%eax
 24b:	00 7f 03             	add    %bh,0x3(%edi)
 24e:	00 00                	add    %al,(%eax)
 250:	02 00                	add    (%eax),%al
 252:	75 08                	jne    25c <MULTIBOOT_HEADER_FLAGS+0x259>
 254:	7f 03                	jg     259 <MULTIBOOT_HEADER_FLAGS+0x256>
 256:	00 00                	add    %al,(%eax)
 258:	80 03 00             	addb   $0x0,(%ebx)
 25b:	00 02                	add    %al,(%edx)
 25d:	00 74 04 00          	add    %dh,0x0(%esp,%eax,1)
 261:	00 00                	add    %al,(%eax)
 263:	00 00                	add    %al,(%eax)
 265:	00 00                	add    %al,(%eax)
 267:	00 80 03 00 00 81    	add    %al,-0x7efffffd(%eax)
 26d:	03 00                	add    (%eax),%eax
 26f:	00 02                	add    %al,(%edx)
 271:	00 74 04 81          	add    %dh,-0x7f(%esp,%eax,1)
 275:	03 00                	add    (%eax),%eax
 277:	00 83 03 00 00 02    	add    %al,0x2000003(%ebx)
 27d:	00 74 08 83          	add    %dh,-0x7d(%eax,%ecx,1)
 281:	03 00                	add    (%eax),%eax
 283:	00 d4                	add    %dl,%ah
 285:	03 00                	add    (%eax),%eax
 287:	00 02                	add    %al,(%edx)
 289:	00 75 08             	add    %dh,0x8(%ebp)
 28c:	d4 03                	aam    $0x3
 28e:	00 00                	add    %al,(%eax)
 290:	d5 03                	aad    $0x3
 292:	00 00                	add    %al,(%eax)
 294:	02 00                	add    (%eax),%al
 296:	74 04                	je     29c <MULTIBOOT_HEADER_FLAGS+0x299>
	...
 2a0:	d5 03                	aad    $0x3
 2a2:	00 00                	add    %al,(%eax)
 2a4:	d6                   	(bad)  
 2a5:	03 00                	add    (%eax),%eax
 2a7:	00 02                	add    %al,(%edx)
 2a9:	00 74 04 d6          	add    %dh,-0x2a(%esp,%eax,1)
 2ad:	03 00                	add    (%eax),%eax
 2af:	00 d8                	add    %bl,%al
 2b1:	03 00                	add    (%eax),%eax
 2b3:	00 02                	add    %al,(%edx)
 2b5:	00 74 08 d8          	add    %dh,-0x28(%eax,%ecx,1)
 2b9:	03 00                	add    (%eax),%eax
 2bb:	00 29                	add    %ch,(%ecx)
 2bd:	04 00                	add    $0x0,%al
 2bf:	00 02                	add    %al,(%edx)
 2c1:	00 75 08             	add    %dh,0x8(%ebp)
 2c4:	29 04 00             	sub    %eax,(%eax,%eax,1)
 2c7:	00 2a                	add    %ch,(%edx)
 2c9:	04 00                	add    $0x0,%al
 2cb:	00 02                	add    %al,(%edx)
 2cd:	00 74 04 00          	add    %dh,0x0(%esp,%eax,1)
 2d1:	00 00                	add    %al,(%eax)
 2d3:	00 00                	add    %al,(%eax)
 2d5:	00 00                	add    %al,(%eax)
 2d7:	00 2a                	add    %ch,(%edx)
 2d9:	04 00                	add    $0x0,%al
 2db:	00 2b                	add    %ch,(%ebx)
 2dd:	04 00                	add    $0x0,%al
 2df:	00 02                	add    %al,(%edx)
 2e1:	00 74 04 2b          	add    %dh,0x2b(%esp,%eax,1)
 2e5:	04 00                	add    $0x0,%al
 2e7:	00 2d 04 00 00 02    	add    %ch,0x2000004
 2ed:	00 74 08 2d          	add    %dh,0x2d(%eax,%ecx,1)
 2f1:	04 00                	add    $0x0,%al
 2f3:	00 7e 04             	add    %bh,0x4(%esi)
 2f6:	00 00                	add    %al,(%eax)
 2f8:	02 00                	add    (%eax),%al
 2fa:	75 08                	jne    304 <MULTIBOOT_HEADER_FLAGS+0x301>
 2fc:	7e 04                	jle    302 <MULTIBOOT_HEADER_FLAGS+0x2ff>
 2fe:	00 00                	add    %al,(%eax)
 300:	7f 04                	jg     306 <MULTIBOOT_HEADER_FLAGS+0x303>
 302:	00 00                	add    %al,(%eax)
 304:	02 00                	add    (%eax),%al
 306:	74 04                	je     30c <MULTIBOOT_HEADER_FLAGS+0x309>
	...
 310:	7f 04                	jg     316 <MULTIBOOT_HEADER_FLAGS+0x313>
 312:	00 00                	add    %al,(%eax)
 314:	80 04 00 00          	addb   $0x0,(%eax,%eax,1)
 318:	02 00                	add    (%eax),%al
 31a:	74 04                	je     320 <MULTIBOOT_HEADER_FLAGS+0x31d>
 31c:	80 04 00 00          	addb   $0x0,(%eax,%eax,1)
 320:	82                   	(bad)  
 321:	04 00                	add    $0x0,%al
 323:	00 02                	add    %al,(%edx)
 325:	00 74 08 82          	add    %dh,-0x7e(%eax,%ecx,1)
 329:	04 00                	add    $0x0,%al
 32b:	00 d3                	add    %dl,%bl
 32d:	04 00                	add    $0x0,%al
 32f:	00 02                	add    %al,(%edx)
 331:	00 75 08             	add    %dh,0x8(%ebp)
 334:	d3 04 00             	roll   %cl,(%eax,%eax,1)
 337:	00 d4                	add    %dl,%ah
 339:	04 00                	add    $0x0,%al
 33b:	00 02                	add    %al,(%edx)
 33d:	00 74 04 00          	add    %dh,0x0(%esp,%eax,1)
 341:	00 00                	add    %al,(%eax)
 343:	00 00                	add    %al,(%eax)
 345:	00 00                	add    %al,(%eax)
 347:	00 d4                	add    %dl,%ah
 349:	04 00                	add    $0x0,%al
 34b:	00 d5                	add    %dl,%ch
 34d:	04 00                	add    $0x0,%al
 34f:	00 02                	add    %al,(%edx)
 351:	00 74 04 d5          	add    %dh,-0x2b(%esp,%eax,1)
 355:	04 00                	add    $0x0,%al
 357:	00 d7                	add    %dl,%bh
 359:	04 00                	add    $0x0,%al
 35b:	00 02                	add    %al,(%edx)
 35d:	00 74 08 d7          	add    %dh,-0x29(%eax,%ecx,1)
 361:	04 00                	add    $0x0,%al
 363:	00 28                	add    %ch,(%eax)
 365:	05 00 00 02 00       	add    $0x20000,%eax
 36a:	75 08                	jne    374 <MULTIBOOT_HEADER_FLAGS+0x371>
 36c:	28 05 00 00 29 05    	sub    %al,0x5290000
 372:	00 00                	add    %al,(%eax)
 374:	02 00                	add    (%eax),%al
 376:	74 04                	je     37c <MULTIBOOT_HEADER_FLAGS+0x379>
	...
 380:	29 05 00 00 2a 05    	sub    %eax,0x52a0000
 386:	00 00                	add    %al,(%eax)
 388:	02 00                	add    (%eax),%al
 38a:	74 04                	je     390 <MULTIBOOT_HEADER_FLAGS+0x38d>
 38c:	2a 05 00 00 2c 05    	sub    0x52c0000,%al
 392:	00 00                	add    %al,(%eax)
 394:	02 00                	add    (%eax),%al
 396:	74 08                	je     3a0 <MULTIBOOT_HEADER_FLAGS+0x39d>
 398:	2c 05                	sub    $0x5,%al
 39a:	00 00                	add    %al,(%eax)
 39c:	7d 05                	jge    3a3 <MULTIBOOT_HEADER_FLAGS+0x3a0>
 39e:	00 00                	add    %al,(%eax)
 3a0:	02 00                	add    (%eax),%al
 3a2:	75 08                	jne    3ac <MULTIBOOT_HEADER_FLAGS+0x3a9>
 3a4:	7d 05                	jge    3ab <MULTIBOOT_HEADER_FLAGS+0x3a8>
 3a6:	00 00                	add    %al,(%eax)
 3a8:	7e 05                	jle    3af <MULTIBOOT_HEADER_FLAGS+0x3ac>
 3aa:	00 00                	add    %al,(%eax)
 3ac:	02 00                	add    (%eax),%al
 3ae:	74 04                	je     3b4 <MULTIBOOT_HEADER_FLAGS+0x3b1>
	...
 3b8:	7e 05                	jle    3bf <MULTIBOOT_HEADER_FLAGS+0x3bc>
 3ba:	00 00                	add    %al,(%eax)
 3bc:	7f 05                	jg     3c3 <MULTIBOOT_HEADER_FLAGS+0x3c0>
 3be:	00 00                	add    %al,(%eax)
 3c0:	02 00                	add    (%eax),%al
 3c2:	74 04                	je     3c8 <MULTIBOOT_HEADER_FLAGS+0x3c5>
 3c4:	7f 05                	jg     3cb <MULTIBOOT_HEADER_FLAGS+0x3c8>
 3c6:	00 00                	add    %al,(%eax)
 3c8:	81 05 00 00 02 00 74 	addl   $0x5810874,0x20000
 3cf:	08 81 05 
 3d2:	00 00                	add    %al,(%eax)
 3d4:	d2 05 00 00 02 00    	rolb   %cl,0x20000
 3da:	75 08                	jne    3e4 <MULTIBOOT_HEADER_FLAGS+0x3e1>
 3dc:	d2 05 00 00 d3 05    	rolb   %cl,0x5d30000
 3e2:	00 00                	add    %al,(%eax)
 3e4:	02 00                	add    (%eax),%al
 3e6:	74 04                	je     3ec <MULTIBOOT_HEADER_FLAGS+0x3e9>
	...
 3f0:	d3 05 00 00 d4 05    	roll   %cl,0x5d40000
 3f6:	00 00                	add    %al,(%eax)
 3f8:	02 00                	add    (%eax),%al
 3fa:	74 04                	je     400 <MULTIBOOT_HEADER_FLAGS+0x3fd>
 3fc:	d4 05                	aam    $0x5
 3fe:	00 00                	add    %al,(%eax)
 400:	d6                   	(bad)  
 401:	05 00 00 02 00       	add    $0x20000,%eax
 406:	74 08                	je     410 <MULTIBOOT_HEADER_FLAGS+0x40d>
 408:	d6                   	(bad)  
 409:	05 00 00 27 06       	add    $0x6270000,%eax
 40e:	00 00                	add    %al,(%eax)
 410:	02 00                	add    (%eax),%al
 412:	75 08                	jne    41c <MULTIBOOT_HEADER_FLAGS+0x419>
 414:	27                   	daa    
 415:	06                   	push   %es
 416:	00 00                	add    %al,(%eax)
 418:	28 06                	sub    %al,(%esi)
 41a:	00 00                	add    %al,(%eax)
 41c:	02 00                	add    (%eax),%al
 41e:	74 04                	je     424 <MULTIBOOT_HEADER_FLAGS+0x421>
	...
 428:	28 06                	sub    %al,(%esi)
 42a:	00 00                	add    %al,(%eax)
 42c:	29 06                	sub    %eax,(%esi)
 42e:	00 00                	add    %al,(%eax)
 430:	02 00                	add    (%eax),%al
 432:	74 04                	je     438 <MULTIBOOT_HEADER_FLAGS+0x435>
 434:	29 06                	sub    %eax,(%esi)
 436:	00 00                	add    %al,(%eax)
 438:	2b 06                	sub    (%esi),%eax
 43a:	00 00                	add    %al,(%eax)
 43c:	02 00                	add    (%eax),%al
 43e:	74 08                	je     448 <MULTIBOOT_HEADER_FLAGS+0x445>
 440:	2b 06                	sub    (%esi),%eax
 442:	00 00                	add    %al,(%eax)
 444:	7c 06                	jl     44c <MULTIBOOT_HEADER_FLAGS+0x449>
 446:	00 00                	add    %al,(%eax)
 448:	02 00                	add    (%eax),%al
 44a:	75 08                	jne    454 <MULTIBOOT_HEADER_FLAGS+0x451>
 44c:	7c 06                	jl     454 <MULTIBOOT_HEADER_FLAGS+0x451>
 44e:	00 00                	add    %al,(%eax)
 450:	7d 06                	jge    458 <MULTIBOOT_HEADER_FLAGS+0x455>
 452:	00 00                	add    %al,(%eax)
 454:	02 00                	add    (%eax),%al
 456:	74 04                	je     45c <MULTIBOOT_HEADER_FLAGS+0x459>
	...
 460:	7d 06                	jge    468 <MULTIBOOT_HEADER_FLAGS+0x465>
 462:	00 00                	add    %al,(%eax)
 464:	7e 06                	jle    46c <MULTIBOOT_HEADER_FLAGS+0x469>
 466:	00 00                	add    %al,(%eax)
 468:	02 00                	add    (%eax),%al
 46a:	74 04                	je     470 <MULTIBOOT_HEADER_FLAGS+0x46d>
 46c:	7e 06                	jle    474 <MULTIBOOT_HEADER_FLAGS+0x471>
 46e:	00 00                	add    %al,(%eax)
 470:	80 06 00             	addb   $0x0,(%esi)
 473:	00 02                	add    %al,(%edx)
 475:	00 74 08 80          	add    %dh,-0x80(%eax,%ecx,1)
 479:	06                   	push   %es
 47a:	00 00                	add    %al,(%eax)
 47c:	f2 06                	repnz push %es
 47e:	00 00                	add    %al,(%eax)
 480:	02 00                	add    (%eax),%al
 482:	75 08                	jne    48c <MULTIBOOT_HEADER_FLAGS+0x489>
 484:	f2 06                	repnz push %es
 486:	00 00                	add    %al,(%eax)
 488:	f3 06                	repz push %es
 48a:	00 00                	add    %al,(%eax)
 48c:	02 00                	add    (%eax),%al
 48e:	74 04                	je     494 <MULTIBOOT_HEADER_FLAGS+0x491>
	...
 498:	f3 06                	repz push %es
 49a:	00 00                	add    %al,(%eax)
 49c:	f4                   	hlt    
 49d:	06                   	push   %es
 49e:	00 00                	add    %al,(%eax)
 4a0:	02 00                	add    (%eax),%al
 4a2:	74 04                	je     4a8 <MULTIBOOT_HEADER_FLAGS+0x4a5>
 4a4:	f4                   	hlt    
 4a5:	06                   	push   %es
 4a6:	00 00                	add    %al,(%eax)
 4a8:	f6 06 00             	testb  $0x0,(%esi)
 4ab:	00 02                	add    %al,(%edx)
 4ad:	00 74 08 f6          	add    %dh,-0xa(%eax,%ecx,1)
 4b1:	06                   	push   %es
 4b2:	00 00                	add    %al,(%eax)
 4b4:	83 07 00             	addl   $0x0,(%edi)
 4b7:	00 02                	add    %al,(%edx)
 4b9:	00 75 08             	add    %dh,0x8(%ebp)
 4bc:	83 07 00             	addl   $0x0,(%edi)
 4bf:	00 84 07 00 00 02 00 	add    %al,0x20000(%edi,%eax,1)
 4c6:	74 04                	je     4cc <MULTIBOOT_HEADER_FLAGS+0x4c9>
	...
 4d0:	84 07                	test   %al,(%edi)
 4d2:	00 00                	add    %al,(%eax)
 4d4:	85 07                	test   %eax,(%edi)
 4d6:	00 00                	add    %al,(%eax)
 4d8:	02 00                	add    (%eax),%al
 4da:	74 04                	je     4e0 <MULTIBOOT_HEADER_FLAGS+0x4dd>
 4dc:	85 07                	test   %eax,(%edi)
 4de:	00 00                	add    %al,(%eax)
 4e0:	87 07                	xchg   %eax,(%edi)
 4e2:	00 00                	add    %al,(%eax)
 4e4:	02 00                	add    (%eax),%al
 4e6:	74 08                	je     4f0 <MULTIBOOT_HEADER_FLAGS+0x4ed>
 4e8:	87 07                	xchg   %eax,(%edi)
 4ea:	00 00                	add    %al,(%eax)
 4ec:	e1 07                	loope  4f5 <MULTIBOOT_HEADER_FLAGS+0x4f2>
 4ee:	00 00                	add    %al,(%eax)
 4f0:	02 00                	add    (%eax),%al
 4f2:	75 08                	jne    4fc <MULTIBOOT_HEADER_FLAGS+0x4f9>
 4f4:	e1 07                	loope  4fd <MULTIBOOT_HEADER_FLAGS+0x4fa>
 4f6:	00 00                	add    %al,(%eax)
 4f8:	e2 07                	loop   501 <MULTIBOOT_HEADER_FLAGS+0x4fe>
 4fa:	00 00                	add    %al,(%eax)
 4fc:	02 00                	add    (%eax),%al
 4fe:	74 04                	je     504 <MULTIBOOT_HEADER_FLAGS+0x501>
	...
 50c:	01 00                	add    %eax,(%eax)
 50e:	00 00                	add    %al,(%eax)
 510:	02 00                	add    (%eax),%al
 512:	74 04                	je     518 <MULTIBOOT_HEADER_FLAGS+0x515>
 514:	01 00                	add    %eax,(%eax)
 516:	00 00                	add    %al,(%eax)
 518:	03 00                	add    (%eax),%eax
 51a:	00 00                	add    %al,(%eax)
 51c:	02 00                	add    (%eax),%al
 51e:	74 08                	je     528 <MULTIBOOT_HEADER_FLAGS+0x525>
 520:	03 00                	add    (%eax),%eax
 522:	00 00                	add    %al,(%eax)
 524:	5f                   	pop    %edi
 525:	00 00                	add    %al,(%eax)
 527:	00 02                	add    %al,(%edx)
 529:	00 75 08             	add    %dh,0x8(%ebp)
 52c:	5f                   	pop    %edi
 52d:	00 00                	add    %al,(%eax)
 52f:	00 60 00             	add    %ah,0x0(%eax)
 532:	00 00                	add    %al,(%eax)
 534:	02 00                	add    (%eax),%al
 536:	74 04                	je     53c <MULTIBOOT_HEADER_FLAGS+0x539>
	...
 540:	60                   	pusha  
 541:	00 00                	add    %al,(%eax)
 543:	00 61 00             	add    %ah,0x0(%ecx)
 546:	00 00                	add    %al,(%eax)
 548:	02 00                	add    (%eax),%al
 54a:	74 04                	je     550 <MULTIBOOT_HEADER_FLAGS+0x54d>
 54c:	61                   	popa   
 54d:	00 00                	add    %al,(%eax)
 54f:	00 63 00             	add    %ah,0x0(%ebx)
 552:	00 00                	add    %al,(%eax)
 554:	02 00                	add    (%eax),%al
 556:	74 08                	je     560 <MULTIBOOT_HEADER_FLAGS+0x55d>
 558:	63 00                	arpl   %ax,(%eax)
 55a:	00 00                	add    %al,(%eax)
 55c:	a0 00 00 00 02       	mov    0x2000000,%al
 561:	00 75 08             	add    %dh,0x8(%ebp)
	...
 56c:	a0 00 00 00 a1       	mov    0xa1000000,%al
 571:	00 00                	add    %al,(%eax)
 573:	00 02                	add    %al,(%edx)
 575:	00 74 04 a1          	add    %dh,-0x5f(%esp,%eax,1)
 579:	00 00                	add    %al,(%eax)
 57b:	00 a3 00 00 00 02    	add    %ah,0x2000000(%ebx)
 581:	00 74 08 a3          	add    %dh,-0x5d(%eax,%ecx,1)
 585:	00 00                	add    %al,(%eax)
 587:	00 d7                	add    %dl,%bh
 589:	00 00                	add    %al,(%eax)
 58b:	00 02                	add    %al,(%edx)
 58d:	00 75 08             	add    %dh,0x8(%ebp)
	...
 598:	d7                   	xlat   %ds:(%ebx)
 599:	00 00                	add    %al,(%eax)
 59b:	00 d8                	add    %bl,%al
 59d:	00 00                	add    %al,(%eax)
 59f:	00 02                	add    %al,(%edx)
 5a1:	00 74 04 d8          	add    %dh,-0x28(%esp,%eax,1)
 5a5:	00 00                	add    %al,(%eax)
 5a7:	00 da                	add    %bl,%dl
 5a9:	00 00                	add    %al,(%eax)
 5ab:	00 02                	add    %al,(%edx)
 5ad:	00 74 08 da          	add    %dh,-0x26(%eax,%ecx,1)
 5b1:	00 00                	add    %al,(%eax)
 5b3:	00 0e                	add    %cl,(%esi)
 5b5:	01 00                	add    %eax,(%eax)
 5b7:	00 02                	add    %al,(%edx)
 5b9:	00 75 08             	add    %dh,0x8(%ebp)
	...
 5c4:	0e                   	push   %cs
 5c5:	01 00                	add    %eax,(%eax)
 5c7:	00 0f                	add    %cl,(%edi)
 5c9:	01 00                	add    %eax,(%eax)
 5cb:	00 02                	add    %al,(%edx)
 5cd:	00 74 04 0f          	add    %dh,0xf(%esp,%eax,1)
 5d1:	01 00                	add    %eax,(%eax)
 5d3:	00 11                	add    %dl,(%ecx)
 5d5:	01 00                	add    %eax,(%eax)
 5d7:	00 02                	add    %al,(%edx)
 5d9:	00 74 08 11          	add    %dh,0x11(%eax,%ecx,1)
 5dd:	01 00                	add    %eax,(%eax)
 5df:	00 55 01             	add    %dl,0x1(%ebp)
 5e2:	00 00                	add    %al,(%eax)
 5e4:	02 00                	add    (%eax),%al
 5e6:	75 08                	jne    5f0 <MULTIBOOT_HEADER_FLAGS+0x5ed>
 5e8:	55                   	push   %ebp
 5e9:	01 00                	add    %eax,(%eax)
 5eb:	00 56 01             	add    %dl,0x1(%esi)
 5ee:	00 00                	add    %al,(%eax)
 5f0:	02 00                	add    (%eax),%al
 5f2:	74 04                	je     5f8 <MULTIBOOT_HEADER_FLAGS+0x5f5>
	...
 600:	01 00                	add    %eax,(%eax)
 602:	00 00                	add    %al,(%eax)
 604:	02 00                	add    (%eax),%al
 606:	74 04                	je     60c <MULTIBOOT_HEADER_FLAGS+0x609>
 608:	01 00                	add    %eax,(%eax)
 60a:	00 00                	add    %al,(%eax)
 60c:	03 00                	add    (%eax),%eax
 60e:	00 00                	add    %al,(%eax)
 610:	02 00                	add    (%eax),%al
 612:	74 08                	je     61c <MULTIBOOT_HEADER_FLAGS+0x619>
 614:	03 00                	add    (%eax),%eax
 616:	00 00                	add    %al,(%eax)
 618:	b4 02                	mov    $0x2,%ah
 61a:	00 00                	add    %al,(%eax)
 61c:	02 00                	add    (%eax),%al
 61e:	75 08                	jne    628 <MULTIBOOT_HEADER_FLAGS+0x625>
 620:	b4 02                	mov    $0x2,%ah
 622:	00 00                	add    %al,(%eax)
 624:	b5 02                	mov    $0x2,%ch
 626:	00 00                	add    %al,(%eax)
 628:	02 00                	add    (%eax),%al
 62a:	74 04                	je     630 <MULTIBOOT_HEADER_FLAGS+0x62d>
	...
 638:	01 00                	add    %eax,(%eax)
 63a:	00 00                	add    %al,(%eax)
 63c:	02 00                	add    (%eax),%al
 63e:	74 04                	je     644 <MULTIBOOT_HEADER_FLAGS+0x641>
 640:	01 00                	add    %eax,(%eax)
 642:	00 00                	add    %al,(%eax)
 644:	03 00                	add    (%eax),%eax
 646:	00 00                	add    %al,(%eax)
 648:	02 00                	add    (%eax),%al
 64a:	74 08                	je     654 <MULTIBOOT_HEADER_FLAGS+0x651>
 64c:	03 00                	add    (%eax),%eax
 64e:	00 00                	add    %al,(%eax)
 650:	e9 00 00 00 02       	jmp    2000655 <_end+0x1eaeb29>
 655:	00 75 08             	add    %dh,0x8(%ebp)
 658:	e9 00 00 00 ea       	jmp    ea00065d <CHECKSUM+0x5adb662>
 65d:	00 00                	add    %al,(%eax)
 65f:	00 02                	add    %al,(%edx)
 661:	00 74 04 00          	add    %dh,0x0(%esp,%eax,1)
 665:	00 00                	add    %al,(%eax)
 667:	00 00                	add    %al,(%eax)
 669:	00 00                	add    %al,(%eax)
 66b:	00 ea                	add    %ch,%dl
 66d:	00 00                	add    %al,(%eax)
 66f:	00 eb                	add    %ch,%bl
 671:	00 00                	add    %al,(%eax)
 673:	00 02                	add    %al,(%edx)
 675:	00 74 04 eb          	add    %dh,-0x15(%esp,%eax,1)
 679:	00 00                	add    %al,(%eax)
 67b:	00 ed                	add    %ch,%ch
 67d:	00 00                	add    %al,(%eax)
 67f:	00 02                	add    %al,(%edx)
 681:	00 74 08 ed          	add    %dh,-0x13(%eax,%ecx,1)
 685:	00 00                	add    %al,(%eax)
 687:	00 fd                	add    %bh,%ch
 689:	00 00                	add    %al,(%eax)
 68b:	00 02                	add    %al,(%edx)
 68d:	00 75 08             	add    %dh,0x8(%ebp)
 690:	fd                   	std    
 691:	00 00                	add    %al,(%eax)
 693:	00 fe                	add    %bh,%dh
 695:	00 00                	add    %al,(%eax)
 697:	00 02                	add    %al,(%edx)
 699:	00 74 04 00          	add    %dh,0x0(%esp,%eax,1)
 69d:	00 00                	add    %al,(%eax)
 69f:	00 00                	add    %al,(%eax)
 6a1:	00 00                	add    %al,(%eax)
 6a3:	00 fe                	add    %bh,%dh
 6a5:	00 00                	add    %al,(%eax)
 6a7:	00 ff                	add    %bh,%bh
 6a9:	00 00                	add    %al,(%eax)
 6ab:	00 02                	add    %al,(%edx)
 6ad:	00 74 04 ff          	add    %dh,-0x1(%esp,%eax,1)
 6b1:	00 00                	add    %al,(%eax)
 6b3:	00 01                	add    %al,(%ecx)
 6b5:	01 00                	add    %eax,(%eax)
 6b7:	00 02                	add    %al,(%edx)
 6b9:	00 74 08 01          	add    %dh,0x1(%eax,%ecx,1)
 6bd:	01 00                	add    %eax,(%eax)
 6bf:	00 6a 01             	add    %ch,0x1(%edx)
 6c2:	00 00                	add    %al,(%eax)
 6c4:	02 00                	add    (%eax),%al
 6c6:	75 08                	jne    6d0 <MULTIBOOT_HEADER_FLAGS+0x6cd>
 6c8:	6a 01                	push   $0x1
 6ca:	00 00                	add    %al,(%eax)
 6cc:	6b 01 00             	imul   $0x0,(%ecx),%eax
 6cf:	00 02                	add    %al,(%edx)
 6d1:	00 74 04 00          	add    %dh,0x0(%esp,%eax,1)
 6d5:	00 00                	add    %al,(%eax)
 6d7:	00 00                	add    %al,(%eax)
 6d9:	00 00                	add    %al,(%eax)
 6db:	00 6b 01             	add    %ch,0x1(%ebx)
 6de:	00 00                	add    %al,(%eax)
 6e0:	6c                   	insb   (%dx),%es:(%edi)
 6e1:	01 00                	add    %eax,(%eax)
 6e3:	00 02                	add    %al,(%edx)
 6e5:	00 74 04 6c          	add    %dh,0x6c(%esp,%eax,1)
 6e9:	01 00                	add    %eax,(%eax)
 6eb:	00 6e 01             	add    %ch,0x1(%esi)
 6ee:	00 00                	add    %al,(%eax)
 6f0:	02 00                	add    (%eax),%al
 6f2:	74 08                	je     6fc <MULTIBOOT_HEADER_FLAGS+0x6f9>
 6f4:	6e                   	outsb  %ds:(%esi),(%dx)
 6f5:	01 00                	add    %eax,(%eax)
 6f7:	00 bf 01 00 00 02    	add    %bh,0x2000001(%edi)
 6fd:	00 75 08             	add    %dh,0x8(%ebp)
 700:	bf 01 00 00 c0       	mov    $0xc0000001,%edi
 705:	01 00                	add    %eax,(%eax)
 707:	00 02                	add    %al,(%edx)
 709:	00 74 04 00          	add    %dh,0x0(%esp,%eax,1)
 70d:	00 00                	add    %al,(%eax)
 70f:	00 00                	add    %al,(%eax)
 711:	00 00                	add    %al,(%eax)
 713:	00 c0                	add    %al,%al
 715:	01 00                	add    %eax,(%eax)
 717:	00 c1                	add    %al,%cl
 719:	01 00                	add    %eax,(%eax)
 71b:	00 02                	add    %al,(%edx)
 71d:	00 74 04 c1          	add    %dh,-0x3f(%esp,%eax,1)
 721:	01 00                	add    %eax,(%eax)
 723:	00 c3                	add    %al,%bl
 725:	01 00                	add    %eax,(%eax)
 727:	00 02                	add    %al,(%edx)
 729:	00 74 08 c3          	add    %dh,-0x3d(%eax,%ecx,1)
 72d:	01 00                	add    %eax,(%eax)
 72f:	00 01                	add    %al,(%ecx)
 731:	02 00                	add    (%eax),%al
 733:	00 02                	add    %al,(%edx)
 735:	00 75 08             	add    %dh,0x8(%ebp)
 738:	01 02                	add    %eax,(%edx)
 73a:	00 00                	add    %al,(%eax)
 73c:	02 02                	add    (%edx),%al
 73e:	00 00                	add    %al,(%eax)
 740:	02 00                	add    (%eax),%al
 742:	74 04                	je     748 <MULTIBOOT_HEADER_FLAGS+0x745>
	...
 74c:	02 02                	add    (%edx),%al
 74e:	00 00                	add    %al,(%eax)
 750:	03 02                	add    (%edx),%eax
 752:	00 00                	add    %al,(%eax)
 754:	02 00                	add    (%eax),%al
 756:	74 04                	je     75c <MULTIBOOT_HEADER_FLAGS+0x759>
 758:	03 02                	add    (%edx),%eax
 75a:	00 00                	add    %al,(%eax)
 75c:	05 02 00 00 02       	add    $0x2000002,%eax
 761:	00 74 08 05          	add    %dh,0x5(%eax,%ecx,1)
 765:	02 00                	add    (%eax),%al
 767:	00 67 02             	add    %ah,0x2(%edi)
 76a:	00 00                	add    %al,(%eax)
 76c:	02 00                	add    (%eax),%al
 76e:	75 08                	jne    778 <MULTIBOOT_HEADER_FLAGS+0x775>
 770:	67 02 00             	add    (%bx,%si),%al
 773:	00 68 02             	add    %ch,0x2(%eax)
 776:	00 00                	add    %al,(%eax)
 778:	02 00                	add    (%eax),%al
 77a:	74 04                	je     780 <MULTIBOOT_HEADER_FLAGS+0x77d>
	...
 788:	01 00                	add    %eax,(%eax)
 78a:	00 00                	add    %al,(%eax)
 78c:	02 00                	add    (%eax),%al
 78e:	74 04                	je     794 <MULTIBOOT_HEADER_FLAGS+0x791>
 790:	01 00                	add    %eax,(%eax)
 792:	00 00                	add    %al,(%eax)
 794:	03 00                	add    (%eax),%eax
 796:	00 00                	add    %al,(%eax)
 798:	02 00                	add    (%eax),%al
 79a:	74 08                	je     7a4 <MULTIBOOT_HEADER_FLAGS+0x7a1>
 79c:	03 00                	add    (%eax),%eax
 79e:	00 00                	add    %al,(%eax)
 7a0:	df 00                	fild   (%eax)
 7a2:	00 00                	add    %al,(%eax)
 7a4:	02 00                	add    (%eax),%al
 7a6:	75 08                	jne    7b0 <MULTIBOOT_HEADER_FLAGS+0x7ad>
 7a8:	df 00                	fild   (%eax)
 7aa:	00 00                	add    %al,(%eax)
 7ac:	e0 00                	loopne 7ae <MULTIBOOT_HEADER_FLAGS+0x7ab>
 7ae:	00 00                	add    %al,(%eax)
 7b0:	02 00                	add    (%eax),%al
 7b2:	74 04                	je     7b8 <MULTIBOOT_HEADER_FLAGS+0x7b5>
	...
 7bc:	e0 00                	loopne 7be <MULTIBOOT_HEADER_FLAGS+0x7bb>
 7be:	00 00                	add    %al,(%eax)
 7c0:	e1 00                	loope  7c2 <MULTIBOOT_HEADER_FLAGS+0x7bf>
 7c2:	00 00                	add    %al,(%eax)
 7c4:	02 00                	add    (%eax),%al
 7c6:	74 04                	je     7cc <MULTIBOOT_HEADER_FLAGS+0x7c9>
 7c8:	e1 00                	loope  7ca <MULTIBOOT_HEADER_FLAGS+0x7c7>
 7ca:	00 00                	add    %al,(%eax)
 7cc:	e3 00                	jecxz  7ce <MULTIBOOT_HEADER_FLAGS+0x7cb>
 7ce:	00 00                	add    %al,(%eax)
 7d0:	02 00                	add    (%eax),%al
 7d2:	74 08                	je     7dc <MULTIBOOT_HEADER_FLAGS+0x7d9>
 7d4:	e3 00                	jecxz  7d6 <MULTIBOOT_HEADER_FLAGS+0x7d3>
 7d6:	00 00                	add    %al,(%eax)
 7d8:	5f                   	pop    %edi
 7d9:	01 00                	add    %eax,(%eax)
 7db:	00 02                	add    %al,(%edx)
 7dd:	00 75 08             	add    %dh,0x8(%ebp)
 7e0:	5f                   	pop    %edi
 7e1:	01 00                	add    %eax,(%eax)
 7e3:	00 60 01             	add    %ah,0x1(%eax)
 7e6:	00 00                	add    %al,(%eax)
 7e8:	02 00                	add    (%eax),%al
 7ea:	74 04                	je     7f0 <MULTIBOOT_HEADER_FLAGS+0x7ed>
	...
 7f4:	60                   	pusha  
 7f5:	01 00                	add    %eax,(%eax)
 7f7:	00 61 01             	add    %ah,0x1(%ecx)
 7fa:	00 00                	add    %al,(%eax)
 7fc:	02 00                	add    (%eax),%al
 7fe:	74 04                	je     804 <idt_len+0x4>
 800:	61                   	popa   
 801:	01 00                	add    %eax,(%eax)
 803:	00 63 01             	add    %ah,0x1(%ebx)
 806:	00 00                	add    %al,(%eax)
 808:	02 00                	add    (%eax),%al
 80a:	74 08                	je     814 <gdt_len+0x4>
 80c:	63 01                	arpl   %ax,(%ecx)
 80e:	00 00                	add    %al,(%eax)
 810:	8d 01                	lea    (%ecx),%eax
 812:	00 00                	add    %al,(%eax)
 814:	02 00                	add    (%eax),%al
 816:	75 08                	jne    820 <gdt_len+0x10>
 818:	8d 01                	lea    (%ecx),%eax
 81a:	00 00                	add    %al,(%eax)
 81c:	8e 01                	mov    (%ecx),%es
 81e:	00 00                	add    %al,(%eax)
 820:	02 00                	add    (%eax),%al
 822:	74 04                	je     828 <gdt_len+0x18>
	...
 82c:	8e 01                	mov    (%ecx),%es
 82e:	00 00                	add    %al,(%eax)
 830:	8f 01                	popl   (%ecx)
 832:	00 00                	add    %al,(%eax)
 834:	02 00                	add    (%eax),%al
 836:	74 04                	je     83c <gdt_len+0x2c>
 838:	8f 01                	popl   (%ecx)
 83a:	00 00                	add    %al,(%eax)
 83c:	91                   	xchg   %eax,%ecx
 83d:	01 00                	add    %eax,(%eax)
 83f:	00 02                	add    %al,(%edx)
 841:	00 74 08 91          	add    %dh,-0x6f(%eax,%ecx,1)
 845:	01 00                	add    %eax,(%eax)
 847:	00 e9                	add    %ch,%cl
 849:	01 00                	add    %eax,(%eax)
 84b:	00 02                	add    %al,(%edx)
 84d:	00 75 08             	add    %dh,0x8(%ebp)
 850:	e9 01 00 00 ea       	jmp    ea000856 <CHECKSUM+0x5adb85b>
 855:	01 00                	add    %eax,(%eax)
 857:	00 02                	add    %al,(%edx)
 859:	00 74 04 00          	add    %dh,0x0(%esp,%eax,1)
 85d:	00 00                	add    %al,(%eax)
 85f:	00 00                	add    %al,(%eax)
 861:	00 00                	add    %al,(%eax)
 863:	00 ea                	add    %ch,%dl
 865:	01 00                	add    %eax,(%eax)
 867:	00 eb                	add    %ch,%bl
 869:	01 00                	add    %eax,(%eax)
 86b:	00 02                	add    %al,(%edx)
 86d:	00 74 04 eb          	add    %dh,-0x15(%esp,%eax,1)
 871:	01 00                	add    %eax,(%eax)
 873:	00 ed                	add    %ch,%ch
 875:	01 00                	add    %eax,(%eax)
 877:	00 02                	add    %al,(%edx)
 879:	00 74 08 ed          	add    %dh,-0x13(%eax,%ecx,1)
 87d:	01 00                	add    %eax,(%eax)
 87f:	00 10                	add    %dl,(%eax)
 881:	03 00                	add    (%eax),%eax
 883:	00 02                	add    %al,(%edx)
 885:	00 75 08             	add    %dh,0x8(%ebp)
 888:	10 03                	adc    %al,(%ebx)
 88a:	00 00                	add    %al,(%eax)
 88c:	11 03                	adc    %eax,(%ebx)
 88e:	00 00                	add    %al,(%eax)
 890:	02 00                	add    (%eax),%al
 892:	74 04                	je     898 <gdt_len+0x88>
	...
 89c:	11 03                	adc    %eax,(%ebx)
 89e:	00 00                	add    %al,(%eax)
 8a0:	12 03                	adc    (%ebx),%al
 8a2:	00 00                	add    %al,(%eax)
 8a4:	02 00                	add    (%eax),%al
 8a6:	74 04                	je     8ac <gdt_len+0x9c>
 8a8:	12 03                	adc    (%ebx),%al
 8aa:	00 00                	add    %al,(%eax)
 8ac:	14 03                	adc    $0x3,%al
 8ae:	00 00                	add    %al,(%eax)
 8b0:	02 00                	add    (%eax),%al
 8b2:	74 08                	je     8bc <gdt_len+0xac>
 8b4:	14 03                	adc    $0x3,%al
 8b6:	00 00                	add    %al,(%eax)
 8b8:	37                   	aaa    
 8b9:	03 00                	add    (%eax),%eax
 8bb:	00 02                	add    %al,(%edx)
 8bd:	00 75 08             	add    %dh,0x8(%ebp)
 8c0:	37                   	aaa    
 8c1:	03 00                	add    (%eax),%eax
 8c3:	00 38                	add    %bh,(%eax)
 8c5:	03 00                	add    (%eax),%eax
 8c7:	00 02                	add    %al,(%edx)
 8c9:	00 74 04 00          	add    %dh,0x0(%esp,%eax,1)
 8cd:	00 00                	add    %al,(%eax)
 8cf:	00 00                	add    %al,(%eax)
 8d1:	00 00                	add    %al,(%eax)
 8d3:	00 38                	add    %bh,(%eax)
 8d5:	03 00                	add    (%eax),%eax
 8d7:	00 39                	add    %bh,(%ecx)
 8d9:	03 00                	add    (%eax),%eax
 8db:	00 02                	add    %al,(%edx)
 8dd:	00 74 04 39          	add    %dh,0x39(%esp,%eax,1)
 8e1:	03 00                	add    (%eax),%eax
 8e3:	00 3b                	add    %bh,(%ebx)
 8e5:	03 00                	add    (%eax),%eax
 8e7:	00 02                	add    %al,(%edx)
 8e9:	00 74 08 3b          	add    %dh,0x3b(%eax,%ecx,1)
 8ed:	03 00                	add    (%eax),%eax
 8ef:	00 7d 03             	add    %bh,0x3(%ebp)
 8f2:	00 00                	add    %al,(%eax)
 8f4:	02 00                	add    (%eax),%al
 8f6:	75 08                	jne    900 <gdt_len+0xf0>
 8f8:	7d 03                	jge    8fd <gdt_len+0xed>
 8fa:	00 00                	add    %al,(%eax)
 8fc:	7e 03                	jle    901 <gdt_len+0xf1>
 8fe:	00 00                	add    %al,(%eax)
 900:	02 00                	add    (%eax),%al
 902:	74 04                	je     908 <gdt_len+0xf8>
	...
 90c:	7e 03                	jle    911 <gdt_len+0x101>
 90e:	00 00                	add    %al,(%eax)
 910:	7f 03                	jg     915 <gdt_len+0x105>
 912:	00 00                	add    %al,(%eax)
 914:	02 00                	add    (%eax),%al
 916:	74 04                	je     91c <gdt_len+0x10c>
 918:	7f 03                	jg     91d <gdt_len+0x10d>
 91a:	00 00                	add    %al,(%eax)
 91c:	81 03 00 00 02 00    	addl   $0x20000,(%ebx)
 922:	74 08                	je     92c <gdt_len+0x11c>
 924:	81 03 00 00 ce 03    	addl   $0x3ce0000,(%ebx)
 92a:	00 00                	add    %al,(%eax)
 92c:	02 00                	add    (%eax),%al
 92e:	75 08                	jne    938 <gdt_len+0x128>
 930:	ce                   	into   
 931:	03 00                	add    (%eax),%eax
 933:	00 cf                	add    %cl,%bh
 935:	03 00                	add    (%eax),%eax
 937:	00 02                	add    %al,(%edx)
 939:	00 74 04 00          	add    %dh,0x0(%esp,%eax,1)
 93d:	00 00                	add    %al,(%eax)
 93f:	00 00                	add    %al,(%eax)
 941:	00 00                	add    %al,(%eax)
 943:	00 cf                	add    %cl,%bh
 945:	03 00                	add    (%eax),%eax
 947:	00 d0                	add    %dl,%al
 949:	03 00                	add    (%eax),%eax
 94b:	00 02                	add    %al,(%edx)
 94d:	00 74 04 d0          	add    %dh,-0x30(%esp,%eax,1)
 951:	03 00                	add    (%eax),%eax
 953:	00 d2                	add    %dl,%dl
 955:	03 00                	add    (%eax),%eax
 957:	00 02                	add    %al,(%edx)
 959:	00 74 08 d2          	add    %dh,-0x2e(%eax,%ecx,1)
 95d:	03 00                	add    (%eax),%eax
 95f:	00 23                	add    %ah,(%ebx)
 961:	04 00                	add    $0x0,%al
 963:	00 02                	add    %al,(%edx)
 965:	00 75 08             	add    %dh,0x8(%ebp)
	...
 974:	01 00                	add    %eax,(%eax)
 976:	00 00                	add    %al,(%eax)
 978:	02 00                	add    (%eax),%al
 97a:	74 04                	je     980 <gdt_len+0x170>
 97c:	01 00                	add    %eax,(%eax)
 97e:	00 00                	add    %al,(%eax)
 980:	03 00                	add    (%eax),%eax
 982:	00 00                	add    %al,(%eax)
 984:	02 00                	add    (%eax),%al
 986:	74 08                	je     990 <gdt_len+0x180>
 988:	03 00                	add    (%eax),%eax
 98a:	00 00                	add    %al,(%eax)
 98c:	f4                   	hlt    
 98d:	02 00                	add    (%eax),%al
 98f:	00 02                	add    %al,(%edx)
 991:	00 75 08             	add    %dh,0x8(%ebp)
 994:	f4                   	hlt    
 995:	02 00                	add    (%eax),%al
 997:	00 f5                	add    %dh,%ch
 999:	02 00                	add    (%eax),%al
 99b:	00 02                	add    %al,(%edx)
 99d:	00 74 04 00          	add    %dh,0x0(%esp,%eax,1)
 9a1:	00 00                	add    %al,(%eax)
 9a3:	00 00                	add    %al,(%eax)
 9a5:	00 00                	add    %al,(%eax)
 9a7:	00 f5                	add    %dh,%ch
 9a9:	02 00                	add    (%eax),%al
 9ab:	00 f6                	add    %dh,%dh
 9ad:	02 00                	add    (%eax),%al
 9af:	00 02                	add    %al,(%edx)
 9b1:	00 74 04 f6          	add    %dh,-0xa(%esp,%eax,1)
 9b5:	02 00                	add    (%eax),%al
 9b7:	00 f8                	add    %bh,%al
 9b9:	02 00                	add    (%eax),%al
 9bb:	00 02                	add    %al,(%edx)
 9bd:	00 74 08 f8          	add    %dh,-0x8(%eax,%ecx,1)
 9c1:	02 00                	add    (%eax),%al
 9c3:	00 75 04             	add    %dh,0x4(%ebp)
 9c6:	00 00                	add    %al,(%eax)
 9c8:	02 00                	add    (%eax),%al
 9ca:	75 08                	jne    9d4 <gdt_len+0x1c4>
 9cc:	75 04                	jne    9d2 <gdt_len+0x1c2>
 9ce:	00 00                	add    %al,(%eax)
 9d0:	76 04                	jbe    9d6 <gdt_len+0x1c6>
 9d2:	00 00                	add    %al,(%eax)
 9d4:	02 00                	add    (%eax),%al
 9d6:	74 04                	je     9dc <gdt_len+0x1cc>
	...
 9e4:	01 00                	add    %eax,(%eax)
 9e6:	00 00                	add    %al,(%eax)
 9e8:	02 00                	add    (%eax),%al
 9ea:	74 04                	je     9f0 <gdt_len+0x1e0>
 9ec:	01 00                	add    %eax,(%eax)
 9ee:	00 00                	add    %al,(%eax)
 9f0:	03 00                	add    (%eax),%eax
 9f2:	00 00                	add    %al,(%eax)
 9f4:	02 00                	add    (%eax),%al
 9f6:	74 08                	je     a00 <gdt_len+0x1f0>
 9f8:	03 00                	add    (%eax),%eax
 9fa:	00 00                	add    %al,(%eax)
 9fc:	66                   	data16
 9fd:	00 00                	add    %al,(%eax)
 9ff:	00 02                	add    %al,(%edx)
 a01:	00 75 08             	add    %dh,0x8(%ebp)
 a04:	66                   	data16
 a05:	00 00                	add    %al,(%eax)
 a07:	00 67 00             	add    %ah,0x0(%edi)
 a0a:	00 00                	add    %al,(%eax)
 a0c:	02 00                	add    (%eax),%al
 a0e:	74 04                	je     a14 <gdt_len+0x204>
	...
 a1c:	01 00                	add    %eax,(%eax)
 a1e:	00 00                	add    %al,(%eax)
 a20:	02 00                	add    (%eax),%al
 a22:	74 04                	je     a28 <gdt_len+0x218>
 a24:	01 00                	add    %eax,(%eax)
 a26:	00 00                	add    %al,(%eax)
 a28:	03 00                	add    (%eax),%eax
 a2a:	00 00                	add    %al,(%eax)
 a2c:	02 00                	add    (%eax),%al
 a2e:	74 08                	je     a38 <gdt_len+0x228>
 a30:	03 00                	add    (%eax),%eax
 a32:	00 00                	add    %al,(%eax)
 a34:	01 01                	add    %eax,(%ecx)
 a36:	00 00                	add    %al,(%eax)
 a38:	02 00                	add    (%eax),%al
 a3a:	75 08                	jne    a44 <gdt_len+0x234>
 a3c:	01 01                	add    %eax,(%ecx)
 a3e:	00 00                	add    %al,(%eax)
 a40:	02 01                	add    (%ecx),%al
 a42:	00 00                	add    %al,(%eax)
 a44:	02 00                	add    (%eax),%al
 a46:	74 04                	je     a4c <gdt_len+0x23c>
	...
 a50:	02 01                	add    (%ecx),%al
 a52:	00 00                	add    %al,(%eax)
 a54:	03 01                	add    (%ecx),%eax
 a56:	00 00                	add    %al,(%eax)
 a58:	02 00                	add    (%eax),%al
 a5a:	74 04                	je     a60 <gdt_len+0x250>
 a5c:	03 01                	add    (%ecx),%eax
 a5e:	00 00                	add    %al,(%eax)
 a60:	05 01 00 00 02       	add    $0x2000001,%eax
 a65:	00 74 08 05          	add    %dh,0x5(%eax,%ecx,1)
 a69:	01 00                	add    %eax,(%eax)
 a6b:	00 0a                	add    %cl,(%edx)
 a6d:	02 00                	add    (%eax),%al
 a6f:	00 02                	add    %al,(%edx)
 a71:	00 75 08             	add    %dh,0x8(%ebp)
 a74:	0a 02                	or     (%edx),%al
 a76:	00 00                	add    %al,(%eax)
 a78:	0b 02                	or     (%edx),%eax
 a7a:	00 00                	add    %al,(%eax)
 a7c:	02 00                	add    (%eax),%al
 a7e:	74 04                	je     a84 <gdt_len+0x274>
	...
 a8c:	01 00                	add    %eax,(%eax)
 a8e:	00 00                	add    %al,(%eax)
 a90:	02 00                	add    (%eax),%al
 a92:	74 04                	je     a98 <gdt_len+0x288>
 a94:	01 00                	add    %eax,(%eax)
 a96:	00 00                	add    %al,(%eax)
 a98:	03 00                	add    (%eax),%eax
 a9a:	00 00                	add    %al,(%eax)
 a9c:	02 00                	add    (%eax),%al
 a9e:	74 08                	je     aa8 <gdt_len+0x298>
 aa0:	03 00                	add    (%eax),%eax
 aa2:	00 00                	add    %al,(%eax)
 aa4:	80 00 00             	addb   $0x0,(%eax)
 aa7:	00 02                	add    %al,(%edx)
 aa9:	00 75 08             	add    %dh,0x8(%ebp)
 aac:	80 00 00             	addb   $0x0,(%eax)
 aaf:	00 81 00 00 00 02    	add    %al,0x2000000(%ecx)
 ab5:	00 74 04 00          	add    %dh,0x0(%esp,%eax,1)
	...
 ac1:	00 00                	add    %al,(%eax)
 ac3:	00 01                	add    %al,(%ecx)
 ac5:	00 00                	add    %al,(%eax)
 ac7:	00 02                	add    %al,(%edx)
 ac9:	00 74 04 01          	add    %dh,0x1(%esp,%eax,1)
 acd:	00 00                	add    %al,(%eax)
 acf:	00 03                	add    %al,(%ebx)
 ad1:	00 00                	add    %al,(%eax)
 ad3:	00 02                	add    %al,(%edx)
 ad5:	00 74 08 03          	add    %dh,0x3(%eax,%ecx,1)
 ad9:	00 00                	add    %al,(%eax)
 adb:	00 53 02             	add    %dl,0x2(%ebx)
 ade:	00 00                	add    %al,(%eax)
 ae0:	02 00                	add    (%eax),%al
 ae2:	75 08                	jne    aec <gdt_len+0x2dc>
	...
 aec:	53                   	push   %ebx
 aed:	02 00                	add    (%eax),%al
 aef:	00 54 02 00          	add    %dl,0x0(%edx,%eax,1)
 af3:	00 02                	add    %al,(%edx)
 af5:	00 74 04 54          	add    %dh,0x54(%esp,%eax,1)
 af9:	02 00                	add    (%eax),%al
 afb:	00 56 02             	add    %dl,0x2(%esi)
 afe:	00 00                	add    %al,(%eax)
 b00:	02 00                	add    (%eax),%al
 b02:	74 08                	je     b0c <gdt_len+0x2fc>
 b04:	56                   	push   %esi
 b05:	02 00                	add    (%eax),%al
 b07:	00 59 03             	add    %bl,0x3(%ecx)
 b0a:	00 00                	add    %al,(%eax)
 b0c:	02 00                	add    (%eax),%al
 b0e:	75 08                	jne    b18 <gdt_len+0x308>
 b10:	59                   	pop    %ecx
 b11:	03 00                	add    (%eax),%eax
 b13:	00 5a 03             	add    %bl,0x3(%edx)
 b16:	00 00                	add    %al,(%eax)
 b18:	02 00                	add    (%eax),%al
 b1a:	74 04                	je     b20 <gdt_len+0x310>
	...
 b24:	5a                   	pop    %edx
 b25:	03 00                	add    (%eax),%eax
 b27:	00 5b 03             	add    %bl,0x3(%ebx)
 b2a:	00 00                	add    %al,(%eax)
 b2c:	02 00                	add    (%eax),%al
 b2e:	74 04                	je     b34 <gdt_len+0x324>
 b30:	5b                   	pop    %ebx
 b31:	03 00                	add    (%eax),%eax
 b33:	00 5d 03             	add    %bl,0x3(%ebp)
 b36:	00 00                	add    %al,(%eax)
 b38:	02 00                	add    (%eax),%al
 b3a:	74 08                	je     b44 <gdt_len+0x334>
 b3c:	5d                   	pop    %ebp
 b3d:	03 00                	add    (%eax),%eax
 b3f:	00 c7                	add    %al,%bh
 b41:	03 00                	add    (%eax),%eax
 b43:	00 02                	add    %al,(%edx)
 b45:	00 75 08             	add    %dh,0x8(%ebp)
 b48:	c7 03 00 00 c8 03    	movl   $0x3c80000,(%ebx)
 b4e:	00 00                	add    %al,(%eax)
 b50:	02 00                	add    (%eax),%al
 b52:	74 04                	je     b58 <gdt_len+0x348>
	...

Disassembly of section .debug_pubtypes:

00000000 <.debug_pubtypes>:
   0:	45                   	inc    %ebp
   1:	00 00                	add    %al,(%eax)
   3:	00 02                	add    %al,(%edx)
   5:	00 00                	add    %al,(%eax)
   7:	00 00                	add    %al,(%eax)
   9:	00 12                	add    %dl,(%edx)
   b:	0d 00 00 25 00       	or     $0x250000,%eax
  10:	00 00                	add    %al,(%eax)
  12:	64                   	fs
  13:	65                   	gs
  14:	73 63                	jae    79 <MULTIBOOT_HEADER_FLAGS+0x76>
  16:	72 69                	jb     81 <MULTIBOOT_HEADER_FLAGS+0x7e>
  18:	70 74                	jo     8e <MULTIBOOT_HEADER_FLAGS+0x8b>
  1a:	6f                   	outsl  %ds:(%esi),(%dx)
  1b:	72 00                	jb     1d <MULTIBOOT_HEADER_FLAGS+0x1a>
  1d:	d9 00                	flds   (%eax)
  1f:	00 00                	add    %al,(%eax)
  21:	74 73                	je     96 <MULTIBOOT_HEADER_FLAGS+0x93>
  23:	73 00                	jae    25 <MULTIBOOT_HEADER_FLAGS+0x22>
  25:	53                   	push   %ebx
  26:	02 00                	add    (%eax),%al
  28:	00 67 61             	add    %ah,0x61(%edi)
  2b:	74 65                	je     92 <MULTIBOOT_HEADER_FLAGS+0x8f>
  2d:	00 ec                	add    %ch,%ah
  2f:	02 00                	add    (%eax),%al
  31:	00 74 61 73          	add    %dh,0x73(%ecx,%eiz,2)
  35:	6b 5f 73 74          	imul   $0x74,0x73(%edi),%ebx
  39:	72 75                	jb     b0 <MULTIBOOT_HEADER_FLAGS+0xad>
  3b:	63 74 00 dc          	arpl   %si,-0x24(%eax,%eax,1)
  3f:	03 00                	add    (%eax),%eax
  41:	00 74 6d 00          	add    %dh,0x0(%ebp,%ebp,2)
  45:	00 00                	add    %al,(%eax)
  47:	00 00                	add    %al,(%eax)
  49:	3c 00                	cmp    $0x0,%al
  4b:	00 00                	add    %al,(%eax)
  4d:	02 00                	add    (%eax),%al
  4f:	12 0d 00 00 f7 04    	adc    0x4f70000,%cl
  55:	00 00                	add    %al,(%eax)
  57:	25 00 00 00 64       	and    $0x64000000,%eax
  5c:	65                   	gs
  5d:	73 63                	jae    c2 <MULTIBOOT_HEADER_FLAGS+0xbf>
  5f:	72 69                	jb     ca <MULTIBOOT_HEADER_FLAGS+0xc7>
  61:	70 74                	jo     d7 <MULTIBOOT_HEADER_FLAGS+0xd4>
  63:	6f                   	outsl  %ds:(%esi),(%dx)
  64:	72 00                	jb     66 <MULTIBOOT_HEADER_FLAGS+0x63>
  66:	d9 00                	flds   (%eax)
  68:	00 00                	add    %al,(%eax)
  6a:	74 73                	je     df <MULTIBOOT_HEADER_FLAGS+0xdc>
  6c:	73 00                	jae    6e <MULTIBOOT_HEADER_FLAGS+0x6b>
  6e:	53                   	push   %ebx
  6f:	02 00                	add    (%eax),%al
  71:	00 74 61 73          	add    %dh,0x73(%ecx,%eiz,2)
  75:	6b 5f 73 74          	imul   $0x74,0x73(%edi),%ebx
  79:	72 75                	jb     f0 <MULTIBOOT_HEADER_FLAGS+0xed>
  7b:	63 74 00 43          	arpl   %si,0x43(%eax,%eax,1)
  7f:	03 00                	add    (%eax),%eax
  81:	00 74 6d 00          	add    %dh,0x0(%ebp,%ebp,2)
  85:	00 00                	add    %al,(%eax)
  87:	00 00                	add    %al,(%eax)
  89:	35 00 00 00 02       	xor    $0x2000000,%eax
  8e:	00 09                	add    %cl,(%ecx)
  90:	12 00                	adc    (%eax),%al
  92:	00 53 04             	add    %dl,0x4(%ebx)
  95:	00 00                	add    %al,(%eax)
  97:	25 00 00 00 64       	and    $0x64000000,%eax
  9c:	65                   	gs
  9d:	73 63                	jae    102 <MULTIBOOT_HEADER_FLAGS+0xff>
  9f:	72 69                	jb     10a <MULTIBOOT_HEADER_FLAGS+0x107>
  a1:	70 74                	jo     117 <MULTIBOOT_HEADER_FLAGS+0x114>
  a3:	6f                   	outsl  %ds:(%esi),(%dx)
  a4:	72 00                	jb     a6 <MULTIBOOT_HEADER_FLAGS+0xa3>
  a6:	d9 00                	flds   (%eax)
  a8:	00 00                	add    %al,(%eax)
  aa:	74 73                	je     11f <MULTIBOOT_HEADER_FLAGS+0x11c>
  ac:	73 00                	jae    ae <MULTIBOOT_HEADER_FLAGS+0xab>
  ae:	53                   	push   %ebx
  af:	02 00                	add    (%eax),%al
  b1:	00 74 61 73          	add    %dh,0x73(%ecx,%eiz,2)
  b5:	6b 5f 73 74          	imul   $0x74,0x73(%edi),%ebx
  b9:	72 75                	jb     130 <MULTIBOOT_HEADER_FLAGS+0x12d>
  bb:	63 74 00 00          	arpl   %si,0x0(%eax,%eax,1)
  bf:	00 00                	add    %al,(%eax)
  c1:	00 35 00 00 00 02    	add    %dh,0x2000000
  c7:	00 5c 16 00          	add    %bl,0x0(%esi,%edx,1)
  cb:	00 1f                	add    %bl,(%edi)
  cd:	06                   	push   %es
  ce:	00 00                	add    %al,(%eax)
  d0:	25 00 00 00 64       	and    $0x64000000,%eax
  d5:	65                   	gs
  d6:	73 63                	jae    13b <MULTIBOOT_HEADER_FLAGS+0x138>
  d8:	72 69                	jb     143 <MULTIBOOT_HEADER_FLAGS+0x140>
  da:	70 74                	jo     150 <MULTIBOOT_HEADER_FLAGS+0x14d>
  dc:	6f                   	outsl  %ds:(%esi),(%dx)
  dd:	72 00                	jb     df <MULTIBOOT_HEADER_FLAGS+0xdc>
  df:	d9 00                	flds   (%eax)
  e1:	00 00                	add    %al,(%eax)
  e3:	74 73                	je     158 <MULTIBOOT_HEADER_FLAGS+0x155>
  e5:	73 00                	jae    e7 <MULTIBOOT_HEADER_FLAGS+0xe4>
  e7:	53                   	push   %ebx
  e8:	02 00                	add    (%eax),%al
  ea:	00 74 61 73          	add    %dh,0x73(%ecx,%eiz,2)
  ee:	6b 5f 73 74          	imul   $0x74,0x73(%edi),%ebx
  f2:	72 75                	jb     169 <MULTIBOOT_HEADER_FLAGS+0x166>
  f4:	63 74 00 00          	arpl   %si,0x0(%eax,%eax,1)
  f8:	00 00                	add    %al,(%eax)
  fa:	00 2d 00 00 00 02    	add    %ch,0x2000000
 100:	00 7b 1c             	add    %bh,0x1c(%ebx)
 103:	00 00                	add    %al,(%eax)
 105:	c4 03                	les    (%ebx),%eax
 107:	00 00                	add    %al,(%eax)
 109:	25 00 00 00 5f       	and    $0x5f000000,%eax
 10e:	5f                   	pop    %edi
 10f:	67 6e                	outsb  %ds:(%si),(%dx)
 111:	75 63                	jne    176 <MULTIBOOT_HEADER_FLAGS+0x173>
 113:	5f                   	pop    %edi
 114:	76 61                	jbe    177 <MULTIBOOT_HEADER_FLAGS+0x174>
 116:	5f                   	pop    %edi
 117:	6c                   	insb   (%dx),%es:(%edi)
 118:	69 73 74 00 41 00 00 	imul   $0x4100,0x74(%ebx),%esi
 11f:	00 76 61             	add    %dh,0x61(%esi)
 122:	5f                   	pop    %edi
 123:	6c                   	insb   (%dx),%es:(%edi)
 124:	69 73 74 00 00 00 00 	imul   $0x0,0x74(%ebx),%esi
 12b:	00 15 00 00 00 02    	add    %dl,0x2000000
 131:	00 3f                	add    %bh,(%edi)
 133:	20 00                	and    %al,(%eax)
 135:	00 90 02 00 00 25    	add    %dl,0x25000002(%eax)
 13b:	00 00                	add    %al,(%eax)
 13d:	00 74 6d 00          	add    %dh,0x0(%ebp,%ebp,2)
 141:	00 00                	add    %al,(%eax)
 143:	00 00                	add    %al,(%eax)
 145:	35 00 00 00 02       	xor    $0x2000000,%eax
 14a:	00 cf                	add    %cl,%bh
 14c:	22 00                	and    (%eax),%al
 14e:	00 0b                	add    %cl,(%ebx)
 150:	04 00                	add    $0x0,%al
 152:	00 25 00 00 00 64    	add    %ah,0x64000000
 158:	65                   	gs
 159:	73 63                	jae    1be <MULTIBOOT_HEADER_FLAGS+0x1bb>
 15b:	72 69                	jb     1c6 <MULTIBOOT_HEADER_FLAGS+0x1c3>
 15d:	70 74                	jo     1d3 <MULTIBOOT_HEADER_FLAGS+0x1d0>
 15f:	6f                   	outsl  %ds:(%esi),(%dx)
 160:	72 00                	jb     162 <MULTIBOOT_HEADER_FLAGS+0x15f>
 162:	d9 00                	flds   (%eax)
 164:	00 00                	add    %al,(%eax)
 166:	74 73                	je     1db <MULTIBOOT_HEADER_FLAGS+0x1d8>
 168:	73 00                	jae    16a <MULTIBOOT_HEADER_FLAGS+0x167>
 16a:	53                   	push   %ebx
 16b:	02 00                	add    (%eax),%al
 16d:	00 74 61 73          	add    %dh,0x73(%ecx,%eiz,2)
 171:	6b 5f 73 74          	imul   $0x74,0x73(%edi),%ebx
 175:	72 75                	jb     1ec <MULTIBOOT_HEADER_FLAGS+0x1e9>
 177:	63 74 00 00          	arpl   %si,0x0(%eax,%eax,1)
 17b:	00 00                	add    %al,(%eax)
 17d:	00 44 00 00          	add    %al,0x0(%eax,%eax,1)
 181:	00 02                	add    %al,(%edx)
 183:	00 da                	add    %bl,%dl
 185:	26 00 00             	add    %al,%es:(%eax)
 188:	cb                   	lret   
 189:	05 00 00 25 00       	add    $0x250000,%eax
 18e:	00 00                	add    %al,(%eax)
 190:	64                   	fs
 191:	65                   	gs
 192:	73 63                	jae    1f7 <MULTIBOOT_HEADER_FLAGS+0x1f4>
 194:	72 69                	jb     1ff <MULTIBOOT_HEADER_FLAGS+0x1fc>
 196:	70 74                	jo     20c <MULTIBOOT_HEADER_FLAGS+0x209>
 198:	6f                   	outsl  %ds:(%esi),(%dx)
 199:	72 00                	jb     19b <MULTIBOOT_HEADER_FLAGS+0x198>
 19b:	d9 00                	flds   (%eax)
 19d:	00 00                	add    %al,(%eax)
 19f:	74 73                	je     214 <MULTIBOOT_HEADER_FLAGS+0x211>
 1a1:	73 00                	jae    1a3 <MULTIBOOT_HEADER_FLAGS+0x1a0>
 1a3:	53                   	push   %ebx
 1a4:	02 00                	add    (%eax),%al
 1a6:	00 74 61 73          	add    %dh,0x73(%ecx,%eiz,2)
 1aa:	6b 5f 73 74          	imul   $0x74,0x73(%edi),%ebx
 1ae:	72 75                	jb     225 <MULTIBOOT_HEADER_FLAGS+0x222>
 1b0:	63 74 00 43          	arpl   %si,0x43(%eax,%eax,1)
 1b4:	03 00                	add    (%eax),%eax
 1b6:	00 68 64             	add    %ch,0x64(%eax)
 1b9:	5f                   	pop    %edi
 1ba:	72 65                	jb     221 <MULTIBOOT_HEADER_FLAGS+0x21e>
 1bc:	71 75                	jno    233 <MULTIBOOT_HEADER_FLAGS+0x230>
 1be:	65                   	gs
 1bf:	73 74                	jae    235 <MULTIBOOT_HEADER_FLAGS+0x232>
 1c1:	00 00                	add    %al,(%eax)
 1c3:	00 00                	add    %al,(%eax)
 1c5:	00 1f                	add    %bl,(%edi)
 1c7:	00 00                	add    %al,(%eax)
 1c9:	00 02                	add    %al,(%edx)
 1cb:	00 a5 2c 00 00 3a    	add    %ah,0x3a00002c(%ebp)
 1d1:	01 00                	add    %eax,(%eax)
 1d3:	00 25 00 00 00 6b    	add    %ah,0x6b000000
 1d9:	65                   	gs
 1da:	79 62                	jns    23e <MULTIBOOT_HEADER_FLAGS+0x23b>
 1dc:	6f                   	outsl  %ds:(%esi),(%dx)
 1dd:	61                   	popa   
 1de:	72 64                	jb     244 <MULTIBOOT_HEADER_FLAGS+0x241>
 1e0:	5f                   	pop    %edi
 1e1:	62 75 66             	bound  %esi,0x66(%ebp)
 1e4:	00 00                	add    %al,(%eax)
 1e6:	00 00                	add    %al,(%eax)
 1e8:	00 46 00             	add    %al,0x0(%esi)
 1eb:	00 00                	add    %al,(%eax)
 1ed:	02 00                	add    (%eax),%al
 1ef:	df 2d 00 00 c5 05    	fildll 0x5c50000
 1f5:	00 00                	add    %al,(%eax)
 1f7:	25 00 00 00 6b       	and    $0x6b000000,%eax
 1fc:	65                   	gs
 1fd:	79 62                	jns    261 <MULTIBOOT_HEADER_FLAGS+0x25e>
 1ff:	6f                   	outsl  %ds:(%esi),(%dx)
 200:	61                   	popa   
 201:	72 64                	jb     267 <MULTIBOOT_HEADER_FLAGS+0x264>
 203:	5f                   	pop    %edi
 204:	62 75 66             	bound  %esi,0x66(%ebp)
 207:	00 94 00 00 00 64 65 	add    %dl,0x65640000(%eax,%eax,1)
 20e:	73 63                	jae    273 <MULTIBOOT_HEADER_FLAGS+0x270>
 210:	72 69                	jb     27b <MULTIBOOT_HEADER_FLAGS+0x278>
 212:	70 74                	jo     288 <MULTIBOOT_HEADER_FLAGS+0x285>
 214:	6f                   	outsl  %ds:(%esi),(%dx)
 215:	72 00                	jb     217 <MULTIBOOT_HEADER_FLAGS+0x214>
 217:	48                   	dec    %eax
 218:	01 00                	add    %eax,(%eax)
 21a:	00 74 73 73          	add    %dh,0x73(%ebx,%esi,2)
 21e:	00 bb 02 00 00 74    	add    %bh,0x74000002(%ebx)
 224:	61                   	popa   
 225:	73 6b                	jae    292 <MULTIBOOT_HEADER_FLAGS+0x28f>
 227:	5f                   	pop    %edi
 228:	73 74                	jae    29e <MULTIBOOT_HEADER_FLAGS+0x29b>
 22a:	72 75                	jb     2a1 <MULTIBOOT_HEADER_FLAGS+0x29e>
 22c:	63 74 00 00          	arpl   %si,0x0(%eax,%eax,1)
 230:	00 00                	add    %al,(%eax)
	...

Disassembly of section .debug_ranges:

00000000 <.debug_ranges>:
   0:	23 02                	and    (%edx),%eax
   2:	00 00                	add    %al,(%eax)
   4:	55                   	push   %ebp
   5:	02 00                	add    (%eax),%al
   7:	00 65 02             	add    %ah,0x2(%ebp)
   a:	00 00                	add    %al,(%eax)
   c:	66                   	data16
   d:	02 00                	add    (%eax),%al
	...
