
kernel:     file format elf32-i386


Disassembly of section .text:

00100000 <multiboot_header>:
  100000:	02 b0 ad 1b 03 00    	add    0x31bad(%eax),%dh
  100006:	00 00                	add    %al,(%eax)
  100008:	fb                   	sti    
  100009:	4f                   	dec    %edi
  10000a:	52                   	push   %edx
  10000b:	e4 e8                	in     $0xe8,%al

0010000c <_start>:
  10000c:	e8 cf 42 00 00       	call   1042e0 <kernel_main>
  100011:	b8 18 00 00 00       	mov    $0x18,%eax
  100016:	8e e8                	mov    %eax,%gs
  100018:	66 b8 20 00          	mov    $0x20,%ax
  10001c:	0f 00 d0             	lldt   %ax
  10001f:	66 b8 28 00          	mov    $0x28,%ax
  100023:	0f 00 d8             	ltr    %ax
  100026:	66 b8 10 00          	mov    $0x10,%ax
  10002a:	8e d8                	mov    %eax,%ds
  10002c:	8e c0                	mov    %eax,%es
  10002e:	8e d0                	mov    %eax,%ss
  100030:	66 b8 18 00          	mov    $0x18,%ax
  100034:	8e e8                	mov    %eax,%gs
  100036:	b8 d6 30 10 00       	mov    $0x1030d6,%eax
  10003b:	89 c4                	mov    %eax,%esp
  10003d:	9c                   	pushf  
  10003e:	81 24 24 ff bf ff ff 	andl   $0xffffbfff,(%esp)
  100045:	9d                   	popf   
  100046:	6a 17                	push   $0x17
  100048:	68 d6 20 10 00       	push   $0x1020d6
  10004d:	9c                   	pushf  
  10004e:	6a 0f                	push   $0xf
  100050:	68 3b 43 10 00       	push   $0x10433b
  100055:	cf                   	iret   
  100056:	90                   	nop
  100057:	90                   	nop
  100058:	90                   	nop
  100059:	90                   	nop
  10005a:	90                   	nop
  10005b:	90                   	nop
  10005c:	90                   	nop
  10005d:	90                   	nop
  10005e:	90                   	nop
  10005f:	90                   	nop
  100060:	90                   	nop
  100061:	90                   	nop
  100062:	90                   	nop
  100063:	90                   	nop
  100064:	90                   	nop
  100065:	90                   	nop
  100066:	90                   	nop
  100067:	90                   	nop
  100068:	90                   	nop
  100069:	90                   	nop
  10006a:	90                   	nop
  10006b:	90                   	nop
  10006c:	90                   	nop
  10006d:	90                   	nop
  10006e:	90                   	nop
  10006f:	90                   	nop
  100070:	90                   	nop
  100071:	90                   	nop
  100072:	90                   	nop
  100073:	90                   	nop
  100074:	90                   	nop
  100075:	90                   	nop
  100076:	90                   	nop
  100077:	90                   	nop
  100078:	90                   	nop
  100079:	90                   	nop
  10007a:	90                   	nop
  10007b:	90                   	nop
  10007c:	90                   	nop
  10007d:	90                   	nop
  10007e:	90                   	nop
  10007f:	90                   	nop

00100080 <idt>:
  100080:	00 00                	add    %al,(%eax)
  100082:	08 00                	or     %al,(%eax)
  100084:	00 8e 00 00 00 00    	add    %cl,0x0(%esi)
  10008a:	08 00                	or     %al,(%eax)
  10008c:	00 8e 00 00 00 00    	add    %cl,0x0(%esi)
  100092:	08 00                	or     %al,(%eax)
  100094:	00 8e 00 00 00 00    	add    %cl,0x0(%esi)
  10009a:	08 00                	or     %al,(%eax)
  10009c:	00 8e 00 00 00 00    	add    %cl,0x0(%esi)
  1000a2:	08 00                	or     %al,(%eax)
  1000a4:	00 8e 00 00 00 00    	add    %cl,0x0(%esi)
  1000aa:	08 00                	or     %al,(%eax)
  1000ac:	00 8e 00 00 00 00    	add    %cl,0x0(%esi)
  1000b2:	08 00                	or     %al,(%eax)
  1000b4:	00 8e 00 00 00 00    	add    %cl,0x0(%esi)
  1000ba:	08 00                	or     %al,(%eax)
  1000bc:	00 8e 00 00 00 00    	add    %cl,0x0(%esi)
  1000c2:	08 00                	or     %al,(%eax)
  1000c4:	00 8e 00 00 00 00    	add    %cl,0x0(%esi)
  1000ca:	08 00                	or     %al,(%eax)
  1000cc:	00 8e 00 00 00 00    	add    %cl,0x0(%esi)
  1000d2:	08 00                	or     %al,(%eax)
  1000d4:	00 8e 00 00 00 00    	add    %cl,0x0(%esi)
  1000da:	08 00                	or     %al,(%eax)
  1000dc:	00 8e 00 00 00 00    	add    %cl,0x0(%esi)
  1000e2:	08 00                	or     %al,(%eax)
  1000e4:	00 8e 00 00 00 00    	add    %cl,0x0(%esi)
  1000ea:	08 00                	or     %al,(%eax)
  1000ec:	00 8e 00 00 00 00    	add    %cl,0x0(%esi)
  1000f2:	08 00                	or     %al,(%eax)
  1000f4:	00 8e 00 00 00 00    	add    %cl,0x0(%esi)
  1000fa:	08 00                	or     %al,(%eax)
  1000fc:	00 8e 00 00 00 00    	add    %cl,0x0(%esi)
  100102:	08 00                	or     %al,(%eax)
  100104:	00 8e 00 00 00 00    	add    %cl,0x0(%esi)
  10010a:	08 00                	or     %al,(%eax)
  10010c:	00 8e 00 00 00 00    	add    %cl,0x0(%esi)
  100112:	08 00                	or     %al,(%eax)
  100114:	00 8e 00 00 00 00    	add    %cl,0x0(%esi)
  10011a:	08 00                	or     %al,(%eax)
  10011c:	00 8e 00 00 00 00    	add    %cl,0x0(%esi)
  100122:	08 00                	or     %al,(%eax)
  100124:	00 8e 00 00 00 00    	add    %cl,0x0(%esi)
  10012a:	08 00                	or     %al,(%eax)
  10012c:	00 8e 00 00 00 00    	add    %cl,0x0(%esi)
  100132:	08 00                	or     %al,(%eax)
  100134:	00 8e 00 00 00 00    	add    %cl,0x0(%esi)
  10013a:	08 00                	or     %al,(%eax)
  10013c:	00 8e 00 00 00 00    	add    %cl,0x0(%esi)
  100142:	08 00                	or     %al,(%eax)
  100144:	00 8e 00 00 00 00    	add    %cl,0x0(%esi)
  10014a:	08 00                	or     %al,(%eax)
  10014c:	00 8e 00 00 00 00    	add    %cl,0x0(%esi)
  100152:	08 00                	or     %al,(%eax)
  100154:	00 8e 00 00 00 00    	add    %cl,0x0(%esi)
  10015a:	08 00                	or     %al,(%eax)
  10015c:	00 8e 00 00 00 00    	add    %cl,0x0(%esi)
  100162:	08 00                	or     %al,(%eax)
  100164:	00 8e 00 00 00 00    	add    %cl,0x0(%esi)
  10016a:	08 00                	or     %al,(%eax)
  10016c:	00 8e 00 00 00 00    	add    %cl,0x0(%esi)
  100172:	08 00                	or     %al,(%eax)
  100174:	00 8e 00 00 00 00    	add    %cl,0x0(%esi)
  10017a:	08 00                	or     %al,(%eax)
  10017c:	00 8e 00 00 00 00    	add    %cl,0x0(%esi)
  100182:	08 00                	or     %al,(%eax)
  100184:	00 8e 00 00 00 00    	add    %cl,0x0(%esi)
  10018a:	08 00                	or     %al,(%eax)
  10018c:	00 8e 00 00 00 00    	add    %cl,0x0(%esi)
  100192:	08 00                	or     %al,(%eax)
  100194:	00 8e 00 00 00 00    	add    %cl,0x0(%esi)
  10019a:	08 00                	or     %al,(%eax)
  10019c:	00 8e 00 00 00 00    	add    %cl,0x0(%esi)
  1001a2:	08 00                	or     %al,(%eax)
  1001a4:	00 8e 00 00 00 00    	add    %cl,0x0(%esi)
  1001aa:	08 00                	or     %al,(%eax)
  1001ac:	00 8e 00 00 00 00    	add    %cl,0x0(%esi)
  1001b2:	08 00                	or     %al,(%eax)
  1001b4:	00 8e 00 00 00 00    	add    %cl,0x0(%esi)
  1001ba:	08 00                	or     %al,(%eax)
  1001bc:	00 8e 00 00 00 00    	add    %cl,0x0(%esi)
  1001c2:	08 00                	or     %al,(%eax)
  1001c4:	00 8e 00 00 00 00    	add    %cl,0x0(%esi)
  1001ca:	08 00                	or     %al,(%eax)
  1001cc:	00 8e 00 00 00 00    	add    %cl,0x0(%esi)
  1001d2:	08 00                	or     %al,(%eax)
  1001d4:	00 8e 00 00 00 00    	add    %cl,0x0(%esi)
  1001da:	08 00                	or     %al,(%eax)
  1001dc:	00 8e 00 00 00 00    	add    %cl,0x0(%esi)
  1001e2:	08 00                	or     %al,(%eax)
  1001e4:	00 8e 00 00 00 00    	add    %cl,0x0(%esi)
  1001ea:	08 00                	or     %al,(%eax)
  1001ec:	00 8e 00 00 00 00    	add    %cl,0x0(%esi)
  1001f2:	08 00                	or     %al,(%eax)
  1001f4:	00 8e 00 00 00 00    	add    %cl,0x0(%esi)
  1001fa:	08 00                	or     %al,(%eax)
  1001fc:	00 8e 00 00 00 00    	add    %cl,0x0(%esi)
  100202:	08 00                	or     %al,(%eax)
  100204:	00 8e 00 00 00 00    	add    %cl,0x0(%esi)
  10020a:	08 00                	or     %al,(%eax)
  10020c:	00 8e 00 00 00 00    	add    %cl,0x0(%esi)
  100212:	08 00                	or     %al,(%eax)
  100214:	00 8e 00 00 00 00    	add    %cl,0x0(%esi)
  10021a:	08 00                	or     %al,(%eax)
  10021c:	00 8e 00 00 00 00    	add    %cl,0x0(%esi)
  100222:	08 00                	or     %al,(%eax)
  100224:	00 8e 00 00 00 00    	add    %cl,0x0(%esi)
  10022a:	08 00                	or     %al,(%eax)
  10022c:	00 8e 00 00 00 00    	add    %cl,0x0(%esi)
  100232:	08 00                	or     %al,(%eax)
  100234:	00 8e 00 00 00 00    	add    %cl,0x0(%esi)
  10023a:	08 00                	or     %al,(%eax)
  10023c:	00 8e 00 00 00 00    	add    %cl,0x0(%esi)
  100242:	08 00                	or     %al,(%eax)
  100244:	00 8e 00 00 00 00    	add    %cl,0x0(%esi)
  10024a:	08 00                	or     %al,(%eax)
  10024c:	00 8e 00 00 00 00    	add    %cl,0x0(%esi)
  100252:	08 00                	or     %al,(%eax)
  100254:	00 8e 00 00 00 00    	add    %cl,0x0(%esi)
  10025a:	08 00                	or     %al,(%eax)
  10025c:	00 8e 00 00 00 00    	add    %cl,0x0(%esi)
  100262:	08 00                	or     %al,(%eax)
  100264:	00 8e 00 00 00 00    	add    %cl,0x0(%esi)
  10026a:	08 00                	or     %al,(%eax)
  10026c:	00 8e 00 00 00 00    	add    %cl,0x0(%esi)
  100272:	08 00                	or     %al,(%eax)
  100274:	00 8e 00 00 00 00    	add    %cl,0x0(%esi)
  10027a:	08 00                	or     %al,(%eax)
  10027c:	00 8e 00 00 00 00    	add    %cl,0x0(%esi)
  100282:	08 00                	or     %al,(%eax)
  100284:	00 8e 00 00 00 00    	add    %cl,0x0(%esi)
  10028a:	08 00                	or     %al,(%eax)
  10028c:	00 8e 00 00 00 00    	add    %cl,0x0(%esi)
  100292:	08 00                	or     %al,(%eax)
  100294:	00 8e 00 00 00 00    	add    %cl,0x0(%esi)
  10029a:	08 00                	or     %al,(%eax)
  10029c:	00 8e 00 00 00 00    	add    %cl,0x0(%esi)
  1002a2:	08 00                	or     %al,(%eax)
  1002a4:	00 8e 00 00 00 00    	add    %cl,0x0(%esi)
  1002aa:	08 00                	or     %al,(%eax)
  1002ac:	00 8e 00 00 00 00    	add    %cl,0x0(%esi)
  1002b2:	08 00                	or     %al,(%eax)
  1002b4:	00 8e 00 00 00 00    	add    %cl,0x0(%esi)
  1002ba:	08 00                	or     %al,(%eax)
  1002bc:	00 8e 00 00 00 00    	add    %cl,0x0(%esi)
  1002c2:	08 00                	or     %al,(%eax)
  1002c4:	00 8e 00 00 00 00    	add    %cl,0x0(%esi)
  1002ca:	08 00                	or     %al,(%eax)
  1002cc:	00 8e 00 00 00 00    	add    %cl,0x0(%esi)
  1002d2:	08 00                	or     %al,(%eax)
  1002d4:	00 8e 00 00 00 00    	add    %cl,0x0(%esi)
  1002da:	08 00                	or     %al,(%eax)
  1002dc:	00 8e 00 00 00 00    	add    %cl,0x0(%esi)
  1002e2:	08 00                	or     %al,(%eax)
  1002e4:	00 8e 00 00 00 00    	add    %cl,0x0(%esi)
  1002ea:	08 00                	or     %al,(%eax)
  1002ec:	00 8e 00 00 00 00    	add    %cl,0x0(%esi)
  1002f2:	08 00                	or     %al,(%eax)
  1002f4:	00 8e 00 00 00 00    	add    %cl,0x0(%esi)
  1002fa:	08 00                	or     %al,(%eax)
  1002fc:	00 8e 00 00 00 00    	add    %cl,0x0(%esi)
  100302:	08 00                	or     %al,(%eax)
  100304:	00 8e 00 00 00 00    	add    %cl,0x0(%esi)
  10030a:	08 00                	or     %al,(%eax)
  10030c:	00 8e 00 00 00 00    	add    %cl,0x0(%esi)
  100312:	08 00                	or     %al,(%eax)
  100314:	00 8e 00 00 00 00    	add    %cl,0x0(%esi)
  10031a:	08 00                	or     %al,(%eax)
  10031c:	00 8e 00 00 00 00    	add    %cl,0x0(%esi)
  100322:	08 00                	or     %al,(%eax)
  100324:	00 8e 00 00 00 00    	add    %cl,0x0(%esi)
  10032a:	08 00                	or     %al,(%eax)
  10032c:	00 8e 00 00 00 00    	add    %cl,0x0(%esi)
  100332:	08 00                	or     %al,(%eax)
  100334:	00 8e 00 00 00 00    	add    %cl,0x0(%esi)
  10033a:	08 00                	or     %al,(%eax)
  10033c:	00 8e 00 00 00 00    	add    %cl,0x0(%esi)
  100342:	08 00                	or     %al,(%eax)
  100344:	00 8e 00 00 00 00    	add    %cl,0x0(%esi)
  10034a:	08 00                	or     %al,(%eax)
  10034c:	00 8e 00 00 00 00    	add    %cl,0x0(%esi)
  100352:	08 00                	or     %al,(%eax)
  100354:	00 8e 00 00 00 00    	add    %cl,0x0(%esi)
  10035a:	08 00                	or     %al,(%eax)
  10035c:	00 8e 00 00 00 00    	add    %cl,0x0(%esi)
  100362:	08 00                	or     %al,(%eax)
  100364:	00 8e 00 00 00 00    	add    %cl,0x0(%esi)
  10036a:	08 00                	or     %al,(%eax)
  10036c:	00 8e 00 00 00 00    	add    %cl,0x0(%esi)
  100372:	08 00                	or     %al,(%eax)
  100374:	00 8e 00 00 00 00    	add    %cl,0x0(%esi)
  10037a:	08 00                	or     %al,(%eax)
  10037c:	00 8e 00 00 00 00    	add    %cl,0x0(%esi)
  100382:	08 00                	or     %al,(%eax)
  100384:	00 8e 00 00 00 00    	add    %cl,0x0(%esi)
  10038a:	08 00                	or     %al,(%eax)
  10038c:	00 8e 00 00 00 00    	add    %cl,0x0(%esi)
  100392:	08 00                	or     %al,(%eax)
  100394:	00 8e 00 00 00 00    	add    %cl,0x0(%esi)
  10039a:	08 00                	or     %al,(%eax)
  10039c:	00 8e 00 00 00 00    	add    %cl,0x0(%esi)
  1003a2:	08 00                	or     %al,(%eax)
  1003a4:	00 8e 00 00 00 00    	add    %cl,0x0(%esi)
  1003aa:	08 00                	or     %al,(%eax)
  1003ac:	00 8e 00 00 00 00    	add    %cl,0x0(%esi)
  1003b2:	08 00                	or     %al,(%eax)
  1003b4:	00 8e 00 00 00 00    	add    %cl,0x0(%esi)
  1003ba:	08 00                	or     %al,(%eax)
  1003bc:	00 8e 00 00 00 00    	add    %cl,0x0(%esi)
  1003c2:	08 00                	or     %al,(%eax)
  1003c4:	00 8e 00 00 00 00    	add    %cl,0x0(%esi)
  1003ca:	08 00                	or     %al,(%eax)
  1003cc:	00 8e 00 00 00 00    	add    %cl,0x0(%esi)
  1003d2:	08 00                	or     %al,(%eax)
  1003d4:	00 8e 00 00 00 00    	add    %cl,0x0(%esi)
  1003da:	08 00                	or     %al,(%eax)
  1003dc:	00 8e 00 00 00 00    	add    %cl,0x0(%esi)
  1003e2:	08 00                	or     %al,(%eax)
  1003e4:	00 8e 00 00 00 00    	add    %cl,0x0(%esi)
  1003ea:	08 00                	or     %al,(%eax)
  1003ec:	00 8e 00 00 00 00    	add    %cl,0x0(%esi)
  1003f2:	08 00                	or     %al,(%eax)
  1003f4:	00 8e 00 00 00 00    	add    %cl,0x0(%esi)
  1003fa:	08 00                	or     %al,(%eax)
  1003fc:	00 8e 00 00 00 00    	add    %cl,0x0(%esi)
  100402:	08 00                	or     %al,(%eax)
  100404:	00 8e 00 00 00 00    	add    %cl,0x0(%esi)
  10040a:	08 00                	or     %al,(%eax)
  10040c:	00 8e 00 00 00 00    	add    %cl,0x0(%esi)
  100412:	08 00                	or     %al,(%eax)
  100414:	00 8e 00 00 00 00    	add    %cl,0x0(%esi)
  10041a:	08 00                	or     %al,(%eax)
  10041c:	00 8e 00 00 00 00    	add    %cl,0x0(%esi)
  100422:	08 00                	or     %al,(%eax)
  100424:	00 8e 00 00 00 00    	add    %cl,0x0(%esi)
  10042a:	08 00                	or     %al,(%eax)
  10042c:	00 8e 00 00 00 00    	add    %cl,0x0(%esi)
  100432:	08 00                	or     %al,(%eax)
  100434:	00 8e 00 00 00 00    	add    %cl,0x0(%esi)
  10043a:	08 00                	or     %al,(%eax)
  10043c:	00 8e 00 00 00 00    	add    %cl,0x0(%esi)
  100442:	08 00                	or     %al,(%eax)
  100444:	00 8e 00 00 00 00    	add    %cl,0x0(%esi)
  10044a:	08 00                	or     %al,(%eax)
  10044c:	00 8e 00 00 00 00    	add    %cl,0x0(%esi)
  100452:	08 00                	or     %al,(%eax)
  100454:	00 8e 00 00 00 00    	add    %cl,0x0(%esi)
  10045a:	08 00                	or     %al,(%eax)
  10045c:	00 8e 00 00 00 00    	add    %cl,0x0(%esi)
  100462:	08 00                	or     %al,(%eax)
  100464:	00 8e 00 00 00 00    	add    %cl,0x0(%esi)
  10046a:	08 00                	or     %al,(%eax)
  10046c:	00 8e 00 00 00 00    	add    %cl,0x0(%esi)
  100472:	08 00                	or     %al,(%eax)
  100474:	00 8e 00 00 00 00    	add    %cl,0x0(%esi)
  10047a:	08 00                	or     %al,(%eax)
  10047c:	00 8e 00 00 00 00    	add    %cl,0x0(%esi)
  100482:	08 00                	or     %al,(%eax)
  100484:	00 8e 00 00 00 00    	add    %cl,0x0(%esi)
  10048a:	08 00                	or     %al,(%eax)
  10048c:	00 8e 00 00 00 00    	add    %cl,0x0(%esi)
  100492:	08 00                	or     %al,(%eax)
  100494:	00 8e 00 00 00 00    	add    %cl,0x0(%esi)
  10049a:	08 00                	or     %al,(%eax)
  10049c:	00 8e 00 00 00 00    	add    %cl,0x0(%esi)
  1004a2:	08 00                	or     %al,(%eax)
  1004a4:	00 8e 00 00 00 00    	add    %cl,0x0(%esi)
  1004aa:	08 00                	or     %al,(%eax)
  1004ac:	00 8e 00 00 00 00    	add    %cl,0x0(%esi)
  1004b2:	08 00                	or     %al,(%eax)
  1004b4:	00 8e 00 00 00 00    	add    %cl,0x0(%esi)
  1004ba:	08 00                	or     %al,(%eax)
  1004bc:	00 8e 00 00 00 00    	add    %cl,0x0(%esi)
  1004c2:	08 00                	or     %al,(%eax)
  1004c4:	00 8e 00 00 00 00    	add    %cl,0x0(%esi)
  1004ca:	08 00                	or     %al,(%eax)
  1004cc:	00 8e 00 00 00 00    	add    %cl,0x0(%esi)
  1004d2:	08 00                	or     %al,(%eax)
  1004d4:	00 8e 00 00 00 00    	add    %cl,0x0(%esi)
  1004da:	08 00                	or     %al,(%eax)
  1004dc:	00 8e 00 00 00 00    	add    %cl,0x0(%esi)
  1004e2:	08 00                	or     %al,(%eax)
  1004e4:	00 8e 00 00 00 00    	add    %cl,0x0(%esi)
  1004ea:	08 00                	or     %al,(%eax)
  1004ec:	00 8e 00 00 00 00    	add    %cl,0x0(%esi)
  1004f2:	08 00                	or     %al,(%eax)
  1004f4:	00 8e 00 00 00 00    	add    %cl,0x0(%esi)
  1004fa:	08 00                	or     %al,(%eax)
  1004fc:	00 8e 00 00 00 00    	add    %cl,0x0(%esi)
  100502:	08 00                	or     %al,(%eax)
  100504:	00 8e 00 00 00 00    	add    %cl,0x0(%esi)
  10050a:	08 00                	or     %al,(%eax)
  10050c:	00 8e 00 00 00 00    	add    %cl,0x0(%esi)
  100512:	08 00                	or     %al,(%eax)
  100514:	00 8e 00 00 00 00    	add    %cl,0x0(%esi)
  10051a:	08 00                	or     %al,(%eax)
  10051c:	00 8e 00 00 00 00    	add    %cl,0x0(%esi)
  100522:	08 00                	or     %al,(%eax)
  100524:	00 8e 00 00 00 00    	add    %cl,0x0(%esi)
  10052a:	08 00                	or     %al,(%eax)
  10052c:	00 8e 00 00 00 00    	add    %cl,0x0(%esi)
  100532:	08 00                	or     %al,(%eax)
  100534:	00 8e 00 00 00 00    	add    %cl,0x0(%esi)
  10053a:	08 00                	or     %al,(%eax)
  10053c:	00 8e 00 00 00 00    	add    %cl,0x0(%esi)
  100542:	08 00                	or     %al,(%eax)
  100544:	00 8e 00 00 00 00    	add    %cl,0x0(%esi)
  10054a:	08 00                	or     %al,(%eax)
  10054c:	00 8e 00 00 00 00    	add    %cl,0x0(%esi)
  100552:	08 00                	or     %al,(%eax)
  100554:	00 8e 00 00 00 00    	add    %cl,0x0(%esi)
  10055a:	08 00                	or     %al,(%eax)
  10055c:	00 8e 00 00 00 00    	add    %cl,0x0(%esi)
  100562:	08 00                	or     %al,(%eax)
  100564:	00 8e 00 00 00 00    	add    %cl,0x0(%esi)
  10056a:	08 00                	or     %al,(%eax)
  10056c:	00 8e 00 00 00 00    	add    %cl,0x0(%esi)
  100572:	08 00                	or     %al,(%eax)
  100574:	00 8e 00 00 00 00    	add    %cl,0x0(%esi)
  10057a:	08 00                	or     %al,(%eax)
  10057c:	00 8e 00 00 00 00    	add    %cl,0x0(%esi)
  100582:	08 00                	or     %al,(%eax)
  100584:	00 8e 00 00 00 00    	add    %cl,0x0(%esi)
  10058a:	08 00                	or     %al,(%eax)
  10058c:	00 8e 00 00 00 00    	add    %cl,0x0(%esi)
  100592:	08 00                	or     %al,(%eax)
  100594:	00 8e 00 00 00 00    	add    %cl,0x0(%esi)
  10059a:	08 00                	or     %al,(%eax)
  10059c:	00 8e 00 00 00 00    	add    %cl,0x0(%esi)
  1005a2:	08 00                	or     %al,(%eax)
  1005a4:	00 8e 00 00 00 00    	add    %cl,0x0(%esi)
  1005aa:	08 00                	or     %al,(%eax)
  1005ac:	00 8e 00 00 00 00    	add    %cl,0x0(%esi)
  1005b2:	08 00                	or     %al,(%eax)
  1005b4:	00 8e 00 00 00 00    	add    %cl,0x0(%esi)
  1005ba:	08 00                	or     %al,(%eax)
  1005bc:	00 8e 00 00 00 00    	add    %cl,0x0(%esi)
  1005c2:	08 00                	or     %al,(%eax)
  1005c4:	00 8e 00 00 00 00    	add    %cl,0x0(%esi)
  1005ca:	08 00                	or     %al,(%eax)
  1005cc:	00 8e 00 00 00 00    	add    %cl,0x0(%esi)
  1005d2:	08 00                	or     %al,(%eax)
  1005d4:	00 8e 00 00 00 00    	add    %cl,0x0(%esi)
  1005da:	08 00                	or     %al,(%eax)
  1005dc:	00 8e 00 00 00 00    	add    %cl,0x0(%esi)
  1005e2:	08 00                	or     %al,(%eax)
  1005e4:	00 8e 00 00 00 00    	add    %cl,0x0(%esi)
  1005ea:	08 00                	or     %al,(%eax)
  1005ec:	00 8e 00 00 00 00    	add    %cl,0x0(%esi)
  1005f2:	08 00                	or     %al,(%eax)
  1005f4:	00 8e 00 00 00 00    	add    %cl,0x0(%esi)
  1005fa:	08 00                	or     %al,(%eax)
  1005fc:	00 8e 00 00 00 00    	add    %cl,0x0(%esi)
  100602:	08 00                	or     %al,(%eax)
  100604:	00 8e 00 00 00 00    	add    %cl,0x0(%esi)
  10060a:	08 00                	or     %al,(%eax)
  10060c:	00 8e 00 00 00 00    	add    %cl,0x0(%esi)
  100612:	08 00                	or     %al,(%eax)
  100614:	00 8e 00 00 00 00    	add    %cl,0x0(%esi)
  10061a:	08 00                	or     %al,(%eax)
  10061c:	00 8e 00 00 00 00    	add    %cl,0x0(%esi)
  100622:	08 00                	or     %al,(%eax)
  100624:	00 8e 00 00 00 00    	add    %cl,0x0(%esi)
  10062a:	08 00                	or     %al,(%eax)
  10062c:	00 8e 00 00 00 00    	add    %cl,0x0(%esi)
  100632:	08 00                	or     %al,(%eax)
  100634:	00 8e 00 00 00 00    	add    %cl,0x0(%esi)
  10063a:	08 00                	or     %al,(%eax)
  10063c:	00 8e 00 00 00 00    	add    %cl,0x0(%esi)
  100642:	08 00                	or     %al,(%eax)
  100644:	00 8e 00 00 00 00    	add    %cl,0x0(%esi)
  10064a:	08 00                	or     %al,(%eax)
  10064c:	00 8e 00 00 00 00    	add    %cl,0x0(%esi)
  100652:	08 00                	or     %al,(%eax)
  100654:	00 8e 00 00 00 00    	add    %cl,0x0(%esi)
  10065a:	08 00                	or     %al,(%eax)
  10065c:	00 8e 00 00 00 00    	add    %cl,0x0(%esi)
  100662:	08 00                	or     %al,(%eax)
  100664:	00 8e 00 00 00 00    	add    %cl,0x0(%esi)
  10066a:	08 00                	or     %al,(%eax)
  10066c:	00 8e 00 00 00 00    	add    %cl,0x0(%esi)
  100672:	08 00                	or     %al,(%eax)
  100674:	00 8e 00 00 00 00    	add    %cl,0x0(%esi)
  10067a:	08 00                	or     %al,(%eax)
  10067c:	00 8e 00 00 00 00    	add    %cl,0x0(%esi)
  100682:	08 00                	or     %al,(%eax)
  100684:	00 8e 00 00 00 00    	add    %cl,0x0(%esi)
  10068a:	08 00                	or     %al,(%eax)
  10068c:	00 8e 00 00 00 00    	add    %cl,0x0(%esi)
  100692:	08 00                	or     %al,(%eax)
  100694:	00 8e 00 00 00 00    	add    %cl,0x0(%esi)
  10069a:	08 00                	or     %al,(%eax)
  10069c:	00 8e 00 00 00 00    	add    %cl,0x0(%esi)
  1006a2:	08 00                	or     %al,(%eax)
  1006a4:	00 8e 00 00 00 00    	add    %cl,0x0(%esi)
  1006aa:	08 00                	or     %al,(%eax)
  1006ac:	00 8e 00 00 00 00    	add    %cl,0x0(%esi)
  1006b2:	08 00                	or     %al,(%eax)
  1006b4:	00 8e 00 00 00 00    	add    %cl,0x0(%esi)
  1006ba:	08 00                	or     %al,(%eax)
  1006bc:	00 8e 00 00 00 00    	add    %cl,0x0(%esi)
  1006c2:	08 00                	or     %al,(%eax)
  1006c4:	00 8e 00 00 00 00    	add    %cl,0x0(%esi)
  1006ca:	08 00                	or     %al,(%eax)
  1006cc:	00 8e 00 00 00 00    	add    %cl,0x0(%esi)
  1006d2:	08 00                	or     %al,(%eax)
  1006d4:	00 8e 00 00 00 00    	add    %cl,0x0(%esi)
  1006da:	08 00                	or     %al,(%eax)
  1006dc:	00 8e 00 00 00 00    	add    %cl,0x0(%esi)
  1006e2:	08 00                	or     %al,(%eax)
  1006e4:	00 8e 00 00 00 00    	add    %cl,0x0(%esi)
  1006ea:	08 00                	or     %al,(%eax)
  1006ec:	00 8e 00 00 00 00    	add    %cl,0x0(%esi)
  1006f2:	08 00                	or     %al,(%eax)
  1006f4:	00 8e 00 00 00 00    	add    %cl,0x0(%esi)
  1006fa:	08 00                	or     %al,(%eax)
  1006fc:	00 8e 00 00 00 00    	add    %cl,0x0(%esi)
  100702:	08 00                	or     %al,(%eax)
  100704:	00 8e 00 00 00 00    	add    %cl,0x0(%esi)
  10070a:	08 00                	or     %al,(%eax)
  10070c:	00 8e 00 00 00 00    	add    %cl,0x0(%esi)
  100712:	08 00                	or     %al,(%eax)
  100714:	00 8e 00 00 00 00    	add    %cl,0x0(%esi)
  10071a:	08 00                	or     %al,(%eax)
  10071c:	00 8e 00 00 00 00    	add    %cl,0x0(%esi)
  100722:	08 00                	or     %al,(%eax)
  100724:	00 8e 00 00 00 00    	add    %cl,0x0(%esi)
  10072a:	08 00                	or     %al,(%eax)
  10072c:	00 8e 00 00 00 00    	add    %cl,0x0(%esi)
  100732:	08 00                	or     %al,(%eax)
  100734:	00 8e 00 00 00 00    	add    %cl,0x0(%esi)
  10073a:	08 00                	or     %al,(%eax)
  10073c:	00 8e 00 00 00 00    	add    %cl,0x0(%esi)
  100742:	08 00                	or     %al,(%eax)
  100744:	00 8e 00 00 00 00    	add    %cl,0x0(%esi)
  10074a:	08 00                	or     %al,(%eax)
  10074c:	00 8e 00 00 00 00    	add    %cl,0x0(%esi)
  100752:	08 00                	or     %al,(%eax)
  100754:	00 8e 00 00 00 00    	add    %cl,0x0(%esi)
  10075a:	08 00                	or     %al,(%eax)
  10075c:	00 8e 00 00 00 00    	add    %cl,0x0(%esi)
  100762:	08 00                	or     %al,(%eax)
  100764:	00 8e 00 00 00 00    	add    %cl,0x0(%esi)
  10076a:	08 00                	or     %al,(%eax)
  10076c:	00 8e 00 00 00 00    	add    %cl,0x0(%esi)
  100772:	08 00                	or     %al,(%eax)
  100774:	00 8e 00 00 00 00    	add    %cl,0x0(%esi)
  10077a:	08 00                	or     %al,(%eax)
  10077c:	00 8e 00 00 00 00    	add    %cl,0x0(%esi)
  100782:	08 00                	or     %al,(%eax)
  100784:	00 8e 00 00 00 00    	add    %cl,0x0(%esi)
  10078a:	08 00                	or     %al,(%eax)
  10078c:	00 8e 00 00 00 00    	add    %cl,0x0(%esi)
  100792:	08 00                	or     %al,(%eax)
  100794:	00 8e 00 00 00 00    	add    %cl,0x0(%esi)
  10079a:	08 00                	or     %al,(%eax)
  10079c:	00 8e 00 00 00 00    	add    %cl,0x0(%esi)
  1007a2:	08 00                	or     %al,(%eax)
  1007a4:	00 8e 00 00 00 00    	add    %cl,0x0(%esi)
  1007aa:	08 00                	or     %al,(%eax)
  1007ac:	00 8e 00 00 00 00    	add    %cl,0x0(%esi)
  1007b2:	08 00                	or     %al,(%eax)
  1007b4:	00 8e 00 00 00 00    	add    %cl,0x0(%esi)
  1007ba:	08 00                	or     %al,(%eax)
  1007bc:	00 8e 00 00 00 00    	add    %cl,0x0(%esi)
  1007c2:	08 00                	or     %al,(%eax)
  1007c4:	00 8e 00 00 00 00    	add    %cl,0x0(%esi)
  1007ca:	08 00                	or     %al,(%eax)
  1007cc:	00 8e 00 00 00 00    	add    %cl,0x0(%esi)
  1007d2:	08 00                	or     %al,(%eax)
  1007d4:	00 8e 00 00 00 00    	add    %cl,0x0(%esi)
  1007da:	08 00                	or     %al,(%eax)
  1007dc:	00 8e 00 00 00 00    	add    %cl,0x0(%esi)
  1007e2:	08 00                	or     %al,(%eax)
  1007e4:	00 8e 00 00 00 00    	add    %cl,0x0(%esi)
  1007ea:	08 00                	or     %al,(%eax)
  1007ec:	00 8e 00 00 00 00    	add    %cl,0x0(%esi)
  1007f2:	08 00                	or     %al,(%eax)
  1007f4:	00 8e 00 00 00 00    	add    %cl,0x0(%esi)
  1007fa:	08 00                	or     %al,(%eax)
  1007fc:	00 8e 00 00 00 00    	add    %cl,0x0(%esi)
  100802:	08 00                	or     %al,(%eax)
  100804:	00 8e 00 00 00 00    	add    %cl,0x0(%esi)
  10080a:	08 00                	or     %al,(%eax)
  10080c:	00 8e 00 00 00 00    	add    %cl,0x0(%esi)
  100812:	08 00                	or     %al,(%eax)
  100814:	00 8e 00 00 00 00    	add    %cl,0x0(%esi)
  10081a:	08 00                	or     %al,(%eax)
  10081c:	00 8e 00 00 00 00    	add    %cl,0x0(%esi)
  100822:	08 00                	or     %al,(%eax)
  100824:	00 8e 00 00 00 00    	add    %cl,0x0(%esi)
  10082a:	08 00                	or     %al,(%eax)
  10082c:	00 8e 00 00 00 00    	add    %cl,0x0(%esi)
  100832:	08 00                	or     %al,(%eax)
  100834:	00 8e 00 00 00 00    	add    %cl,0x0(%esi)
  10083a:	08 00                	or     %al,(%eax)
  10083c:	00 8e 00 00 00 00    	add    %cl,0x0(%esi)
  100842:	08 00                	or     %al,(%eax)
  100844:	00 8e 00 00 00 00    	add    %cl,0x0(%esi)
  10084a:	08 00                	or     %al,(%eax)
  10084c:	00 8e 00 00 00 00    	add    %cl,0x0(%esi)
  100852:	08 00                	or     %al,(%eax)
  100854:	00 8e 00 00 00 00    	add    %cl,0x0(%esi)
  10085a:	08 00                	or     %al,(%eax)
  10085c:	00 8e 00 00 00 00    	add    %cl,0x0(%esi)
  100862:	08 00                	or     %al,(%eax)
  100864:	00 8e 00 00 00 00    	add    %cl,0x0(%esi)
  10086a:	08 00                	or     %al,(%eax)
  10086c:	00 8e 00 00 00 00    	add    %cl,0x0(%esi)
  100872:	08 00                	or     %al,(%eax)
  100874:	00 8e 00 00 00 00    	add    %cl,0x0(%esi)
  10087a:	08 00                	or     %al,(%eax)
  10087c:	00 8e 00 00 00 08    	add    %cl,0x8000000(%esi)

00100880 <idt_ptr>:
  100880:	00 08                	add    %cl,(%eax)
  100882:	80 00 10             	addb   $0x10,(%eax)
  100885:	00 90 90 90 90 90    	add    %dl,-0x6f6f6f70(%eax)
  10088b:	90                   	nop
  10088c:	90                   	nop
  10088d:	90                   	nop
  10088e:	90                   	nop
  10088f:	90                   	nop
  100890:	90                   	nop
  100891:	90                   	nop
  100892:	90                   	nop
  100893:	90                   	nop
  100894:	90                   	nop
  100895:	90                   	nop
  100896:	90                   	nop
  100897:	90                   	nop
  100898:	90                   	nop
  100899:	90                   	nop
  10089a:	90                   	nop
  10089b:	90                   	nop
  10089c:	90                   	nop
  10089d:	90                   	nop
  10089e:	90                   	nop
  10089f:	90                   	nop
  1008a0:	90                   	nop
  1008a1:	90                   	nop
  1008a2:	90                   	nop
  1008a3:	90                   	nop
  1008a4:	90                   	nop
  1008a5:	90                   	nop
  1008a6:	90                   	nop
  1008a7:	90                   	nop
  1008a8:	90                   	nop
  1008a9:	90                   	nop
  1008aa:	90                   	nop
  1008ab:	90                   	nop
  1008ac:	90                   	nop
  1008ad:	90                   	nop
  1008ae:	90                   	nop
  1008af:	90                   	nop
  1008b0:	90                   	nop
  1008b1:	90                   	nop
  1008b2:	90                   	nop
  1008b3:	90                   	nop
  1008b4:	90                   	nop
  1008b5:	90                   	nop
  1008b6:	90                   	nop
  1008b7:	90                   	nop
  1008b8:	90                   	nop
  1008b9:	90                   	nop
  1008ba:	90                   	nop
  1008bb:	90                   	nop
  1008bc:	90                   	nop
  1008bd:	90                   	nop
  1008be:	90                   	nop
  1008bf:	90                   	nop

001008c0 <gdt>:
	...
  1008c8:	ff                   	(bad)  
  1008c9:	ff 00                	incl   (%eax)
  1008cb:	00 00                	add    %al,(%eax)
  1008cd:	9a c0 00 ff ff 00 00 	lcall  $0x0,$0xffff00c0
  1008d4:	00 92 c0 00 ff ff    	add    %dl,-0xff40(%edx)
  1008da:	00 80 0b f2 c0 00    	add    %al,0xc0f20b(%eax)

001008e0 <ldt0_seg>:
  1008e0:	ff                   	(bad)  
  1008e1:	ff 00                	incl   (%eax)
  1008e3:	00 00                	add    %al,(%eax)
  1008e5:	e2 00                	loop   1008e7 <ldt0_seg+0x7>
	...

001008e8 <tss0_seg>:
  1008e8:	67 00 00             	add    %al,(%bx,%si)
  1008eb:	00 00                	add    %al,(%eax)
  1008ed:	e9 00 00 ff ff       	jmp    f08f2 <gdt_len+0xf00e2>

001008f0 <ldt1_seg>:
  1008f0:	ff                   	(bad)  
  1008f1:	ff 00                	incl   (%eax)
  1008f3:	00 00                	add    %al,(%eax)
  1008f5:	e2 00                	loop   1008f7 <ldt1_seg+0x7>
	...

001008f8 <tss1_seg>:
  1008f8:	67 00 00             	add    %al,(%bx,%si)
  1008fb:	00 00                	add    %al,(%eax)
  1008fd:	e9 00 00 00 00       	jmp    100902 <tss1_seg+0xa>
	...

001010d0 <gdt_ptr>:
  1010d0:	0f 08                	invd   
  1010d2:	c0 08 10             	rorb   $0x10,(%eax)
	...

001020d6 <task0_user_stack>:
	...

001030d6 <kernel_stack>:
  1030d6:	90                   	nop
  1030d7:	90                   	nop
  1030d8:	90                   	nop
  1030d9:	90                   	nop
  1030da:	90                   	nop
  1030db:	90                   	nop
  1030dc:	90                   	nop
  1030dd:	90                   	nop
  1030de:	90                   	nop
  1030df:	90                   	nop
  1030e0:	90                   	nop
  1030e1:	90                   	nop
  1030e2:	90                   	nop
  1030e3:	90                   	nop
  1030e4:	90                   	nop
  1030e5:	90                   	nop
  1030e6:	90                   	nop
  1030e7:	90                   	nop
  1030e8:	90                   	nop
  1030e9:	90                   	nop
  1030ea:	90                   	nop
  1030eb:	90                   	nop
  1030ec:	90                   	nop
  1030ed:	90                   	nop
  1030ee:	90                   	nop
  1030ef:	90                   	nop
  1030f0:	90                   	nop
  1030f1:	90                   	nop
  1030f2:	90                   	nop
  1030f3:	90                   	nop
  1030f4:	90                   	nop
  1030f5:	90                   	nop
  1030f6:	90                   	nop
  1030f7:	90                   	nop
  1030f8:	90                   	nop
  1030f9:	90                   	nop
  1030fa:	90                   	nop
  1030fb:	90                   	nop
  1030fc:	90                   	nop
  1030fd:	90                   	nop
  1030fe:	90                   	nop
  1030ff:	90                   	nop

00103100 <ldt0>:
	...
  103108:	ff 03                	incl   (%ebx)
  10310a:	00 00                	add    %al,(%eax)
  10310c:	00 fa                	add    %bh,%dl
  10310e:	c0 00 ff             	rolb   $0xff,(%eax)
  103111:	03 00                	add    (%eax),%eax
  103113:	00 00                	add    %al,(%eax)
  103115:	f2 c0 00 00          	repnz rolb $0x0,(%eax)

00103118 <tss0>:
  103118:	00 00                	add    %al,(%eax)
  10311a:	00 00                	add    %al,(%eax)
  10311c:	80 33 10             	xorb   $0x10,(%ebx)
  10311f:	00 10                	add    %dl,(%eax)
	...
  103135:	00 fe                	add    %bh,%dh
  103137:	01 00                	add    %eax,(%eax)
	...
  10315d:	00 00                	add    %al,(%eax)
  10315f:	00 17                	add    %dl,(%edi)
  103161:	00 00                	add    %al,(%eax)
  103163:	00 0f                	add    %cl,(%edi)
  103165:	00 00                	add    %al,(%eax)
  103167:	00 17                	add    %dl,(%edi)
  103169:	00 00                	add    %al,(%eax)
  10316b:	00 17                	add    %dl,(%edi)
  10316d:	00 00                	add    %al,(%eax)
  10316f:	00 17                	add    %dl,(%edi)
  103171:	00 00                	add    %al,(%eax)
  103173:	00 18                	add    %bl,(%eax)
  103175:	00 00                	add    %al,(%eax)
  103177:	00 20                	add    %ah,(%eax)
  103179:	00 00                	add    %al,(%eax)
  10317b:	00 00                	add    %al,(%eax)
  10317d:	00 00                	add    %al,(%eax)
  10317f:	08 00                	or     %al,(%eax)

00103180 <stack_0>:
	...

00103380 <ldt1>:
	...
  103388:	ff 03                	incl   (%ebx)
  10338a:	00 00                	add    %al,(%eax)
  10338c:	00 fa                	add    %bh,%dl
  10338e:	c0 00 ff             	rolb   $0xff,(%eax)
  103391:	03 00                	add    (%eax),%eax
  103393:	00 00                	add    %al,(%eax)
  103395:	f2 c0 00 00          	repnz rolb $0x0,(%eax)

00103398 <tss1>:
  103398:	00 00                	add    %al,(%eax)
  10339a:	00 00                	add    %al,(%eax)
  10339c:	00 36                	add    %dh,(%esi)
  10339e:	10 00                	adc    %al,(%eax)
  1033a0:	10 00                	adc    %al,(%eax)
	...
  1033b6:	fe 01                	incb   (%ecx)
  1033b8:	7b 43                	jnp    1033fd <tss1+0x65>
  1033ba:	10 00                	adc    %al,(%eax)
  1033bc:	00 02                	add    %al,(%edx)
	...
  1033ce:	00 00                	add    %al,(%eax)
  1033d0:	00 38                	add    %bh,(%eax)
  1033d2:	10 00                	adc    %al,(%eax)
	...
  1033e0:	17                   	pop    %ss
  1033e1:	00 00                	add    %al,(%eax)
  1033e3:	00 0f                	add    %cl,(%edi)
  1033e5:	00 00                	add    %al,(%eax)
  1033e7:	00 17                	add    %dl,(%edi)
  1033e9:	00 00                	add    %al,(%eax)
  1033eb:	00 17                	add    %dl,(%edi)
  1033ed:	00 00                	add    %al,(%eax)
  1033ef:	00 17                	add    %dl,(%edi)
  1033f1:	00 00                	add    %al,(%eax)
  1033f3:	00 18                	add    %bl,(%eax)
  1033f5:	00 00                	add    %al,(%eax)
  1033f7:	00 30                	add    %dh,(%eax)
  1033f9:	00 00                	add    %al,(%eax)
  1033fb:	00 00                	add    %al,(%eax)
  1033fd:	00 00                	add    %al,(%eax)
  1033ff:	08 00                	or     %al,(%eax)

00103400 <stack_1>:
	...

00103600 <task1_kernel_stack>:
	...

00103800 <current>:
  103800:	00 00                	add    %al,(%eax)
	...

00103804 <scr_loc>:
  103804:	00 00                	add    %al,(%eax)
	...

00103808 <enable_tss>:
  103808:	8b 3d d2 10 10 00    	mov    0x1010d2,%edi
  10380e:	8d 7c 07 05          	lea    0x5(%edi,%eax,1),%edi
  103812:	80 27 fd             	andb   $0xfd,(%edi)
  103815:	c3                   	ret    

00103816 <memcpy>:
  103816:	55                   	push   %ebp
  103817:	89 e5                	mov    %esp,%ebp
  103819:	8b 45 08             	mov    0x8(%ebp),%eax
  10381c:	8b 5d 0c             	mov    0xc(%ebp),%ebx
  10381f:	8b 4d 10             	mov    0x10(%ebp),%ecx
  103822:	83 f9 00             	cmp    $0x0,%ecx
  103825:	74 08                	je     10382f <nothing_copy>

00103827 <loop_copy>:
  103827:	8a 13                	mov    (%ebx),%dl
  103829:	88 10                	mov    %dl,(%eax)
  10382b:	43                   	inc    %ebx
  10382c:	40                   	inc    %eax
  10382d:	e2 f8                	loop   103827 <loop_copy>

0010382f <nothing_copy>:
  10382f:	8b 45 08             	mov    0x8(%ebp),%eax
  103832:	5d                   	pop    %ebp
  103833:	c3                   	ret    

00103834 <memset>:
  103834:	55                   	push   %ebp
  103835:	89 e5                	mov    %esp,%ebp
  103837:	60                   	pusha  
  103838:	8b 7d 08             	mov    0x8(%ebp),%edi
  10383b:	8b 45 0c             	mov    0xc(%ebp),%eax
  10383e:	8b 4d 10             	mov    0x10(%ebp),%ecx
  103841:	83 f9 00             	cmp    $0x0,%ecx
  103844:	74 05                	je     10384b <memset_size_zero>

00103846 <memset_loop>:
  103846:	88 07                	mov    %al,(%edi)
  103848:	47                   	inc    %edi
  103849:	e2 fb                	loop   103846 <memset_loop>

0010384b <memset_size_zero>:
  10384b:	8b 45 08             	mov    0x8(%ebp),%eax
  10384e:	61                   	popa   
  10384f:	55                   	push   %ebp
  103850:	c3                   	ret    

00103851 <Init8259A>:
  103851:	b0 36                	mov    $0x36,%al
  103853:	66 ba 43 00          	mov    $0x43,%dx
  103857:	ee                   	out    %al,(%dx)
  103858:	b8 9a 2e 00 00       	mov    $0x2e9a,%eax
  10385d:	ba 40 00 00 00       	mov    $0x40,%edx
  103862:	ee                   	out    %al,(%dx)
  103863:	88 e0                	mov    %ah,%al
  103865:	ee                   	out    %al,(%dx)
  103866:	b0 11                	mov    $0x11,%al
  103868:	e6 20                	out    %al,$0x20
  10386a:	e6 a0                	out    %al,$0xa0
  10386c:	b0 20                	mov    $0x20,%al
  10386e:	e6 21                	out    %al,$0x21
  103870:	b0 28                	mov    $0x28,%al
  103872:	e6 a1                	out    %al,$0xa1
  103874:	b0 04                	mov    $0x4,%al
  103876:	e6 21                	out    %al,$0x21
  103878:	b0 02                	mov    $0x2,%al
  10387a:	e6 a1                	out    %al,$0xa1
  10387c:	b0 01                	mov    $0x1,%al
  10387e:	e6 21                	out    %al,$0x21
  103880:	e6 a1                	out    %al,$0xa1
  103882:	c3                   	ret    

00103883 <print_str>:
  103883:	55                   	push   %ebp
  103884:	89 e5                	mov    %esp,%ebp
  103886:	60                   	pusha  
  103887:	8b 75 08             	mov    0x8(%ebp),%esi
  10388a:	8b 4d 0c             	mov    0xc(%ebp),%ecx
  10388d:	8b 55 10             	mov    0x10(%ebp),%edx
  103890:	01 d2                	add    %edx,%edx
  103892:	b4 0c                	mov    $0xc,%ah

00103894 <loop_show>:
  103894:	8a 06                	mov    (%esi),%al
  103896:	65 66 89 02          	mov    %ax,%gs:(%edx)
  10389a:	83 c2 02             	add    $0x2,%edx
  10389d:	83 c6 01             	add    $0x1,%esi
  1038a0:	e2 f2                	loop   103894 <loop_show>
  1038a2:	61                   	popa   
  1038a3:	5d                   	pop    %ebp
  1038a4:	c3                   	ret    

001038a5 <clear>:
  1038a5:	66 b8 00 06          	mov    $0x600,%ax
  1038a9:	b7 07                	mov    $0x7,%bh
  1038ab:	66 b9 00 00          	mov    $0x0,%cx
  1038af:	66 ba 4f 18          	mov    $0x184f,%dx
  1038b3:	cd 10                	int    $0x10
  1038b5:	c3                   	ret    

001038b6 <print_str_stack>:
  1038b6:	55                   	push   %ebp
  1038b7:	89 e5                	mov    %esp,%ebp
  1038b9:	60                   	pusha  
  1038ba:	8b 75 08             	mov    0x8(%ebp),%esi
  1038bd:	8b 4d 0c             	mov    0xc(%ebp),%ecx
  1038c0:	8b 55 10             	mov    0x10(%ebp),%edx
  1038c3:	01 d2                	add    %edx,%edx
  1038c5:	b4 0c                	mov    $0xc,%ah

001038c7 <stack_loop_show>:
  1038c7:	36 8a 06             	mov    %ss:(%esi),%al
  1038ca:	65 66 89 02          	mov    %ax,%gs:(%edx)
  1038ce:	83 c2 02             	add    $0x2,%edx
  1038d1:	83 c6 01             	add    $0x1,%esi
  1038d4:	e2 f1                	loop   1038c7 <stack_loop_show>
  1038d6:	61                   	popa   
  1038d7:	5d                   	pop    %ebp
  1038d8:	c3                   	ret    

001038d9 <stack_clear>:
  1038d9:	66 b8 00 06          	mov    $0x600,%ax
  1038dd:	b7 07                	mov    $0x7,%bh
  1038df:	66 b9 00 00          	mov    $0x0,%cx
  1038e3:	66 ba 4f 18          	mov    $0x184f,%dx
  1038e7:	cd 10                	int    $0x10
  1038e9:	c3                   	ret    

001038ea <error_code>:
	...

001038eb <asm_div_error>:
  1038eb:	60                   	pusha  
  1038ec:	06                   	push   %es
  1038ed:	0f a0                	push   %fs
  1038ef:	0f a8                	push   %gs
  1038f1:	e8 2e 03 00 00       	call   103c24 <do_div_error>
  1038f6:	0f a9                	pop    %gs
  1038f8:	0f a1                	pop    %fs
  1038fa:	07                   	pop    %es
  1038fb:	61                   	popa   
  1038fc:	cf                   	iret   
  1038fd:	cf                   	iret   

001038fe <asm_debug>:
  1038fe:	60                   	pusha  
  1038ff:	06                   	push   %es
  103900:	0f a0                	push   %fs
  103902:	0f a8                	push   %gs
  103904:	e8 70 03 00 00       	call   103c79 <do_debug>
  103909:	0f a9                	pop    %gs
  10390b:	0f a1                	pop    %fs
  10390d:	07                   	pop    %es
  10390e:	61                   	popa   
  10390f:	cf                   	iret   
  103910:	cf                   	iret   

00103911 <asm_mon>:
  103911:	cf                   	iret   

00103912 <asm_breakpoint>:
  103912:	60                   	pusha  
  103913:	06                   	push   %es
  103914:	0f a0                	push   %fs
  103916:	0f a8                	push   %gs
  103918:	e8 b1 03 00 00       	call   103cce <do_breakpoint>
  10391d:	0f a9                	pop    %gs
  10391f:	0f a1                	pop    %fs
  103921:	07                   	pop    %es
  103922:	61                   	popa   
  103923:	cf                   	iret   
  103924:	cf                   	iret   

00103925 <asm_overflow>:
  103925:	60                   	pusha  
  103926:	06                   	push   %es
  103927:	0f a0                	push   %fs
  103929:	0f a8                	push   %gs
  10392b:	e8 a3 03 00 00       	call   103cd3 <do_overflow>
  103930:	0f a9                	pop    %gs
  103932:	0f a1                	pop    %fs
  103934:	07                   	pop    %es
  103935:	61                   	popa   
  103936:	cf                   	iret   
  103937:	cf                   	iret   

00103938 <asm_overbound>:
  103938:	60                   	pusha  
  103939:	06                   	push   %es
  10393a:	0f a0                	push   %fs
  10393c:	0f a8                	push   %gs
  10393e:	e8 e5 03 00 00       	call   103d28 <do_overbound>
  103943:	0f a9                	pop    %gs
  103945:	0f a1                	pop    %fs
  103947:	07                   	pop    %es
  103948:	61                   	popa   
  103949:	cf                   	iret   
  10394a:	cf                   	iret   

0010394b <asm_undefine>:
  10394b:	60                   	pusha  
  10394c:	06                   	push   %es
  10394d:	0f a0                	push   %fs
  10394f:	0f a8                	push   %gs
  103951:	e8 27 04 00 00       	call   103d7d <do_undefine>
  103956:	0f a9                	pop    %gs
  103958:	0f a1                	pop    %fs
  10395a:	07                   	pop    %es
  10395b:	61                   	popa   
  10395c:	cf                   	iret   
  10395d:	cf                   	iret   

0010395e <asm_nm>:
  10395e:	60                   	pusha  
  10395f:	06                   	push   %es
  103960:	0f a0                	push   %fs
  103962:	0f a8                	push   %gs
  103964:	e8 69 04 00 00       	call   103dd2 <do_nm>
  103969:	0f a9                	pop    %gs
  10396b:	0f a1                	pop    %fs
  10396d:	07                   	pop    %es
  10396e:	61                   	popa   
  10396f:	cf                   	iret   
  103970:	cf                   	iret   

00103971 <asm_doublefault>:
  103971:	8f 05 ea 38 10 00    	popl   0x1038ea
  103977:	60                   	pusha  
  103978:	06                   	push   %es
  103979:	0f a0                	push   %fs
  10397b:	0f a8                	push   %gs
  10397d:	ff 35 ea 38 10 00    	pushl  0x1038ea
  103983:	e8 9f 04 00 00       	call   103e27 <do_doublefault>
  103988:	8f 05 ea 38 10 00    	popl   0x1038ea
  10398e:	0f a9                	pop    %gs
  103990:	0f a1                	pop    %fs
  103992:	07                   	pop    %es
  103993:	61                   	popa   
  103994:	cf                   	iret   
  103995:	cf                   	iret   

00103996 <asm_cop>:
  103996:	60                   	pusha  
  103997:	06                   	push   %es
  103998:	0f a0                	push   %fs
  10399a:	0f a8                	push   %gs
  10399c:	e8 db 04 00 00       	call   103e7c <do_cop>
  1039a1:	0f a9                	pop    %gs
  1039a3:	0f a1                	pop    %fs
  1039a5:	07                   	pop    %es
  1039a6:	61                   	popa   
  1039a7:	cf                   	iret   
  1039a8:	cf                   	iret   

001039a9 <asm_tss>:
  1039a9:	8f 05 ea 38 10 00    	popl   0x1038ea
  1039af:	60                   	pusha  
  1039b0:	06                   	push   %es
  1039b1:	0f a0                	push   %fs
  1039b3:	0f a8                	push   %gs
  1039b5:	ff 35 ea 38 10 00    	pushl  0x1038ea
  1039bb:	e8 11 05 00 00       	call   103ed1 <do_tss>
  1039c0:	8f 05 ea 38 10 00    	popl   0x1038ea
  1039c6:	0f a9                	pop    %gs
  1039c8:	0f a1                	pop    %fs
  1039ca:	07                   	pop    %es
  1039cb:	61                   	popa   
  1039cc:	cf                   	iret   
  1039cd:	cf                   	iret   

001039ce <asm_seg_fault>:
  1039ce:	8f 05 ea 38 10 00    	popl   0x1038ea
  1039d4:	60                   	pusha  
  1039d5:	06                   	push   %es
  1039d6:	0f a0                	push   %fs
  1039d8:	0f a8                	push   %gs
  1039da:	ff 35 ea 38 10 00    	pushl  0x1038ea
  1039e0:	e8 41 05 00 00       	call   103f26 <do_seg_fault>
  1039e5:	8f 05 ea 38 10 00    	popl   0x1038ea
  1039eb:	0f a9                	pop    %gs
  1039ed:	0f a1                	pop    %fs
  1039ef:	07                   	pop    %es
  1039f0:	61                   	popa   
  1039f1:	cf                   	iret   
  1039f2:	cf                   	iret   

001039f3 <asm_stack_fault>:
  1039f3:	8f 05 ea 38 10 00    	popl   0x1038ea
  1039f9:	60                   	pusha  
  1039fa:	06                   	push   %es
  1039fb:	0f a0                	push   %fs
  1039fd:	0f a8                	push   %gs
  1039ff:	ff 35 ea 38 10 00    	pushl  0x1038ea
  103a05:	e8 71 05 00 00       	call   103f7b <do_stack_fault>
  103a0a:	8f 05 ea 38 10 00    	popl   0x1038ea
  103a10:	0f a9                	pop    %gs
  103a12:	0f a1                	pop    %fs
  103a14:	07                   	pop    %es
  103a15:	61                   	popa   
  103a16:	cf                   	iret   
  103a17:	cf                   	iret   

00103a18 <asm_general_protect>:
  103a18:	8f 05 ea 38 10 00    	popl   0x1038ea
  103a1e:	60                   	pusha  
  103a1f:	06                   	push   %es
  103a20:	0f a0                	push   %fs
  103a22:	0f a8                	push   %gs
  103a24:	ff 35 ea 38 10 00    	pushl  0x1038ea
  103a2a:	e8 a1 05 00 00       	call   103fd0 <do_general_protect>
  103a2f:	8f 05 ea 38 10 00    	popl   0x1038ea
  103a35:	0f a9                	pop    %gs
  103a37:	0f a1                	pop    %fs
  103a39:	07                   	pop    %es
  103a3a:	61                   	popa   
  103a3b:	cf                   	iret   
  103a3c:	cf                   	iret   

00103a3d <asm_page_fault>:
  103a3d:	8f 05 ea 38 10 00    	popl   0x1038ea
  103a43:	60                   	pusha  
  103a44:	06                   	push   %es
  103a45:	0f a0                	push   %fs
  103a47:	0f a8                	push   %gs
  103a49:	ff 35 ea 38 10 00    	pushl  0x1038ea
  103a4f:	e8 96 0d 00 00       	call   1047ea <do_page_fault>
  103a54:	8f 05 ea 38 10 00    	popl   0x1038ea
  103a5a:	0f a9                	pop    %gs
  103a5c:	0f a1                	pop    %fs
  103a5e:	07                   	pop    %es
  103a5f:	61                   	popa   
  103a60:	cf                   	iret   
  103a61:	cf                   	iret   

00103a62 <asm_reserve>:
  103a62:	cf                   	iret   

00103a63 <asm_fpu_error>:
  103a63:	60                   	pusha  
  103a64:	06                   	push   %es
  103a65:	0f a0                	push   %fs
  103a67:	0f a8                	push   %gs
  103a69:	e8 b7 05 00 00       	call   104025 <do_fpu_error>
  103a6e:	0f a9                	pop    %gs
  103a70:	0f a1                	pop    %fs
  103a72:	07                   	pop    %es
  103a73:	61                   	popa   
  103a74:	cf                   	iret   
  103a75:	cf                   	iret   

00103a76 <asm_align_check>:
  103a76:	8f 05 ea 38 10 00    	popl   0x1038ea
  103a7c:	60                   	pusha  
  103a7d:	06                   	push   %es
  103a7e:	0f a0                	push   %fs
  103a80:	0f a8                	push   %gs
  103a82:	ff 35 ea 38 10 00    	pushl  0x1038ea
  103a88:	e8 ed 05 00 00       	call   10407a <do_align_check>
  103a8d:	8f 05 ea 38 10 00    	popl   0x1038ea
  103a93:	0f a9                	pop    %gs
  103a95:	0f a1                	pop    %fs
  103a97:	07                   	pop    %es
  103a98:	61                   	popa   
  103a99:	cf                   	iret   
  103a9a:	cf                   	iret   

00103a9b <asm_machine_check>:
  103a9b:	60                   	pusha  
  103a9c:	06                   	push   %es
  103a9d:	0f a0                	push   %fs
  103a9f:	0f a8                	push   %gs
  103aa1:	e8 29 06 00 00       	call   1040cf <do_machine_check>
  103aa6:	0f a9                	pop    %gs
  103aa8:	0f a1                	pop    %fs
  103aaa:	07                   	pop    %es
  103aab:	61                   	popa   
  103aac:	cf                   	iret   
  103aad:	cf                   	iret   

00103aae <asm_simd_fault>:
  103aae:	60                   	pusha  
  103aaf:	06                   	push   %es
  103ab0:	0f a0                	push   %fs
  103ab2:	0f a8                	push   %gs
  103ab4:	e8 6b 06 00 00       	call   104124 <do_simd_fault>
  103ab9:	0f a9                	pop    %gs
  103abb:	0f a1                	pop    %fs
  103abd:	07                   	pop    %es
  103abe:	61                   	popa   
  103abf:	cf                   	iret   
  103ac0:	cf                   	iret   

00103ac1 <asm_general_handler>:
  103ac1:	cf                   	iret   

00103ac2 <asm_int_timer>:
  103ac2:	1e                   	push   %ds
  103ac3:	60                   	pusha  
  103ac4:	b8 10 00 00 00       	mov    $0x10,%eax
  103ac9:	8e d8                	mov    %eax,%ds
  103acb:	b0 20                	mov    $0x20,%al
  103acd:	e6 20                	out    %al,$0x20
  103acf:	e8 a5 06 00 00       	call   104179 <do_int_timer>
  103ad4:	61                   	popa   
  103ad5:	1f                   	pop    %ds
  103ad6:	cf                   	iret   

00103ad7 <asm_int_keyboard>:
  103ad7:	fa                   	cli    
  103ad8:	60                   	pusha  
  103ad9:	e8 7a 19 00 00       	call   105458 <do_int_keyboard>
  103ade:	61                   	popa   
  103adf:	b0 20                	mov    $0x20,%al
  103ae1:	e6 20                	out    %al,$0x20
  103ae3:	fb                   	sti    
  103ae4:	cf                   	iret   

00103ae5 <asm_int_hd>:
  103ae5:	e8 05 07 00 00       	call   1041ef <do_int_hd>
  103aea:	cf                   	iret   

00103aeb <asm_sys_call>:
  103aeb:	52                   	push   %edx
  103aec:	51                   	push   %ecx
  103aed:	53                   	push   %ebx
  103aee:	50                   	push   %eax
  103aef:	e8 8c 07 00 00       	call   104280 <sys_call>
  103af4:	58                   	pop    %eax
  103af5:	5b                   	pop    %ebx
  103af6:	59                   	pop    %ecx
  103af7:	5a                   	pop    %edx
  103af8:	cf                   	iret   
  103af9:	90                   	nop
  103afa:	90                   	nop
  103afb:	90                   	nop

00103afc <do_nom>:
  103afc:	55                   	push   %ebp
  103afd:	89 e5                	mov    %esp,%ebp
  103aff:	5d                   	pop    %ebp
  103b00:	c3                   	ret    

00103b01 <do_reserve>:
  103b01:	55                   	push   %ebp
  103b02:	89 e5                	mov    %esp,%ebp
  103b04:	5d                   	pop    %ebp
  103b05:	c3                   	ret    

00103b06 <init_idt>:
  103b06:	55                   	push   %ebp
  103b07:	89 e5                	mov    %esp,%ebp
  103b09:	56                   	push   %esi
  103b0a:	53                   	push   %ebx
  103b0b:	83 ec 10             	sub    $0x10,%esp
  103b0e:	b8 c2 3a 10 00       	mov    $0x103ac2,%eax
  103b13:	a3 20 6b 10 00       	mov    %eax,0x106b20
  103b18:	b8 d7 3a 10 00       	mov    $0x103ad7,%eax
  103b1d:	a3 24 6b 10 00       	mov    %eax,0x106b24
  103b22:	b8 e5 3a 10 00       	mov    $0x103ae5,%eax
  103b27:	a3 58 6b 10 00       	mov    %eax,0x106b58
  103b2c:	e8 20 fd ff ff       	call   103851 <Init8259A>
  103b31:	c7 45 f4 30 00 00 00 	movl   $0x30,-0xc(%ebp)
  103b38:	eb 13                	jmp    103b4d <init_idt+0x47>
  103b3a:	83 45 f4 01          	addl   $0x1,-0xc(%ebp)
  103b3e:	ba c1 3a 10 00       	mov    $0x103ac1,%edx
  103b43:	8b 45 f4             	mov    -0xc(%ebp),%eax
  103b46:	89 14 85 a0 6a 10 00 	mov    %edx,0x106aa0(,%eax,4)
  103b4d:	81 7d f4 fe 00 00 00 	cmpl   $0xfe,-0xc(%ebp)
  103b54:	7e e4                	jle    103b3a <init_idt+0x34>
  103b56:	c7 45 f4 00 00 00 00 	movl   $0x0,-0xc(%ebp)
  103b5d:	eb 3e                	jmp    103b9d <init_idt+0x97>
  103b5f:	8b 45 f4             	mov    -0xc(%ebp),%eax
  103b62:	c1 e0 03             	shl    $0x3,%eax
  103b65:	8d b0 80 00 10 00    	lea    0x100080(%eax),%esi
  103b6b:	8b 45 f4             	mov    -0xc(%ebp),%eax
  103b6e:	8b 1c 85 a0 6a 10 00 	mov    0x106aa0(,%eax,4),%ebx
  103b75:	b9 08 00 00 00       	mov    $0x8,%ecx
  103b7a:	ba 00 8e 00 00       	mov    $0x8e00,%edx
  103b7f:	89 f0                	mov    %esi,%eax
  103b81:	66 89 18             	mov    %bx,(%eax)
  103b84:	83 c0 02             	add    $0x2,%eax
  103b87:	66 89 08             	mov    %cx,(%eax)
  103b8a:	83 c0 02             	add    $0x2,%eax
  103b8d:	66 89 10             	mov    %dx,(%eax)
  103b90:	83 c0 02             	add    $0x2,%eax
  103b93:	c1 eb 10             	shr    $0x10,%ebx
  103b96:	66 89 18             	mov    %bx,(%eax)
  103b99:	83 45 f4 01          	addl   $0x1,-0xc(%ebp)
  103b9d:	81 7d f4 ff 00 00 00 	cmpl   $0xff,-0xc(%ebp)
  103ba4:	7e b9                	jle    103b5f <init_idt+0x59>
  103ba6:	b8 80 00 10 00       	mov    $0x100080,%eax
  103bab:	83 c0 1d             	add    $0x1d,%eax
  103bae:	89 45 f0             	mov    %eax,-0x10(%ebp)
  103bb1:	8b 45 f0             	mov    -0x10(%ebp),%eax
  103bb4:	0f b6 00             	movzbl (%eax),%eax
  103bb7:	89 c2                	mov    %eax,%edx
  103bb9:	83 ca 60             	or     $0x60,%edx
  103bbc:	8b 45 f0             	mov    -0x10(%ebp),%eax
  103bbf:	88 10                	mov    %dl,(%eax)
  103bc1:	b8 80 00 10 00       	mov    $0x100080,%eax
  103bc6:	05 5d 05 00 00       	add    $0x55d,%eax
  103bcb:	89 45 ec             	mov    %eax,-0x14(%ebp)
  103bce:	8b 45 ec             	mov    -0x14(%ebp),%eax
  103bd1:	0f b6 00             	movzbl (%eax),%eax
  103bd4:	89 c2                	mov    %eax,%edx
  103bd6:	83 ca 60             	or     $0x60,%edx
  103bd9:	8b 45 ec             	mov    -0x14(%ebp),%eax
  103bdc:	88 10                	mov    %dl,(%eax)
  103bde:	b8 eb 3a 10 00       	mov    $0x103aeb,%eax
  103be3:	66 a3 d8 05 10 00    	mov    %ax,0x1005d8
  103be9:	b8 eb 3a 10 00       	mov    $0x103aeb,%eax
  103bee:	c1 e8 10             	shr    $0x10,%eax
  103bf1:	66 a3 de 05 10 00    	mov    %ax,0x1005de
  103bf7:	b8 80 08 10 00       	mov    $0x100880,%eax
  103bfc:	0f 01 18             	lidtl  (%eax)
  103bff:	ba 21 00 00 00       	mov    $0x21,%edx
  103c04:	b8 ff 00 00 00       	mov    $0xff,%eax
  103c09:	ee                   	out    %al,(%dx)
  103c0a:	90                   	nop
  103c0b:	90                   	nop
  103c0c:	90                   	nop
  103c0d:	90                   	nop
  103c0e:	ba a1 00 00 00       	mov    $0xa1,%edx
  103c13:	b8 ff 00 00 00       	mov    $0xff,%eax
  103c18:	ee                   	out    %al,(%dx)
  103c19:	90                   	nop
  103c1a:	90                   	nop
  103c1b:	90                   	nop
  103c1c:	90                   	nop
  103c1d:	83 c4 10             	add    $0x10,%esp
  103c20:	5b                   	pop    %ebx
  103c21:	5e                   	pop    %esi
  103c22:	5d                   	pop    %ebp
  103c23:	c3                   	ret    

00103c24 <do_div_error>:
  103c24:	55                   	push   %ebp
  103c25:	89 e5                	mov    %esp,%ebp
  103c27:	83 ec 10             	sub    $0x10,%esp
  103c2a:	c7 45 fc a4 58 10 00 	movl   $0x1058a4,-0x4(%ebp)
  103c31:	a1 28 75 10 00       	mov    0x107528,%eax
  103c36:	89 45 f8             	mov    %eax,-0x8(%ebp)
  103c39:	eb 25                	jmp    103c60 <do_div_error+0x3c>
  103c3b:	8b 45 fc             	mov    -0x4(%ebp),%eax
  103c3e:	0f b6 00             	movzbl (%eax),%eax
  103c41:	66 98                	cbtw   
  103c43:	80 cc 0c             	or     $0xc,%ah
  103c46:	66 89 45 f6          	mov    %ax,-0xa(%ebp)
  103c4a:	8b 45 f8             	mov    -0x8(%ebp),%eax
  103c4d:	8d 14 00             	lea    (%eax,%eax,1),%edx
  103c50:	0f b7 45 f6          	movzwl -0xa(%ebp),%eax
  103c54:	65 66 89 02          	mov    %ax,%gs:(%edx)
  103c58:	83 45 fc 01          	addl   $0x1,-0x4(%ebp)
  103c5c:	83 45 f8 01          	addl   $0x1,-0x8(%ebp)
  103c60:	8b 45 fc             	mov    -0x4(%ebp),%eax
  103c63:	0f b6 00             	movzbl (%eax),%eax
  103c66:	84 c0                	test   %al,%al
  103c68:	75 d1                	jne    103c3b <do_div_error+0x17>
  103c6a:	a1 28 75 10 00       	mov    0x107528,%eax
  103c6f:	83 c0 14             	add    $0x14,%eax
  103c72:	a3 28 75 10 00       	mov    %eax,0x107528
  103c77:	c9                   	leave  
  103c78:	c3                   	ret    

00103c79 <do_debug>:
  103c79:	55                   	push   %ebp
  103c7a:	89 e5                	mov    %esp,%ebp
  103c7c:	83 ec 10             	sub    $0x10,%esp
  103c7f:	c7 45 fc b5 58 10 00 	movl   $0x1058b5,-0x4(%ebp)
  103c86:	a1 28 75 10 00       	mov    0x107528,%eax
  103c8b:	89 45 f8             	mov    %eax,-0x8(%ebp)
  103c8e:	eb 25                	jmp    103cb5 <do_debug+0x3c>
  103c90:	8b 45 fc             	mov    -0x4(%ebp),%eax
  103c93:	0f b6 00             	movzbl (%eax),%eax
  103c96:	66 98                	cbtw   
  103c98:	80 cc 0c             	or     $0xc,%ah
  103c9b:	66 89 45 f6          	mov    %ax,-0xa(%ebp)
  103c9f:	8b 45 f8             	mov    -0x8(%ebp),%eax
  103ca2:	8d 14 00             	lea    (%eax,%eax,1),%edx
  103ca5:	0f b7 45 f6          	movzwl -0xa(%ebp),%eax
  103ca9:	65 66 89 02          	mov    %ax,%gs:(%edx)
  103cad:	83 45 fc 01          	addl   $0x1,-0x4(%ebp)
  103cb1:	83 45 f8 01          	addl   $0x1,-0x8(%ebp)
  103cb5:	8b 45 fc             	mov    -0x4(%ebp),%eax
  103cb8:	0f b6 00             	movzbl (%eax),%eax
  103cbb:	84 c0                	test   %al,%al
  103cbd:	75 d1                	jne    103c90 <do_debug+0x17>
  103cbf:	a1 28 75 10 00       	mov    0x107528,%eax
  103cc4:	83 c0 14             	add    $0x14,%eax
  103cc7:	a3 28 75 10 00       	mov    %eax,0x107528
  103ccc:	c9                   	leave  
  103ccd:	c3                   	ret    

00103cce <do_breakpoint>:
  103cce:	55                   	push   %ebp
  103ccf:	89 e5                	mov    %esp,%ebp
  103cd1:	5d                   	pop    %ebp
  103cd2:	c3                   	ret    

00103cd3 <do_overflow>:
  103cd3:	55                   	push   %ebp
  103cd4:	89 e5                	mov    %esp,%ebp
  103cd6:	83 ec 10             	sub    $0x10,%esp
  103cd9:	c7 45 fc c4 58 10 00 	movl   $0x1058c4,-0x4(%ebp)
  103ce0:	a1 28 75 10 00       	mov    0x107528,%eax
  103ce5:	89 45 f8             	mov    %eax,-0x8(%ebp)
  103ce8:	eb 25                	jmp    103d0f <do_overflow+0x3c>
  103cea:	8b 45 fc             	mov    -0x4(%ebp),%eax
  103ced:	0f b6 00             	movzbl (%eax),%eax
  103cf0:	66 98                	cbtw   
  103cf2:	80 cc 0c             	or     $0xc,%ah
  103cf5:	66 89 45 f6          	mov    %ax,-0xa(%ebp)
  103cf9:	8b 45 f8             	mov    -0x8(%ebp),%eax
  103cfc:	8d 14 00             	lea    (%eax,%eax,1),%edx
  103cff:	0f b7 45 f6          	movzwl -0xa(%ebp),%eax
  103d03:	65 66 89 02          	mov    %ax,%gs:(%edx)
  103d07:	83 45 fc 01          	addl   $0x1,-0x4(%ebp)
  103d0b:	83 45 f8 01          	addl   $0x1,-0x8(%ebp)
  103d0f:	8b 45 fc             	mov    -0x4(%ebp),%eax
  103d12:	0f b6 00             	movzbl (%eax),%eax
  103d15:	84 c0                	test   %al,%al
  103d17:	75 d1                	jne    103cea <do_overflow+0x17>
  103d19:	a1 28 75 10 00       	mov    0x107528,%eax
  103d1e:	83 c0 14             	add    $0x14,%eax
  103d21:	a3 28 75 10 00       	mov    %eax,0x107528
  103d26:	c9                   	leave  
  103d27:	c3                   	ret    

00103d28 <do_overbound>:
  103d28:	55                   	push   %ebp
  103d29:	89 e5                	mov    %esp,%ebp
  103d2b:	83 ec 10             	sub    $0x10,%esp
  103d2e:	c7 45 fc d6 58 10 00 	movl   $0x1058d6,-0x4(%ebp)
  103d35:	a1 28 75 10 00       	mov    0x107528,%eax
  103d3a:	89 45 f8             	mov    %eax,-0x8(%ebp)
  103d3d:	eb 25                	jmp    103d64 <do_overbound+0x3c>
  103d3f:	8b 45 fc             	mov    -0x4(%ebp),%eax
  103d42:	0f b6 00             	movzbl (%eax),%eax
  103d45:	66 98                	cbtw   
  103d47:	80 cc 0c             	or     $0xc,%ah
  103d4a:	66 89 45 f6          	mov    %ax,-0xa(%ebp)
  103d4e:	8b 45 f8             	mov    -0x8(%ebp),%eax
  103d51:	8d 14 00             	lea    (%eax,%eax,1),%edx
  103d54:	0f b7 45 f6          	movzwl -0xa(%ebp),%eax
  103d58:	65 66 89 02          	mov    %ax,%gs:(%edx)
  103d5c:	83 45 fc 01          	addl   $0x1,-0x4(%ebp)
  103d60:	83 45 f8 01          	addl   $0x1,-0x8(%ebp)
  103d64:	8b 45 fc             	mov    -0x4(%ebp),%eax
  103d67:	0f b6 00             	movzbl (%eax),%eax
  103d6a:	84 c0                	test   %al,%al
  103d6c:	75 d1                	jne    103d3f <do_overbound+0x17>
  103d6e:	a1 28 75 10 00       	mov    0x107528,%eax
  103d73:	83 c0 14             	add    $0x14,%eax
  103d76:	a3 28 75 10 00       	mov    %eax,0x107528
  103d7b:	c9                   	leave  
  103d7c:	c3                   	ret    

00103d7d <do_undefine>:
  103d7d:	55                   	push   %ebp
  103d7e:	89 e5                	mov    %esp,%ebp
  103d80:	83 ec 10             	sub    $0x10,%esp
  103d83:	c7 45 fc e9 58 10 00 	movl   $0x1058e9,-0x4(%ebp)
  103d8a:	a1 28 75 10 00       	mov    0x107528,%eax
  103d8f:	89 45 f8             	mov    %eax,-0x8(%ebp)
  103d92:	eb 25                	jmp    103db9 <do_undefine+0x3c>
  103d94:	8b 45 fc             	mov    -0x4(%ebp),%eax
  103d97:	0f b6 00             	movzbl (%eax),%eax
  103d9a:	66 98                	cbtw   
  103d9c:	80 cc 0c             	or     $0xc,%ah
  103d9f:	66 89 45 f6          	mov    %ax,-0xa(%ebp)
  103da3:	8b 45 f8             	mov    -0x8(%ebp),%eax
  103da6:	8d 14 00             	lea    (%eax,%eax,1),%edx
  103da9:	0f b7 45 f6          	movzwl -0xa(%ebp),%eax
  103dad:	65 66 89 02          	mov    %ax,%gs:(%edx)
  103db1:	83 45 fc 01          	addl   $0x1,-0x4(%ebp)
  103db5:	83 45 f8 01          	addl   $0x1,-0x8(%ebp)
  103db9:	8b 45 fc             	mov    -0x4(%ebp),%eax
  103dbc:	0f b6 00             	movzbl (%eax),%eax
  103dbf:	84 c0                	test   %al,%al
  103dc1:	75 d1                	jne    103d94 <do_undefine+0x17>
  103dc3:	a1 28 75 10 00       	mov    0x107528,%eax
  103dc8:	83 c0 14             	add    $0x14,%eax
  103dcb:	a3 28 75 10 00       	mov    %eax,0x107528
  103dd0:	c9                   	leave  
  103dd1:	c3                   	ret    

00103dd2 <do_nm>:
  103dd2:	55                   	push   %ebp
  103dd3:	89 e5                	mov    %esp,%ebp
  103dd5:	83 ec 10             	sub    $0x10,%esp
  103dd8:	c7 45 fc fb 58 10 00 	movl   $0x1058fb,-0x4(%ebp)
  103ddf:	a1 28 75 10 00       	mov    0x107528,%eax
  103de4:	89 45 f8             	mov    %eax,-0x8(%ebp)
  103de7:	eb 25                	jmp    103e0e <do_nm+0x3c>
  103de9:	8b 45 fc             	mov    -0x4(%ebp),%eax
  103dec:	0f b6 00             	movzbl (%eax),%eax
  103def:	66 98                	cbtw   
  103df1:	80 cc 0c             	or     $0xc,%ah
  103df4:	66 89 45 f6          	mov    %ax,-0xa(%ebp)
  103df8:	8b 45 f8             	mov    -0x8(%ebp),%eax
  103dfb:	8d 14 00             	lea    (%eax,%eax,1),%edx
  103dfe:	0f b7 45 f6          	movzwl -0xa(%ebp),%eax
  103e02:	65 66 89 02          	mov    %ax,%gs:(%edx)
  103e06:	83 45 fc 01          	addl   $0x1,-0x4(%ebp)
  103e0a:	83 45 f8 01          	addl   $0x1,-0x8(%ebp)
  103e0e:	8b 45 fc             	mov    -0x4(%ebp),%eax
  103e11:	0f b6 00             	movzbl (%eax),%eax
  103e14:	84 c0                	test   %al,%al
  103e16:	75 d1                	jne    103de9 <do_nm+0x17>
  103e18:	a1 28 75 10 00       	mov    0x107528,%eax
  103e1d:	83 c0 14             	add    $0x14,%eax
  103e20:	a3 28 75 10 00       	mov    %eax,0x107528
  103e25:	c9                   	leave  
  103e26:	c3                   	ret    

00103e27 <do_doublefault>:
  103e27:	55                   	push   %ebp
  103e28:	89 e5                	mov    %esp,%ebp
  103e2a:	83 ec 10             	sub    $0x10,%esp
  103e2d:	c7 45 fc 07 59 10 00 	movl   $0x105907,-0x4(%ebp)
  103e34:	a1 28 75 10 00       	mov    0x107528,%eax
  103e39:	89 45 f8             	mov    %eax,-0x8(%ebp)
  103e3c:	eb 25                	jmp    103e63 <do_doublefault+0x3c>
  103e3e:	8b 45 fc             	mov    -0x4(%ebp),%eax
  103e41:	0f b6 00             	movzbl (%eax),%eax
  103e44:	66 98                	cbtw   
  103e46:	80 cc 0c             	or     $0xc,%ah
  103e49:	66 89 45 f6          	mov    %ax,-0xa(%ebp)
  103e4d:	8b 45 f8             	mov    -0x8(%ebp),%eax
  103e50:	8d 14 00             	lea    (%eax,%eax,1),%edx
  103e53:	0f b7 45 f6          	movzwl -0xa(%ebp),%eax
  103e57:	65 66 89 02          	mov    %ax,%gs:(%edx)
  103e5b:	83 45 fc 01          	addl   $0x1,-0x4(%ebp)
  103e5f:	83 45 f8 01          	addl   $0x1,-0x8(%ebp)
  103e63:	8b 45 fc             	mov    -0x4(%ebp),%eax
  103e66:	0f b6 00             	movzbl (%eax),%eax
  103e69:	84 c0                	test   %al,%al
  103e6b:	75 d1                	jne    103e3e <do_doublefault+0x17>
  103e6d:	a1 28 75 10 00       	mov    0x107528,%eax
  103e72:	83 c0 14             	add    $0x14,%eax
  103e75:	a3 28 75 10 00       	mov    %eax,0x107528
  103e7a:	c9                   	leave  
  103e7b:	c3                   	ret    

00103e7c <do_cop>:
  103e7c:	55                   	push   %ebp
  103e7d:	89 e5                	mov    %esp,%ebp
  103e7f:	83 ec 10             	sub    $0x10,%esp
  103e82:	c7 45 fc 1c 59 10 00 	movl   $0x10591c,-0x4(%ebp)
  103e89:	a1 28 75 10 00       	mov    0x107528,%eax
  103e8e:	89 45 f8             	mov    %eax,-0x8(%ebp)
  103e91:	eb 25                	jmp    103eb8 <do_cop+0x3c>
  103e93:	8b 45 fc             	mov    -0x4(%ebp),%eax
  103e96:	0f b6 00             	movzbl (%eax),%eax
  103e99:	66 98                	cbtw   
  103e9b:	80 cc 0c             	or     $0xc,%ah
  103e9e:	66 89 45 f6          	mov    %ax,-0xa(%ebp)
  103ea2:	8b 45 f8             	mov    -0x8(%ebp),%eax
  103ea5:	8d 14 00             	lea    (%eax,%eax,1),%edx
  103ea8:	0f b7 45 f6          	movzwl -0xa(%ebp),%eax
  103eac:	65 66 89 02          	mov    %ax,%gs:(%edx)
  103eb0:	83 45 fc 01          	addl   $0x1,-0x4(%ebp)
  103eb4:	83 45 f8 01          	addl   $0x1,-0x8(%ebp)
  103eb8:	8b 45 fc             	mov    -0x4(%ebp),%eax
  103ebb:	0f b6 00             	movzbl (%eax),%eax
  103ebe:	84 c0                	test   %al,%al
  103ec0:	75 d1                	jne    103e93 <do_cop+0x17>
  103ec2:	a1 28 75 10 00       	mov    0x107528,%eax
  103ec7:	83 c0 14             	add    $0x14,%eax
  103eca:	a3 28 75 10 00       	mov    %eax,0x107528
  103ecf:	c9                   	leave  
  103ed0:	c3                   	ret    

00103ed1 <do_tss>:
  103ed1:	55                   	push   %ebp
  103ed2:	89 e5                	mov    %esp,%ebp
  103ed4:	83 ec 10             	sub    $0x10,%esp
  103ed7:	c7 45 fc 29 59 10 00 	movl   $0x105929,-0x4(%ebp)
  103ede:	a1 28 75 10 00       	mov    0x107528,%eax
  103ee3:	89 45 f8             	mov    %eax,-0x8(%ebp)
  103ee6:	eb 25                	jmp    103f0d <do_tss+0x3c>
  103ee8:	8b 45 fc             	mov    -0x4(%ebp),%eax
  103eeb:	0f b6 00             	movzbl (%eax),%eax
  103eee:	66 98                	cbtw   
  103ef0:	80 cc 0c             	or     $0xc,%ah
  103ef3:	66 89 45 f6          	mov    %ax,-0xa(%ebp)
  103ef7:	8b 45 f8             	mov    -0x8(%ebp),%eax
  103efa:	8d 14 00             	lea    (%eax,%eax,1),%edx
  103efd:	0f b7 45 f6          	movzwl -0xa(%ebp),%eax
  103f01:	65 66 89 02          	mov    %ax,%gs:(%edx)
  103f05:	83 45 fc 01          	addl   $0x1,-0x4(%ebp)
  103f09:	83 45 f8 01          	addl   $0x1,-0x8(%ebp)
  103f0d:	8b 45 fc             	mov    -0x4(%ebp),%eax
  103f10:	0f b6 00             	movzbl (%eax),%eax
  103f13:	84 c0                	test   %al,%al
  103f15:	75 d1                	jne    103ee8 <do_tss+0x17>
  103f17:	a1 28 75 10 00       	mov    0x107528,%eax
  103f1c:	83 c0 14             	add    $0x14,%eax
  103f1f:	a3 28 75 10 00       	mov    %eax,0x107528
  103f24:	c9                   	leave  
  103f25:	c3                   	ret    

00103f26 <do_seg_fault>:
  103f26:	55                   	push   %ebp
  103f27:	89 e5                	mov    %esp,%ebp
  103f29:	83 ec 10             	sub    $0x10,%esp
  103f2c:	c7 45 fc 36 59 10 00 	movl   $0x105936,-0x4(%ebp)
  103f33:	a1 28 75 10 00       	mov    0x107528,%eax
  103f38:	89 45 f8             	mov    %eax,-0x8(%ebp)
  103f3b:	eb 25                	jmp    103f62 <do_seg_fault+0x3c>
  103f3d:	8b 45 fc             	mov    -0x4(%ebp),%eax
  103f40:	0f b6 00             	movzbl (%eax),%eax
  103f43:	66 98                	cbtw   
  103f45:	80 cc 0c             	or     $0xc,%ah
  103f48:	66 89 45 f6          	mov    %ax,-0xa(%ebp)
  103f4c:	8b 45 f8             	mov    -0x8(%ebp),%eax
  103f4f:	8d 14 00             	lea    (%eax,%eax,1),%edx
  103f52:	0f b7 45 f6          	movzwl -0xa(%ebp),%eax
  103f56:	65 66 89 02          	mov    %ax,%gs:(%edx)
  103f5a:	83 45 fc 01          	addl   $0x1,-0x4(%ebp)
  103f5e:	83 45 f8 01          	addl   $0x1,-0x8(%ebp)
  103f62:	8b 45 fc             	mov    -0x4(%ebp),%eax
  103f65:	0f b6 00             	movzbl (%eax),%eax
  103f68:	84 c0                	test   %al,%al
  103f6a:	75 d1                	jne    103f3d <do_seg_fault+0x17>
  103f6c:	a1 28 75 10 00       	mov    0x107528,%eax
  103f71:	83 c0 14             	add    $0x14,%eax
  103f74:	a3 28 75 10 00       	mov    %eax,0x107528
  103f79:	c9                   	leave  
  103f7a:	c3                   	ret    

00103f7b <do_stack_fault>:
  103f7b:	55                   	push   %ebp
  103f7c:	89 e5                	mov    %esp,%ebp
  103f7e:	83 ec 10             	sub    $0x10,%esp
  103f81:	c7 45 fc 49 59 10 00 	movl   $0x105949,-0x4(%ebp)
  103f88:	a1 28 75 10 00       	mov    0x107528,%eax
  103f8d:	89 45 f8             	mov    %eax,-0x8(%ebp)
  103f90:	eb 25                	jmp    103fb7 <do_stack_fault+0x3c>
  103f92:	8b 45 fc             	mov    -0x4(%ebp),%eax
  103f95:	0f b6 00             	movzbl (%eax),%eax
  103f98:	66 98                	cbtw   
  103f9a:	80 cc 0c             	or     $0xc,%ah
  103f9d:	66 89 45 f6          	mov    %ax,-0xa(%ebp)
  103fa1:	8b 45 f8             	mov    -0x8(%ebp),%eax
  103fa4:	8d 14 00             	lea    (%eax,%eax,1),%edx
  103fa7:	0f b7 45 f6          	movzwl -0xa(%ebp),%eax
  103fab:	65 66 89 02          	mov    %ax,%gs:(%edx)
  103faf:	83 45 fc 01          	addl   $0x1,-0x4(%ebp)
  103fb3:	83 45 f8 01          	addl   $0x1,-0x8(%ebp)
  103fb7:	8b 45 fc             	mov    -0x4(%ebp),%eax
  103fba:	0f b6 00             	movzbl (%eax),%eax
  103fbd:	84 c0                	test   %al,%al
  103fbf:	75 d1                	jne    103f92 <do_stack_fault+0x17>
  103fc1:	a1 28 75 10 00       	mov    0x107528,%eax
  103fc6:	83 c0 14             	add    $0x14,%eax
  103fc9:	a3 28 75 10 00       	mov    %eax,0x107528
  103fce:	c9                   	leave  
  103fcf:	c3                   	ret    

00103fd0 <do_general_protect>:
  103fd0:	55                   	push   %ebp
  103fd1:	89 e5                	mov    %esp,%ebp
  103fd3:	83 ec 10             	sub    $0x10,%esp
  103fd6:	c7 45 fc 5e 59 10 00 	movl   $0x10595e,-0x4(%ebp)
  103fdd:	a1 28 75 10 00       	mov    0x107528,%eax
  103fe2:	89 45 f8             	mov    %eax,-0x8(%ebp)
  103fe5:	eb 25                	jmp    10400c <do_general_protect+0x3c>
  103fe7:	8b 45 fc             	mov    -0x4(%ebp),%eax
  103fea:	0f b6 00             	movzbl (%eax),%eax
  103fed:	66 98                	cbtw   
  103fef:	80 cc 0c             	or     $0xc,%ah
  103ff2:	66 89 45 f6          	mov    %ax,-0xa(%ebp)
  103ff6:	8b 45 f8             	mov    -0x8(%ebp),%eax
  103ff9:	8d 14 00             	lea    (%eax,%eax,1),%edx
  103ffc:	0f b7 45 f6          	movzwl -0xa(%ebp),%eax
  104000:	65 66 89 02          	mov    %ax,%gs:(%edx)
  104004:	83 45 fc 01          	addl   $0x1,-0x4(%ebp)
  104008:	83 45 f8 01          	addl   $0x1,-0x8(%ebp)
  10400c:	8b 45 fc             	mov    -0x4(%ebp),%eax
  10400f:	0f b6 00             	movzbl (%eax),%eax
  104012:	84 c0                	test   %al,%al
  104014:	75 d1                	jne    103fe7 <do_general_protect+0x17>
  104016:	a1 28 75 10 00       	mov    0x107528,%eax
  10401b:	83 c0 14             	add    $0x14,%eax
  10401e:	a3 28 75 10 00       	mov    %eax,0x107528
  104023:	c9                   	leave  
  104024:	c3                   	ret    

00104025 <do_fpu_error>:
  104025:	55                   	push   %ebp
  104026:	89 e5                	mov    %esp,%ebp
  104028:	83 ec 10             	sub    $0x10,%esp
  10402b:	c7 45 fc 77 59 10 00 	movl   $0x105977,-0x4(%ebp)
  104032:	a1 28 75 10 00       	mov    0x107528,%eax
  104037:	89 45 f8             	mov    %eax,-0x8(%ebp)
  10403a:	eb 25                	jmp    104061 <do_fpu_error+0x3c>
  10403c:	8b 45 fc             	mov    -0x4(%ebp),%eax
  10403f:	0f b6 00             	movzbl (%eax),%eax
  104042:	66 98                	cbtw   
  104044:	80 cc 0c             	or     $0xc,%ah
  104047:	66 89 45 f6          	mov    %ax,-0xa(%ebp)
  10404b:	8b 45 f8             	mov    -0x8(%ebp),%eax
  10404e:	8d 14 00             	lea    (%eax,%eax,1),%edx
  104051:	0f b7 45 f6          	movzwl -0xa(%ebp),%eax
  104055:	65 66 89 02          	mov    %ax,%gs:(%edx)
  104059:	83 45 fc 01          	addl   $0x1,-0x4(%ebp)
  10405d:	83 45 f8 01          	addl   $0x1,-0x8(%ebp)
  104061:	8b 45 fc             	mov    -0x4(%ebp),%eax
  104064:	0f b6 00             	movzbl (%eax),%eax
  104067:	84 c0                	test   %al,%al
  104069:	75 d1                	jne    10403c <do_fpu_error+0x17>
  10406b:	a1 28 75 10 00       	mov    0x107528,%eax
  104070:	83 c0 14             	add    $0x14,%eax
  104073:	a3 28 75 10 00       	mov    %eax,0x107528
  104078:	c9                   	leave  
  104079:	c3                   	ret    

0010407a <do_align_check>:
  10407a:	55                   	push   %ebp
  10407b:	89 e5                	mov    %esp,%ebp
  10407d:	83 ec 10             	sub    $0x10,%esp
  104080:	c7 45 fc 8a 59 10 00 	movl   $0x10598a,-0x4(%ebp)
  104087:	a1 28 75 10 00       	mov    0x107528,%eax
  10408c:	89 45 f8             	mov    %eax,-0x8(%ebp)
  10408f:	eb 25                	jmp    1040b6 <do_align_check+0x3c>
  104091:	8b 45 fc             	mov    -0x4(%ebp),%eax
  104094:	0f b6 00             	movzbl (%eax),%eax
  104097:	66 98                	cbtw   
  104099:	80 cc 0c             	or     $0xc,%ah
  10409c:	66 89 45 f6          	mov    %ax,-0xa(%ebp)
  1040a0:	8b 45 f8             	mov    -0x8(%ebp),%eax
  1040a3:	8d 14 00             	lea    (%eax,%eax,1),%edx
  1040a6:	0f b7 45 f6          	movzwl -0xa(%ebp),%eax
  1040aa:	65 66 89 02          	mov    %ax,%gs:(%edx)
  1040ae:	83 45 fc 01          	addl   $0x1,-0x4(%ebp)
  1040b2:	83 45 f8 01          	addl   $0x1,-0x8(%ebp)
  1040b6:	8b 45 fc             	mov    -0x4(%ebp),%eax
  1040b9:	0f b6 00             	movzbl (%eax),%eax
  1040bc:	84 c0                	test   %al,%al
  1040be:	75 d1                	jne    104091 <do_align_check+0x17>
  1040c0:	a1 28 75 10 00       	mov    0x107528,%eax
  1040c5:	83 c0 14             	add    $0x14,%eax
  1040c8:	a3 28 75 10 00       	mov    %eax,0x107528
  1040cd:	c9                   	leave  
  1040ce:	c3                   	ret    

001040cf <do_machine_check>:
  1040cf:	55                   	push   %ebp
  1040d0:	89 e5                	mov    %esp,%ebp
  1040d2:	83 ec 10             	sub    $0x10,%esp
  1040d5:	c7 45 fc 9f 59 10 00 	movl   $0x10599f,-0x4(%ebp)
  1040dc:	a1 28 75 10 00       	mov    0x107528,%eax
  1040e1:	89 45 f8             	mov    %eax,-0x8(%ebp)
  1040e4:	eb 25                	jmp    10410b <do_machine_check+0x3c>
  1040e6:	8b 45 fc             	mov    -0x4(%ebp),%eax
  1040e9:	0f b6 00             	movzbl (%eax),%eax
  1040ec:	66 98                	cbtw   
  1040ee:	80 cc 0c             	or     $0xc,%ah
  1040f1:	66 89 45 f6          	mov    %ax,-0xa(%ebp)
  1040f5:	8b 45 f8             	mov    -0x8(%ebp),%eax
  1040f8:	8d 14 00             	lea    (%eax,%eax,1),%edx
  1040fb:	0f b7 45 f6          	movzwl -0xa(%ebp),%eax
  1040ff:	65 66 89 02          	mov    %ax,%gs:(%edx)
  104103:	83 45 fc 01          	addl   $0x1,-0x4(%ebp)
  104107:	83 45 f8 01          	addl   $0x1,-0x8(%ebp)
  10410b:	8b 45 fc             	mov    -0x4(%ebp),%eax
  10410e:	0f b6 00             	movzbl (%eax),%eax
  104111:	84 c0                	test   %al,%al
  104113:	75 d1                	jne    1040e6 <do_machine_check+0x17>
  104115:	a1 28 75 10 00       	mov    0x107528,%eax
  10411a:	83 c0 14             	add    $0x14,%eax
  10411d:	a3 28 75 10 00       	mov    %eax,0x107528
  104122:	c9                   	leave  
  104123:	c3                   	ret    

00104124 <do_simd_fault>:
  104124:	55                   	push   %ebp
  104125:	89 e5                	mov    %esp,%ebp
  104127:	83 ec 10             	sub    $0x10,%esp
  10412a:	c7 45 fc b6 59 10 00 	movl   $0x1059b6,-0x4(%ebp)
  104131:	a1 28 75 10 00       	mov    0x107528,%eax
  104136:	89 45 f8             	mov    %eax,-0x8(%ebp)
  104139:	eb 25                	jmp    104160 <do_simd_fault+0x3c>
  10413b:	8b 45 fc             	mov    -0x4(%ebp),%eax
  10413e:	0f b6 00             	movzbl (%eax),%eax
  104141:	66 98                	cbtw   
  104143:	80 cc 0c             	or     $0xc,%ah
  104146:	66 89 45 f6          	mov    %ax,-0xa(%ebp)
  10414a:	8b 45 f8             	mov    -0x8(%ebp),%eax
  10414d:	8d 14 00             	lea    (%eax,%eax,1),%edx
  104150:	0f b7 45 f6          	movzwl -0xa(%ebp),%eax
  104154:	65 66 89 02          	mov    %ax,%gs:(%edx)
  104158:	83 45 fc 01          	addl   $0x1,-0x4(%ebp)
  10415c:	83 45 f8 01          	addl   $0x1,-0x8(%ebp)
  104160:	8b 45 fc             	mov    -0x4(%ebp),%eax
  104163:	0f b6 00             	movzbl (%eax),%eax
  104166:	84 c0                	test   %al,%al
  104168:	75 d1                	jne    10413b <do_simd_fault+0x17>
  10416a:	a1 28 75 10 00       	mov    0x107528,%eax
  10416f:	83 c0 14             	add    $0x14,%eax
  104172:	a3 28 75 10 00       	mov    %eax,0x107528
  104177:	c9                   	leave  
  104178:	c3                   	ret    

00104179 <do_int_timer>:
  104179:	55                   	push   %ebp
  10417a:	89 e5                	mov    %esp,%ebp
  10417c:	83 ec 18             	sub    $0x18,%esp
  10417f:	c7 45 f4 ca 59 10 00 	movl   $0x1059ca,-0xc(%ebp)
  104186:	a1 28 75 10 00       	mov    0x107528,%eax
  10418b:	89 45 f0             	mov    %eax,-0x10(%ebp)
  10418e:	eb 25                	jmp    1041b5 <do_int_timer+0x3c>
  104190:	8b 45 f4             	mov    -0xc(%ebp),%eax
  104193:	0f b6 00             	movzbl (%eax),%eax
  104196:	66 98                	cbtw   
  104198:	80 cc 0c             	or     $0xc,%ah
  10419b:	66 89 45 ee          	mov    %ax,-0x12(%ebp)
  10419f:	8b 45 f0             	mov    -0x10(%ebp),%eax
  1041a2:	8d 14 00             	lea    (%eax,%eax,1),%edx
  1041a5:	0f b7 45 ee          	movzwl -0x12(%ebp),%eax
  1041a9:	65 66 89 02          	mov    %ax,%gs:(%edx)
  1041ad:	83 45 f4 01          	addl   $0x1,-0xc(%ebp)
  1041b1:	83 45 f0 01          	addl   $0x1,-0x10(%ebp)
  1041b5:	8b 45 f4             	mov    -0xc(%ebp),%eax
  1041b8:	0f b6 00             	movzbl (%eax),%eax
  1041bb:	84 c0                	test   %al,%al
  1041bd:	75 d1                	jne    104190 <do_int_timer+0x17>
  1041bf:	a1 28 75 10 00       	mov    0x107528,%eax
  1041c4:	83 c0 14             	add    $0x14,%eax
  1041c7:	a3 28 75 10 00       	mov    %eax,0x107528
  1041cc:	a1 20 75 10 00       	mov    0x107520,%eax
  1041d1:	8b 15 24 75 10 00    	mov    0x107524,%edx
  1041d7:	83 c0 01             	add    $0x1,%eax
  1041da:	83 d2 00             	adc    $0x0,%edx
  1041dd:	a3 20 75 10 00       	mov    %eax,0x107520
  1041e2:	89 15 24 75 10 00    	mov    %edx,0x107524
  1041e8:	e8 03 10 00 00       	call   1051f0 <schedule>
  1041ed:	c9                   	leave  
  1041ee:	c3                   	ret    

001041ef <do_int_hd>:
  1041ef:	55                   	push   %ebp
  1041f0:	89 e5                	mov    %esp,%ebp
  1041f2:	57                   	push   %edi
  1041f3:	53                   	push   %ebx
  1041f4:	83 ec 10             	sub    $0x10,%esp
  1041f7:	c7 45 f4 dd 59 10 00 	movl   $0x1059dd,-0xc(%ebp)
  1041fe:	a1 28 75 10 00       	mov    0x107528,%eax
  104203:	89 45 f0             	mov    %eax,-0x10(%ebp)
  104206:	eb 25                	jmp    10422d <do_int_hd+0x3e>
  104208:	8b 45 f4             	mov    -0xc(%ebp),%eax
  10420b:	0f b6 00             	movzbl (%eax),%eax
  10420e:	66 98                	cbtw   
  104210:	80 cc 0c             	or     $0xc,%ah
  104213:	66 89 45 ee          	mov    %ax,-0x12(%ebp)
  104217:	8b 45 f0             	mov    -0x10(%ebp),%eax
  10421a:	8d 14 00             	lea    (%eax,%eax,1),%edx
  10421d:	0f b7 45 ee          	movzwl -0x12(%ebp),%eax
  104221:	65 66 89 02          	mov    %ax,%gs:(%edx)
  104225:	83 45 f4 01          	addl   $0x1,-0xc(%ebp)
  104229:	83 45 f0 01          	addl   $0x1,-0x10(%ebp)
  10422d:	8b 45 f4             	mov    -0xc(%ebp),%eax
  104230:	0f b6 00             	movzbl (%eax),%eax
  104233:	84 c0                	test   %al,%al
  104235:	75 d1                	jne    104208 <do_int_hd+0x19>
  104237:	b8 f0 01 00 00       	mov    $0x1f0,%eax
  10423c:	bb a0 11 15 00       	mov    $0x1511a0,%ebx
  104241:	b9 00 01 00 00       	mov    $0x100,%ecx
  104246:	89 c2                	mov    %eax,%edx
  104248:	89 df                	mov    %ebx,%edi
  10424a:	fc                   	cld    
  10424b:	f3 66 6d             	rep insw (%dx),%es:(%edi)
  10424e:	ba 20 00 00 00       	mov    $0x20,%edx
  104253:	b8 20 00 00 00       	mov    $0x20,%eax
  104258:	ee                   	out    %al,(%dx)
  104259:	90                   	nop
  10425a:	90                   	nop
  10425b:	90                   	nop
  10425c:	90                   	nop
  10425d:	ba a0 00 00 00       	mov    $0xa0,%edx
  104262:	b8 20 00 00 00       	mov    $0x20,%eax
  104267:	ee                   	out    %al,(%dx)
  104268:	90                   	nop
  104269:	90                   	nop
  10426a:	90                   	nop
  10426b:	90                   	nop
  10426c:	a1 28 75 10 00       	mov    0x107528,%eax
  104271:	83 c0 14             	add    $0x14,%eax
  104274:	a3 28 75 10 00       	mov    %eax,0x107528
  104279:	83 c4 10             	add    $0x10,%esp
  10427c:	5b                   	pop    %ebx
  10427d:	5f                   	pop    %edi
  10427e:	5d                   	pop    %ebp
  10427f:	c3                   	ret    

00104280 <sys_call>:
  104280:	55                   	push   %ebp
  104281:	89 e5                	mov    %esp,%ebp
  104283:	83 ec 10             	sub    $0x10,%esp
  104286:	83 7d 08 01          	cmpl   $0x1,0x8(%ebp)
  10428a:	75 50                	jne    1042dc <sys_call+0x5c>
  10428c:	8b 45 0c             	mov    0xc(%ebp),%eax
  10428f:	66 89 45 fe          	mov    %ax,-0x2(%ebp)
  104293:	ba d4 03 00 00       	mov    $0x3d4,%edx
  104298:	b8 0f 00 00 00       	mov    $0xf,%eax
  10429d:	ee                   	out    %al,(%dx)
  10429e:	90                   	nop
  10429f:	90                   	nop
  1042a0:	90                   	nop
  1042a1:	90                   	nop
  1042a2:	0f b7 45 fe          	movzwl -0x2(%ebp),%eax
  1042a6:	25 ff 00 00 00       	and    $0xff,%eax
  1042ab:	ba d5 03 00 00       	mov    $0x3d5,%edx
  1042b0:	ee                   	out    %al,(%dx)
  1042b1:	90                   	nop
  1042b2:	90                   	nop
  1042b3:	90                   	nop
  1042b4:	90                   	nop
  1042b5:	ba d4 03 00 00       	mov    $0x3d4,%edx
  1042ba:	b8 0e 00 00 00       	mov    $0xe,%eax
  1042bf:	ee                   	out    %al,(%dx)
  1042c0:	90                   	nop
  1042c1:	90                   	nop
  1042c2:	90                   	nop
  1042c3:	90                   	nop
  1042c4:	66 c1 6d fe 08       	shrw   $0x8,-0x2(%ebp)
  1042c9:	0f b7 45 fe          	movzwl -0x2(%ebp),%eax
  1042cd:	25 ff 00 00 00       	and    $0xff,%eax
  1042d2:	ba d5 03 00 00       	mov    $0x3d5,%edx
  1042d7:	ee                   	out    %al,(%dx)
  1042d8:	90                   	nop
  1042d9:	90                   	nop
  1042da:	90                   	nop
  1042db:	90                   	nop
  1042dc:	c9                   	leave  
  1042dd:	c3                   	ret    
  1042de:	90                   	nop
  1042df:	90                   	nop

001042e0 <kernel_main>:
  1042e0:	55                   	push   %ebp
  1042e1:	89 e5                	mov    %esp,%ebp
  1042e3:	53                   	push   %ebx
  1042e4:	83 ec 04             	sub    $0x4,%esp
  1042e7:	e8 48 01 00 00       	call   104434 <init_gdt>
  1042ec:	e8 15 f8 ff ff       	call   103b06 <init_idt>
  1042f1:	e8 f6 03 00 00       	call   1046ec <init_page>
  1042f6:	e8 7d 0a 00 00       	call   104d78 <init_time>
  1042fb:	ba 21 00 00 00       	mov    $0x21,%edx
  104300:	b8 00 00 00 00       	mov    $0x0,%eax
  104305:	ee                   	out    %al,(%dx)
  104306:	90                   	nop
  104307:	90                   	nop
  104308:	90                   	nop
  104309:	90                   	nop
  10430a:	ba a1 00 00 00       	mov    $0xa1,%edx
  10430f:	b8 00 00 00 00       	mov    $0x0,%eax
  104314:	ee                   	out    %al,(%dx)
  104315:	90                   	nop
  104316:	90                   	nop
  104317:	90                   	nop
  104318:	90                   	nop
  104319:	bb 30 c2 10 00       	mov    $0x10c230,%ebx
  10431e:	b8 17 00 00 00       	mov    $0x17,%eax
  104323:	b9 0f 00 00 00       	mov    $0xf,%ecx
  104328:	ba 3b 43 10 00       	mov    $0x10433b,%edx
  10432d:	0f 06                	clts   
  10432f:	50                   	push   %eax
  104330:	53                   	push   %ebx
  104331:	9c                   	pushf  
  104332:	51                   	push   %ecx
  104333:	52                   	push   %edx
  104334:	cf                   	iret   
  104335:	83 c4 04             	add    $0x4,%esp
  104338:	5b                   	pop    %ebx
  104339:	5d                   	pop    %ebp
  10433a:	c3                   	ret    

0010433b <Task0>:
  10433b:	55                   	push   %ebp
  10433c:	89 e5                	mov    %esp,%ebp
  10433e:	50                   	push   %eax
  10433f:	b8 17 00 00 00       	mov    $0x17,%eax
  104344:	8e d8                	mov    %eax,%ds
  104346:	58                   	pop    %eax
  104347:	eb 01                	jmp    10434a <Task0+0xf>
  104349:	90                   	nop
  10434a:	a1 9c 6e 10 00       	mov    0x106e9c,%eax
  10434f:	8d 14 00             	lea    (%eax,%eax,1),%edx
  104352:	b8 41 fc 00 00       	mov    $0xfc41,%eax
  104357:	65 66 89 02          	mov    %ax,%gs:(%edx)
  10435b:	f0 83 05 9c 6e 10 00 	lock addl $0x1,0x106e9c
  104362:	01 
  104363:	a1 9c 6e 10 00       	mov    0x106e9c,%eax
  104368:	3d 3f 06 00 00       	cmp    $0x63f,%eax
  10436d:	76 da                	jbe    104349 <Task0+0xe>
  10436f:	c7 05 9c 6e 10 00 90 	movl   $0x190,0x106e9c
  104376:	01 00 00 
  104379:	eb cf                	jmp    10434a <Task0+0xf>

0010437b <Task1>:
  10437b:	55                   	push   %ebp
  10437c:	89 e5                	mov    %esp,%ebp
  10437e:	eb 01                	jmp    104381 <Task1+0x6>
  104380:	90                   	nop
  104381:	a1 9c 6e 10 00       	mov    0x106e9c,%eax
  104386:	8d 14 00             	lea    (%eax,%eax,1),%edx
  104389:	b8 42 0a 00 00       	mov    $0xa42,%eax
  10438e:	65 66 89 02          	mov    %ax,%gs:(%edx)
  104392:	f0 83 05 9c 6e 10 00 	lock addl $0x1,0x106e9c
  104399:	01 
  10439a:	a1 9c 6e 10 00       	mov    0x106e9c,%eax
  10439f:	3d 3f 06 00 00       	cmp    $0x63f,%eax
  1043a4:	76 da                	jbe    104380 <Task1+0x5>
  1043a6:	c7 05 9c 6e 10 00 90 	movl   $0x190,0x106e9c
  1043ad:	01 00 00 
  1043b0:	eb cf                	jmp    104381 <Task1+0x6>

001043b2 <Task2>:
  1043b2:	55                   	push   %ebp
  1043b3:	89 e5                	mov    %esp,%ebp
  1043b5:	eb 01                	jmp    1043b8 <Task2+0x6>
  1043b7:	90                   	nop
  1043b8:	a1 9c 6e 10 00       	mov    0x106e9c,%eax
  1043bd:	8d 14 00             	lea    (%eax,%eax,1),%edx
  1043c0:	b8 43 09 00 00       	mov    $0x943,%eax
  1043c5:	65 66 89 02          	mov    %ax,%gs:(%edx)
  1043c9:	f0 83 05 9c 6e 10 00 	lock addl $0x1,0x106e9c
  1043d0:	01 
  1043d1:	a1 9c 6e 10 00       	mov    0x106e9c,%eax
  1043d6:	3d 3f 06 00 00       	cmp    $0x63f,%eax
  1043db:	76 da                	jbe    1043b7 <Task2+0x5>
  1043dd:	c7 05 9c 6e 10 00 90 	movl   $0x190,0x106e9c
  1043e4:	01 00 00 
  1043e7:	eb cf                	jmp    1043b8 <Task2+0x6>

001043e9 <reboot>:
  1043e9:	55                   	push   %ebp
  1043ea:	89 e5                	mov    %esp,%ebp
  1043ec:	53                   	push   %ebx
  1043ed:	83 ec 14             	sub    $0x14,%esp
  1043f0:	c6 45 fb 02          	movb   $0x2,-0x5(%ebp)
  1043f4:	eb 1b                	jmp    104411 <reboot+0x28>
  1043f6:	c7 45 e8 64 00 00 00 	movl   $0x64,-0x18(%ebp)
  1043fd:	8b 55 e8             	mov    -0x18(%ebp),%edx
  104400:	ec                   	in     (%dx),%al
  104401:	90                   	nop
  104402:	90                   	nop
  104403:	90                   	nop
  104404:	90                   	nop
  104405:	89 c3                	mov    %eax,%ebx
  104407:	88 5d fa             	mov    %bl,-0x6(%ebp)
  10440a:	0f b6 45 fa          	movzbl -0x6(%ebp),%eax
  10440e:	88 45 fb             	mov    %al,-0x5(%ebp)
  104411:	0f b6 45 fb          	movzbl -0x5(%ebp),%eax
  104415:	83 e0 02             	and    $0x2,%eax
  104418:	85 c0                	test   %eax,%eax
  10441a:	75 da                	jne    1043f6 <reboot+0xd>
  10441c:	ba 64 00 00 00       	mov    $0x64,%edx
  104421:	b8 fe 00 00 00       	mov    $0xfe,%eax
  104426:	ee                   	out    %al,(%dx)
  104427:	90                   	nop
  104428:	90                   	nop
  104429:	90                   	nop
  10442a:	90                   	nop
  10442b:	83 c4 14             	add    $0x14,%esp
  10442e:	5b                   	pop    %ebx
  10442f:	5d                   	pop    %ebp
  104430:	c3                   	ret    
  104431:	90                   	nop
  104432:	90                   	nop
  104433:	90                   	nop

00104434 <init_gdt>:
  104434:	55                   	push   %ebp
  104435:	89 e5                	mov    %esp,%ebp
  104437:	57                   	push   %edi
  104438:	56                   	push   %esi
  104439:	53                   	push   %ebx
  10443a:	b8 d0 10 10 00       	mov    $0x1010d0,%eax
  10443f:	0f 01 10             	lgdtl  (%eax)
  104442:	c7 05 80 b9 10 00 00 	movl   $0x0,0x10b980
  104449:	00 00 00 
  10444c:	c7 05 88 b9 10 00 00 	movl   $0x0,0x10b988
  104453:	00 00 00 
  104456:	c7 05 84 b9 10 00 04 	movl   $0x4,0x10b984
  10445d:	00 00 00 
  104460:	ba a0 b9 10 00       	mov    $0x10b9a0,%edx
  104465:	bb 18 31 10 00       	mov    $0x103118,%ebx
  10446a:	b8 1a 00 00 00       	mov    $0x1a,%eax
  10446f:	89 d7                	mov    %edx,%edi
  104471:	89 de                	mov    %ebx,%esi
  104473:	89 c1                	mov    %eax,%ecx
  104475:	f3 a5                	rep movsl %ds:(%esi),%es:(%edi)
  104477:	a1 08 31 10 00       	mov    0x103108,%eax
  10447c:	8b 15 0c 31 10 00    	mov    0x10310c,%edx
  104482:	a3 18 ba 10 00       	mov    %eax,0x10ba18
  104487:	89 15 1c ba 10 00    	mov    %edx,0x10ba1c
  10448d:	a1 10 31 10 00       	mov    0x103110,%eax
  104492:	8b 15 14 31 10 00    	mov    0x103114,%edx
  104498:	a3 20 ba 10 00       	mov    %eax,0x10ba20
  10449d:	89 15 24 ba 10 00    	mov    %edx,0x10ba24
  1044a3:	b8 3b 43 10 00       	mov    $0x10433b,%eax
  1044a8:	a3 c0 b9 10 00       	mov    %eax,0x10b9c0
  1044ad:	b8 30 be 10 00       	mov    $0x10be30,%eax
  1044b2:	a3 a4 b9 10 00       	mov    %eax,0x10b9a4
  1044b7:	bb 10 ba 10 00       	mov    $0x10ba10,%ebx
  1044bc:	b8 e0 08 10 00       	mov    $0x1008e0,%eax
  1044c1:	b9 ff ff 0f 00       	mov    $0xfffff,%ecx
  1044c6:	ba e2 cf 00 00       	mov    $0xcfe2,%edx
  1044cb:	fa                   	cli    
  1044cc:	66 89 08             	mov    %cx,(%eax)
  1044cf:	83 c0 02             	add    $0x2,%eax
  1044d2:	66 89 18             	mov    %bx,(%eax)
  1044d5:	83 c0 02             	add    $0x2,%eax
  1044d8:	c1 eb 10             	shr    $0x10,%ebx
  1044db:	88 18                	mov    %bl,(%eax)
  1044dd:	83 c0 01             	add    $0x1,%eax
  1044e0:	66 89 10             	mov    %dx,(%eax)
  1044e3:	83 c0 02             	add    $0x2,%eax
  1044e6:	88 38                	mov    %bh,(%eax)
  1044e8:	fb                   	sti    
  1044e9:	bb a0 b9 10 00       	mov    $0x10b9a0,%ebx
  1044ee:	b8 e8 08 10 00       	mov    $0x1008e8,%eax
  1044f3:	b9 68 00 00 00       	mov    $0x68,%ecx
  1044f8:	ba e9 00 00 00       	mov    $0xe9,%edx
  1044fd:	fa                   	cli    
  1044fe:	66 89 08             	mov    %cx,(%eax)
  104501:	83 c0 02             	add    $0x2,%eax
  104504:	66 89 18             	mov    %bx,(%eax)
  104507:	83 c0 02             	add    $0x2,%eax
  10450a:	c1 eb 10             	shr    $0x10,%ebx
  10450d:	88 18                	mov    %bl,(%eax)
  10450f:	83 c0 01             	add    $0x1,%eax
  104512:	66 89 10             	mov    %dx,(%eax)
  104515:	83 c0 02             	add    $0x2,%eax
  104518:	88 38                	mov    %bh,(%eax)
  10451a:	fb                   	sti    
  10451b:	c7 05 30 c2 10 00 01 	movl   $0x1,0x10c230
  104522:	00 00 00 
  104525:	c7 05 38 c2 10 00 00 	movl   $0x0,0x10c238
  10452c:	00 00 00 
  10452f:	c7 05 34 c2 10 00 06 	movl   $0x6,0x10c234
  104536:	00 00 00 
  104539:	ba 50 c2 10 00       	mov    $0x10c250,%edx
  10453e:	bb 98 33 10 00       	mov    $0x103398,%ebx
  104543:	b8 1a 00 00 00       	mov    $0x1a,%eax
  104548:	89 d7                	mov    %edx,%edi
  10454a:	89 de                	mov    %ebx,%esi
  10454c:	89 c1                	mov    %eax,%ecx
  10454e:	f3 a5                	rep movsl %ds:(%esi),%es:(%edi)
  104550:	a1 88 33 10 00       	mov    0x103388,%eax
  104555:	8b 15 8c 33 10 00    	mov    0x10338c,%edx
  10455b:	a3 c8 c2 10 00       	mov    %eax,0x10c2c8
  104560:	89 15 cc c2 10 00    	mov    %edx,0x10c2cc
  104566:	a1 90 33 10 00       	mov    0x103390,%eax
  10456b:	8b 15 94 33 10 00    	mov    0x103394,%edx
  104571:	a3 d0 c2 10 00       	mov    %eax,0x10c2d0
  104576:	89 15 d4 c2 10 00    	mov    %edx,0x10c2d4
  10457c:	b8 7b 43 10 00       	mov    $0x10437b,%eax
  104581:	a3 70 c2 10 00       	mov    %eax,0x10c270
  104586:	b8 e0 c6 10 00       	mov    $0x10c6e0,%eax
  10458b:	a3 54 c2 10 00       	mov    %eax,0x10c254
  104590:	bb c0 c2 10 00       	mov    $0x10c2c0,%ebx
  104595:	b8 f0 08 10 00       	mov    $0x1008f0,%eax
  10459a:	b9 ff ff 0f 00       	mov    $0xfffff,%ecx
  10459f:	ba e2 cf 00 00       	mov    $0xcfe2,%edx
  1045a4:	fa                   	cli    
  1045a5:	66 89 08             	mov    %cx,(%eax)
  1045a8:	83 c0 02             	add    $0x2,%eax
  1045ab:	66 89 18             	mov    %bx,(%eax)
  1045ae:	83 c0 02             	add    $0x2,%eax
  1045b1:	c1 eb 10             	shr    $0x10,%ebx
  1045b4:	88 18                	mov    %bl,(%eax)
  1045b6:	83 c0 01             	add    $0x1,%eax
  1045b9:	66 89 10             	mov    %dx,(%eax)
  1045bc:	83 c0 02             	add    $0x2,%eax
  1045bf:	88 38                	mov    %bh,(%eax)
  1045c1:	fb                   	sti    
  1045c2:	bb 50 c2 10 00       	mov    $0x10c250,%ebx
  1045c7:	b8 f8 08 10 00       	mov    $0x1008f8,%eax
  1045cc:	b9 68 00 00 00       	mov    $0x68,%ecx
  1045d1:	ba e9 00 00 00       	mov    $0xe9,%edx
  1045d6:	fa                   	cli    
  1045d7:	66 89 08             	mov    %cx,(%eax)
  1045da:	83 c0 02             	add    $0x2,%eax
  1045dd:	66 89 18             	mov    %bx,(%eax)
  1045e0:	83 c0 02             	add    $0x2,%eax
  1045e3:	c1 eb 10             	shr    $0x10,%ebx
  1045e6:	88 18                	mov    %bl,(%eax)
  1045e8:	83 c0 01             	add    $0x1,%eax
  1045eb:	66 89 10             	mov    %dx,(%eax)
  1045ee:	83 c0 02             	add    $0x2,%eax
  1045f1:	88 38                	mov    %bh,(%eax)
  1045f3:	fb                   	sti    
  1045f4:	a1 c8 c2 10 00       	mov    0x10c2c8,%eax
  1045f9:	8b 15 cc c2 10 00    	mov    0x10c2cc,%edx
  1045ff:	a3 78 cb 10 00       	mov    %eax,0x10cb78
  104604:	89 15 7c cb 10 00    	mov    %edx,0x10cb7c
  10460a:	a1 d0 c2 10 00       	mov    0x10c2d0,%eax
  10460f:	8b 15 d4 c2 10 00    	mov    0x10c2d4,%edx
  104615:	a3 80 cb 10 00       	mov    %eax,0x10cb80
  10461a:	89 15 84 cb 10 00    	mov    %edx,0x10cb84
  104620:	ba 00 cb 10 00       	mov    $0x10cb00,%edx
  104625:	bb 50 c2 10 00       	mov    $0x10c250,%ebx
  10462a:	b8 1a 00 00 00       	mov    $0x1a,%eax
  10462f:	89 d7                	mov    %edx,%edi
  104631:	89 de                	mov    %ebx,%esi
  104633:	89 c1                	mov    %eax,%ecx
  104635:	f3 a5                	rep movsl %ds:(%esi),%es:(%edi)
  104637:	b8 dc 54 10 00       	mov    $0x1054dc,%eax
  10463c:	a3 20 cb 10 00       	mov    %eax,0x10cb20
  104641:	b8 90 cf 10 00       	mov    $0x10cf90,%eax
  104646:	a3 04 cb 10 00       	mov    %eax,0x10cb04
  10464b:	b8 90 d3 10 00       	mov    $0x10d390,%eax
  104650:	a3 38 cb 10 00       	mov    %eax,0x10cb38
  104655:	bb 70 cb 10 00       	mov    $0x10cb70,%ebx
  10465a:	b8 00 09 10 00       	mov    $0x100900,%eax
  10465f:	b9 ff ff 0f 00       	mov    $0xfffff,%ecx
  104664:	ba e2 cf 00 00       	mov    $0xcfe2,%edx
  104669:	fa                   	cli    
  10466a:	66 89 08             	mov    %cx,(%eax)
  10466d:	83 c0 02             	add    $0x2,%eax
  104670:	66 89 18             	mov    %bx,(%eax)
  104673:	83 c0 02             	add    $0x2,%eax
  104676:	c1 eb 10             	shr    $0x10,%ebx
  104679:	88 18                	mov    %bl,(%eax)
  10467b:	83 c0 01             	add    $0x1,%eax
  10467e:	66 89 10             	mov    %dx,(%eax)
  104681:	83 c0 02             	add    $0x2,%eax
  104684:	88 38                	mov    %bh,(%eax)
  104686:	fb                   	sti    
  104687:	bb 00 cb 10 00       	mov    $0x10cb00,%ebx
  10468c:	b8 08 09 10 00       	mov    $0x100908,%eax
  104691:	b9 68 00 00 00       	mov    $0x68,%ecx
  104696:	ba e9 00 00 00       	mov    $0xe9,%edx
  10469b:	fa                   	cli    
  10469c:	66 89 08             	mov    %cx,(%eax)
  10469f:	83 c0 02             	add    $0x2,%eax
  1046a2:	66 89 18             	mov    %bx,(%eax)
  1046a5:	83 c0 02             	add    $0x2,%eax
  1046a8:	c1 eb 10             	shr    $0x10,%ebx
  1046ab:	88 18                	mov    %bl,(%eax)
  1046ad:	83 c0 01             	add    $0x1,%eax
  1046b0:	66 89 10             	mov    %dx,(%eax)
  1046b3:	83 c0 02             	add    $0x2,%eax
  1046b6:	88 38                	mov    %bh,(%eax)
  1046b8:	fb                   	sti    
  1046b9:	c7 05 e0 ca 10 00 02 	movl   $0x2,0x10cae0
  1046c0:	00 00 00 
  1046c3:	c7 05 e8 ca 10 00 00 	movl   $0x0,0x10cae8
  1046ca:	00 00 00 
  1046cd:	b8 20 00 00 00       	mov    $0x20,%eax
  1046d2:	0f 00 d0             	lldt   %ax
  1046d5:	b8 28 00 00 00       	mov    $0x28,%eax
  1046da:	0f 00 d8             	ltr    %ax
  1046dd:	b8 18 00 00 00       	mov    $0x18,%eax
  1046e2:	8e e8                	mov    %eax,%gs
  1046e4:	5b                   	pop    %ebx
  1046e5:	5e                   	pop    %esi
  1046e6:	5f                   	pop    %edi
  1046e7:	5d                   	pop    %ebp
  1046e8:	c3                   	ret    
  1046e9:	90                   	nop
  1046ea:	90                   	nop
  1046eb:	90                   	nop

001046ec <init_page>:
  1046ec:	55                   	push   %ebp
  1046ed:	89 e5                	mov    %esp,%ebp
  1046ef:	83 ec 10             	sub    $0x10,%esp
  1046f2:	c7 05 ac 15 15 00 00 	movl   $0x1ff8000,0x1515ac
  1046f9:	80 ff 01 
  1046fc:	c7 05 a0 15 15 00 00 	movl   $0x1ff0000,0x1515a0
  104703:	00 ff 01 
  104706:	c7 45 fc 00 00 00 00 	movl   $0x0,-0x4(%ebp)
  10470d:	c7 45 f8 00 00 00 00 	movl   $0x0,-0x8(%ebp)
  104714:	c7 05 a8 15 15 00 00 	movl   $0x1fe8000,0x1515a8
  10471b:	80 fe 01 
  10471e:	c7 05 a4 15 15 00 00 	movl   $0x1fe0000,0x1515a4
  104725:	00 fe 01 
  104728:	c7 45 f4 00 00 00 00 	movl   $0x0,-0xc(%ebp)
  10472f:	c7 45 fc 00 00 00 00 	movl   $0x0,-0x4(%ebp)
  104736:	eb 5f                	jmp    104797 <init_page+0xab>
  104738:	a1 a4 15 15 00       	mov    0x1515a4,%eax
  10473d:	8b 55 fc             	mov    -0x4(%ebp),%edx
  104740:	c1 e2 02             	shl    $0x2,%edx
  104743:	01 d0                	add    %edx,%eax
  104745:	8b 15 a8 15 15 00    	mov    0x1515a8,%edx
  10474b:	8b 4d fc             	mov    -0x4(%ebp),%ecx
  10474e:	c1 e1 0a             	shl    $0xa,%ecx
  104751:	c1 e1 02             	shl    $0x2,%ecx
  104754:	01 ca                	add    %ecx,%edx
  104756:	83 ca 07             	or     $0x7,%edx
  104759:	89 10                	mov    %edx,(%eax)
  10475b:	c7 45 f8 00 00 00 00 	movl   $0x0,-0x8(%ebp)
  104762:	eb 26                	jmp    10478a <init_page+0x9e>
  104764:	a1 a8 15 15 00       	mov    0x1515a8,%eax
  104769:	8b 55 fc             	mov    -0x4(%ebp),%edx
  10476c:	c1 e2 0a             	shl    $0xa,%edx
  10476f:	03 55 f8             	add    -0x8(%ebp),%edx
  104772:	c1 e2 02             	shl    $0x2,%edx
  104775:	01 d0                	add    %edx,%eax
  104777:	8b 55 f4             	mov    -0xc(%ebp),%edx
  10477a:	83 ca 07             	or     $0x7,%edx
  10477d:	89 10                	mov    %edx,(%eax)
  10477f:	81 45 f4 00 10 00 00 	addl   $0x1000,-0xc(%ebp)
  104786:	83 45 f8 01          	addl   $0x1,-0x8(%ebp)
  10478a:	81 7d f8 ff 03 00 00 	cmpl   $0x3ff,-0x8(%ebp)
  104791:	7e d1                	jle    104764 <init_page+0x78>
  104793:	83 45 fc 01          	addl   $0x1,-0x4(%ebp)
  104797:	83 7d fc 07          	cmpl   $0x7,-0x4(%ebp)
  10479b:	7e 9b                	jle    104738 <init_page+0x4c>
  10479d:	a1 a4 15 15 00       	mov    0x1515a4,%eax
  1047a2:	0f 22 d8             	mov    %eax,%cr3
  1047a5:	0f 20 c0             	mov    %cr0,%eax
  1047a8:	0b 05 00 00 00 80    	or     0x80000000,%eax
  1047ae:	0f 22 c0             	mov    %eax,%cr0
  1047b1:	c7 45 fc 00 01 00 00 	movl   $0x100,-0x4(%ebp)
  1047b8:	eb 11                	jmp    1047cb <init_page+0xdf>
  1047ba:	8b 45 fc             	mov    -0x4(%ebp),%eax
  1047bd:	66 c7 84 00 40 75 10 	movw   $0xff,0x107540(%eax,%eax,1)
  1047c4:	00 ff 00 
  1047c7:	83 45 fc 01          	addl   $0x1,-0x4(%ebp)
  1047cb:	81 7d fc ff 02 00 00 	cmpl   $0x2ff,-0x4(%ebp)
  1047d2:	7e e6                	jle    1047ba <init_page+0xce>
  1047d4:	c9                   	leave  
  1047d5:	c3                   	ret    

001047d6 <get_pde_by_vir>:
  1047d6:	55                   	push   %ebp
  1047d7:	89 e5                	mov    %esp,%ebp
  1047d9:	0f 20 d8             	mov    %cr3,%eax
  1047dc:	8b 55 08             	mov    0x8(%ebp),%edx
  1047df:	c1 ea 16             	shr    $0x16,%edx
  1047e2:	8d 04 02             	lea    (%edx,%eax,1),%eax
  1047e5:	c1 e0 02             	shl    $0x2,%eax
  1047e8:	5d                   	pop    %ebp
  1047e9:	c3                   	ret    

001047ea <do_page_fault>:
  1047ea:	55                   	push   %ebp
  1047eb:	89 e5                	mov    %esp,%ebp
  1047ed:	83 ec 10             	sub    $0x10,%esp
  1047f0:	c7 45 fc f0 59 10 00 	movl   $0x1059f0,-0x4(%ebp)
  1047f7:	a1 a0 6e 10 00       	mov    0x106ea0,%eax
  1047fc:	89 45 f8             	mov    %eax,-0x8(%ebp)
  1047ff:	eb 25                	jmp    104826 <do_page_fault+0x3c>
  104801:	8b 45 fc             	mov    -0x4(%ebp),%eax
  104804:	0f b6 00             	movzbl (%eax),%eax
  104807:	66 98                	cbtw   
  104809:	80 cc 0c             	or     $0xc,%ah
  10480c:	66 89 45 f6          	mov    %ax,-0xa(%ebp)
  104810:	8b 45 f8             	mov    -0x8(%ebp),%eax
  104813:	8d 14 00             	lea    (%eax,%eax,1),%edx
  104816:	0f b7 45 f6          	movzwl -0xa(%ebp),%eax
  10481a:	65 66 89 02          	mov    %ax,%gs:(%edx)
  10481e:	83 45 fc 01          	addl   $0x1,-0x4(%ebp)
  104822:	83 45 f8 01          	addl   $0x1,-0x8(%ebp)
  104826:	8b 45 fc             	mov    -0x4(%ebp),%eax
  104829:	0f b6 00             	movzbl (%eax),%eax
  10482c:	84 c0                	test   %al,%al
  10482e:	75 d1                	jne    104801 <do_page_fault+0x17>
  104830:	a1 a0 6e 10 00       	mov    0x106ea0,%eax
  104835:	83 c0 14             	add    $0x14,%eax
  104838:	a3 a0 6e 10 00       	mov    %eax,0x106ea0
  10483d:	a1 a4 15 15 00       	mov    0x1515a4,%eax
  104842:	83 c0 04             	add    $0x4,%eax
  104845:	8b 15 a4 15 15 00    	mov    0x1515a4,%edx
  10484b:	83 c2 04             	add    $0x4,%edx
  10484e:	8b 12                	mov    (%edx),%edx
  104850:	83 ca 01             	or     $0x1,%edx
  104853:	89 10                	mov    %edx,(%eax)
  104855:	c9                   	leave  
  104856:	c3                   	ret    

00104857 <put_page>:
  104857:	55                   	push   %ebp
  104858:	89 e5                	mov    %esp,%ebp
  10485a:	53                   	push   %ebx
  10485b:	83 ec 10             	sub    $0x10,%esp
  10485e:	8b 45 0c             	mov    0xc(%ebp),%eax
  104861:	c1 e8 14             	shr    $0x14,%eax
  104864:	25 fc 0f 00 00       	and    $0xffc,%eax
  104869:	89 45 f8             	mov    %eax,-0x8(%ebp)
  10486c:	8b 45 0c             	mov    0xc(%ebp),%eax
  10486f:	c1 e8 0a             	shr    $0xa,%eax
  104872:	25 fc 0f 00 00       	and    $0xffc,%eax
  104877:	89 45 f4             	mov    %eax,-0xc(%ebp)
  10487a:	0f 20 d8             	mov    %cr3,%eax
  10487d:	89 c3                	mov    %eax,%ebx
  10487f:	89 5d f0             	mov    %ebx,-0x10(%ebp)
  104882:	8b 45 f8             	mov    -0x8(%ebp),%eax
  104885:	c1 e0 02             	shl    $0x2,%eax
  104888:	03 45 f0             	add    -0x10(%ebp),%eax
  10488b:	89 45 f8             	mov    %eax,-0x8(%ebp)
  10488e:	8b 45 f8             	mov    -0x8(%ebp),%eax
  104891:	8b 00                	mov    (%eax),%eax
  104893:	25 00 f0 ff ff       	and    $0xfffff000,%eax
  104898:	c1 e0 02             	shl    $0x2,%eax
  10489b:	01 45 f4             	add    %eax,-0xc(%ebp)
  10489e:	8b 45 f4             	mov    -0xc(%ebp),%eax
  1048a1:	8b 55 08             	mov    0x8(%ebp),%edx
  1048a4:	89 10                	mov    %edx,(%eax)
  1048a6:	83 c4 10             	add    $0x10,%esp
  1048a9:	5b                   	pop    %ebx
  1048aa:	5d                   	pop    %ebp
  1048ab:	c3                   	ret    

001048ac <kget_free_page>:
  1048ac:	55                   	push   %ebp
  1048ad:	89 e5                	mov    %esp,%ebp
  1048af:	83 ec 28             	sub    $0x28,%esp
  1048b2:	c7 45 f4 00 03 00 00 	movl   $0x300,-0xc(%ebp)
  1048b9:	eb 1c                	jmp    1048d7 <kget_free_page+0x2b>
  1048bb:	8b 45 f4             	mov    -0xc(%ebp),%eax
  1048be:	0f b7 84 00 40 75 10 	movzwl 0x107540(%eax,%eax,1),%eax
  1048c5:	00 
  1048c6:	66 85 c0             	test   %ax,%ax
  1048c9:	75 08                	jne    1048d3 <kget_free_page+0x27>
  1048cb:	8b 45 f4             	mov    -0xc(%ebp),%eax
  1048ce:	c1 e0 0c             	shl    $0xc,%eax
  1048d1:	eb 19                	jmp    1048ec <kget_free_page+0x40>
  1048d3:	83 45 f4 01          	addl   $0x1,-0xc(%ebp)
  1048d7:	81 7d f4 ff 03 00 00 	cmpl   $0x3ff,-0xc(%ebp)
  1048de:	7e db                	jle    1048bb <kget_free_page+0xf>
  1048e0:	c7 04 24 04 5a 10 00 	movl   $0x105a04,(%esp)
  1048e7:	e8 37 04 00 00       	call   104d23 <panic>
  1048ec:	c9                   	leave  
  1048ed:	c3                   	ret    

001048ee <kfree_page>:
  1048ee:	55                   	push   %ebp
  1048ef:	89 e5                	mov    %esp,%ebp
  1048f1:	83 ec 28             	sub    $0x28,%esp
  1048f4:	8b 45 08             	mov    0x8(%ebp),%eax
  1048f7:	c1 f8 0c             	sar    $0xc,%eax
  1048fa:	89 45 f4             	mov    %eax,-0xc(%ebp)
  1048fd:	81 7d f4 ff 02 00 00 	cmpl   $0x2ff,-0xc(%ebp)
  104904:	7e 3d                	jle    104943 <kfree_page+0x55>
  104906:	81 7d f4 ff 03 00 00 	cmpl   $0x3ff,-0xc(%ebp)
  10490d:	7f 34                	jg     104943 <kfree_page+0x55>
  10490f:	8b 45 f4             	mov    -0xc(%ebp),%eax
  104912:	01 c0                	add    %eax,%eax
  104914:	8d 88 40 75 10 00    	lea    0x107540(%eax),%ecx
  10491a:	8b 45 f4             	mov    -0xc(%ebp),%eax
  10491d:	0f b7 84 00 40 75 10 	movzwl 0x107540(%eax,%eax,1),%eax
  104924:	00 
  104925:	66 85 c0             	test   %ax,%ax
  104928:	0f 95 c2             	setne  %dl
  10492b:	83 e8 01             	sub    $0x1,%eax
  10492e:	66 89 01             	mov    %ax,(%ecx)
  104931:	84 d2                	test   %dl,%dl
  104933:	75 1c                	jne    104951 <kfree_page+0x63>
  104935:	c7 04 24 26 5a 10 00 	movl   $0x105a26,(%esp)
  10493c:	e8 e2 03 00 00       	call   104d23 <panic>
  104941:	eb 0f                	jmp    104952 <kfree_page+0x64>
  104943:	c7 04 24 3e 5a 10 00 	movl   $0x105a3e,(%esp)
  10494a:	e8 d4 03 00 00       	call   104d23 <panic>
  10494f:	eb 01                	jmp    104952 <kfree_page+0x64>
  104951:	90                   	nop
  104952:	c9                   	leave  
  104953:	c3                   	ret    

00104954 <itoa>:
  104954:	55                   	push   %ebp
  104955:	89 e5                	mov    %esp,%ebp
  104957:	53                   	push   %ebx
  104958:	83 ec 14             	sub    $0x14,%esp
  10495b:	83 7d 0c 00          	cmpl   $0x0,0xc(%ebp)
  10495f:	75 17                	jne    104978 <itoa+0x24>
  104961:	8b 45 08             	mov    0x8(%ebp),%eax
  104964:	c6 00 30             	movb   $0x30,(%eax)
  104967:	8b 45 08             	mov    0x8(%ebp),%eax
  10496a:	83 c0 01             	add    $0x1,%eax
  10496d:	c6 00 00             	movb   $0x0,(%eax)
  104970:	8b 45 08             	mov    0x8(%ebp),%eax
  104973:	e9 b6 00 00 00       	jmp    104a2e <itoa+0xda>
  104978:	83 7d 0c 00          	cmpl   $0x0,0xc(%ebp)
  10497c:	74 07                	je     104985 <itoa+0x31>
  10497e:	b8 2b 00 00 00       	mov    $0x2b,%eax
  104983:	eb 05                	jmp    10498a <itoa+0x36>
  104985:	b8 2d 00 00 00       	mov    $0x2d,%eax
  10498a:	8b 55 08             	mov    0x8(%ebp),%edx
  10498d:	88 02                	mov    %al,(%edx)
  10498f:	c7 45 f8 01 00 00 00 	movl   $0x1,-0x8(%ebp)
  104996:	eb 47                	jmp    1049df <itoa+0x8b>
  104998:	8b 45 f8             	mov    -0x8(%ebp),%eax
  10499b:	89 c3                	mov    %eax,%ebx
  10499d:	03 5d 08             	add    0x8(%ebp),%ebx
  1049a0:	8b 4d 0c             	mov    0xc(%ebp),%ecx
  1049a3:	ba cd cc cc cc       	mov    $0xcccccccd,%edx
  1049a8:	89 c8                	mov    %ecx,%eax
  1049aa:	f7 e2                	mul    %edx
  1049ac:	c1 ea 03             	shr    $0x3,%edx
  1049af:	89 d0                	mov    %edx,%eax
  1049b1:	c1 e0 02             	shl    $0x2,%eax
  1049b4:	01 d0                	add    %edx,%eax
  1049b6:	01 c0                	add    %eax,%eax
  1049b8:	89 ca                	mov    %ecx,%edx
  1049ba:	29 c2                	sub    %eax,%edx
  1049bc:	89 d0                	mov    %edx,%eax
  1049be:	83 c0 30             	add    $0x30,%eax
  1049c1:	88 03                	mov    %al,(%ebx)
  1049c3:	83 45 f8 01          	addl   $0x1,-0x8(%ebp)
  1049c7:	8b 45 0c             	mov    0xc(%ebp),%eax
  1049ca:	89 45 e8             	mov    %eax,-0x18(%ebp)
  1049cd:	ba cd cc cc cc       	mov    $0xcccccccd,%edx
  1049d2:	8b 45 e8             	mov    -0x18(%ebp),%eax
  1049d5:	f7 e2                	mul    %edx
  1049d7:	89 d0                	mov    %edx,%eax
  1049d9:	c1 e8 03             	shr    $0x3,%eax
  1049dc:	89 45 0c             	mov    %eax,0xc(%ebp)
  1049df:	83 7d 0c 00          	cmpl   $0x0,0xc(%ebp)
  1049e3:	75 b3                	jne    104998 <itoa+0x44>
  1049e5:	83 6d f8 01          	subl   $0x1,-0x8(%ebp)
  1049e9:	c7 45 f4 01 00 00 00 	movl   $0x1,-0xc(%ebp)
  1049f0:	eb 31                	jmp    104a23 <itoa+0xcf>
  1049f2:	8b 45 f8             	mov    -0x8(%ebp),%eax
  1049f5:	03 45 08             	add    0x8(%ebp),%eax
  1049f8:	0f b6 00             	movzbl (%eax),%eax
  1049fb:	88 45 f3             	mov    %al,-0xd(%ebp)
  1049fe:	8b 45 f8             	mov    -0x8(%ebp),%eax
  104a01:	03 45 08             	add    0x8(%ebp),%eax
  104a04:	8b 55 f4             	mov    -0xc(%ebp),%edx
  104a07:	03 55 08             	add    0x8(%ebp),%edx
  104a0a:	0f b6 12             	movzbl (%edx),%edx
  104a0d:	88 10                	mov    %dl,(%eax)
  104a0f:	8b 45 f4             	mov    -0xc(%ebp),%eax
  104a12:	03 45 08             	add    0x8(%ebp),%eax
  104a15:	0f b6 55 f3          	movzbl -0xd(%ebp),%edx
  104a19:	88 10                	mov    %dl,(%eax)
  104a1b:	83 45 f4 01          	addl   $0x1,-0xc(%ebp)
  104a1f:	83 6d f8 01          	subl   $0x1,-0x8(%ebp)
  104a23:	8b 45 f4             	mov    -0xc(%ebp),%eax
  104a26:	3b 45 f8             	cmp    -0x8(%ebp),%eax
  104a29:	7c c7                	jl     1049f2 <itoa+0x9e>
  104a2b:	8b 45 08             	mov    0x8(%ebp),%eax
  104a2e:	83 c4 14             	add    $0x14,%esp
  104a31:	5b                   	pop    %ebx
  104a32:	5d                   	pop    %ebp
  104a33:	c3                   	ret    

00104a34 <itoah>:
  104a34:	55                   	push   %ebp
  104a35:	89 e5                	mov    %esp,%ebp
  104a37:	53                   	push   %ebx
  104a38:	83 ec 10             	sub    $0x10,%esp
  104a3b:	8b 45 08             	mov    0x8(%ebp),%eax
  104a3e:	c6 00 30             	movb   $0x30,(%eax)
  104a41:	8b 45 08             	mov    0x8(%ebp),%eax
  104a44:	83 c0 01             	add    $0x1,%eax
  104a47:	c6 00 78             	movb   $0x78,(%eax)
  104a4a:	8b 45 10             	mov    0x10(%ebp),%eax
  104a4d:	83 e8 04             	sub    $0x4,%eax
  104a50:	89 45 f8             	mov    %eax,-0x8(%ebp)
  104a53:	c7 45 f4 02 00 00 00 	movl   $0x2,-0xc(%ebp)
  104a5a:	eb 40                	jmp    104a9c <itoah+0x68>
  104a5c:	8b 45 f8             	mov    -0x8(%ebp),%eax
  104a5f:	8b 55 0c             	mov    0xc(%ebp),%edx
  104a62:	89 d3                	mov    %edx,%ebx
  104a64:	89 c1                	mov    %eax,%ecx
  104a66:	d3 eb                	shr    %cl,%ebx
  104a68:	89 d8                	mov    %ebx,%eax
  104a6a:	83 e0 0f             	and    $0xf,%eax
  104a6d:	89 45 f0             	mov    %eax,-0x10(%ebp)
  104a70:	83 7d f0 09          	cmpl   $0x9,-0x10(%ebp)
  104a74:	7f 10                	jg     104a86 <itoah+0x52>
  104a76:	8b 45 f4             	mov    -0xc(%ebp),%eax
  104a79:	03 45 08             	add    0x8(%ebp),%eax
  104a7c:	8b 55 f0             	mov    -0x10(%ebp),%edx
  104a7f:	83 c2 30             	add    $0x30,%edx
  104a82:	88 10                	mov    %dl,(%eax)
  104a84:	eb 0e                	jmp    104a94 <itoah+0x60>
  104a86:	8b 45 f4             	mov    -0xc(%ebp),%eax
  104a89:	03 45 08             	add    0x8(%ebp),%eax
  104a8c:	8b 55 f0             	mov    -0x10(%ebp),%edx
  104a8f:	83 c2 37             	add    $0x37,%edx
  104a92:	88 10                	mov    %dl,(%eax)
  104a94:	83 6d f8 04          	subl   $0x4,-0x8(%ebp)
  104a98:	83 45 f4 01          	addl   $0x1,-0xc(%ebp)
  104a9c:	83 7d f8 00          	cmpl   $0x0,-0x8(%ebp)
  104aa0:	79 ba                	jns    104a5c <itoah+0x28>
  104aa2:	8b 45 f4             	mov    -0xc(%ebp),%eax
  104aa5:	03 45 08             	add    0x8(%ebp),%eax
  104aa8:	c6 00 00             	movb   $0x0,(%eax)
  104aab:	8b 45 08             	mov    0x8(%ebp),%eax
  104aae:	83 c4 10             	add    $0x10,%esp
  104ab1:	5b                   	pop    %ebx
  104ab2:	5d                   	pop    %ebp
  104ab3:	c3                   	ret    

00104ab4 <strcpy>:
  104ab4:	55                   	push   %ebp
  104ab5:	89 e5                	mov    %esp,%ebp
  104ab7:	eb 13                	jmp    104acc <strcpy+0x18>
  104ab9:	8b 45 0c             	mov    0xc(%ebp),%eax
  104abc:	0f b6 10             	movzbl (%eax),%edx
  104abf:	8b 45 08             	mov    0x8(%ebp),%eax
  104ac2:	88 10                	mov    %dl,(%eax)
  104ac4:	83 45 08 01          	addl   $0x1,0x8(%ebp)
  104ac8:	83 45 0c 01          	addl   $0x1,0xc(%ebp)
  104acc:	83 7d 10 00          	cmpl   $0x0,0x10(%ebp)
  104ad0:	0f 95 c0             	setne  %al
  104ad3:	83 6d 10 01          	subl   $0x1,0x10(%ebp)
  104ad7:	84 c0                	test   %al,%al
  104ad9:	75 de                	jne    104ab9 <strcpy+0x5>
  104adb:	b8 00 00 00 00       	mov    $0x0,%eax
  104ae0:	5d                   	pop    %ebp
  104ae1:	c3                   	ret    

00104ae2 <strcmp>:
  104ae2:	55                   	push   %ebp
  104ae3:	89 e5                	mov    %esp,%ebp
  104ae5:	83 ec 10             	sub    $0x10,%esp
  104ae8:	c7 45 fc 00 00 00 00 	movl   $0x0,-0x4(%ebp)
  104aef:	c7 45 f8 00 00 00 00 	movl   $0x0,-0x8(%ebp)
  104af6:	c7 45 fc 00 00 00 00 	movl   $0x0,-0x4(%ebp)
  104afd:	eb 32                	jmp    104b31 <strcmp+0x4f>
  104aff:	8b 45 08             	mov    0x8(%ebp),%eax
  104b02:	0f b6 00             	movzbl (%eax),%eax
  104b05:	0f be d0             	movsbl %al,%edx
  104b08:	8b 45 0c             	mov    0xc(%ebp),%eax
  104b0b:	0f b6 00             	movzbl (%eax),%eax
  104b0e:	0f be c0             	movsbl %al,%eax
  104b11:	89 d1                	mov    %edx,%ecx
  104b13:	29 c1                	sub    %eax,%ecx
  104b15:	89 c8                	mov    %ecx,%eax
  104b17:	89 45 f8             	mov    %eax,-0x8(%ebp)
  104b1a:	83 7d f8 00          	cmpl   $0x0,-0x8(%ebp)
  104b1e:	74 05                	je     104b25 <strcmp+0x43>
  104b20:	8b 45 f8             	mov    -0x8(%ebp),%eax
  104b23:	eb 17                	jmp    104b3c <strcmp+0x5a>
  104b25:	83 45 08 01          	addl   $0x1,0x8(%ebp)
  104b29:	83 45 0c 01          	addl   $0x1,0xc(%ebp)
  104b2d:	83 45 fc 01          	addl   $0x1,-0x4(%ebp)
  104b31:	8b 45 fc             	mov    -0x4(%ebp),%eax
  104b34:	3b 45 10             	cmp    0x10(%ebp),%eax
  104b37:	7c c6                	jl     104aff <strcmp+0x1d>
  104b39:	8b 45 f8             	mov    -0x8(%ebp),%eax
  104b3c:	c9                   	leave  
  104b3d:	c3                   	ret    

00104b3e <vsprintf>:
  104b3e:	55                   	push   %ebp
  104b3f:	89 e5                	mov    %esp,%ebp
  104b41:	83 ec 1c             	sub    $0x1c,%esp
  104b44:	c7 45 fc 00 00 00 00 	movl   $0x0,-0x4(%ebp)
  104b4b:	e9 fc 00 00 00       	jmp    104c4c <vsprintf+0x10e>
  104b50:	8b 45 0c             	mov    0xc(%ebp),%eax
  104b53:	0f b6 00             	movzbl (%eax),%eax
  104b56:	3c 25                	cmp    $0x25,%al
  104b58:	0f 85 d8 00 00 00    	jne    104c36 <vsprintf+0xf8>
  104b5e:	83 45 0c 01          	addl   $0x1,0xc(%ebp)
  104b62:	8b 45 0c             	mov    0xc(%ebp),%eax
  104b65:	0f b6 00             	movzbl (%eax),%eax
  104b68:	0f be c0             	movsbl %al,%eax
  104b6b:	83 f8 73             	cmp    $0x73,%eax
  104b6e:	74 4d                	je     104bbd <vsprintf+0x7f>
  104b70:	83 f8 78             	cmp    $0x78,%eax
  104b73:	74 7a                	je     104bef <vsprintf+0xb1>
  104b75:	83 f8 64             	cmp    $0x64,%eax
  104b78:	0f 85 b1 00 00 00    	jne    104c2f <vsprintf+0xf1>
  104b7e:	8b 45 10             	mov    0x10(%ebp),%eax
  104b81:	8d 50 04             	lea    0x4(%eax),%edx
  104b84:	89 55 10             	mov    %edx,0x10(%ebp)
  104b87:	8b 00                	mov    (%eax),%eax
  104b89:	89 45 f4             	mov    %eax,-0xc(%ebp)
  104b8c:	8b 55 f4             	mov    -0xc(%ebp),%edx
  104b8f:	8b 45 fc             	mov    -0x4(%ebp),%eax
  104b92:	03 45 08             	add    0x8(%ebp),%eax
  104b95:	89 54 24 04          	mov    %edx,0x4(%esp)
  104b99:	89 04 24             	mov    %eax,(%esp)
  104b9c:	e8 b3 fd ff ff       	call   104954 <itoa>
  104ba1:	90                   	nop
  104ba2:	8b 45 fc             	mov    -0x4(%ebp),%eax
  104ba5:	03 45 08             	add    0x8(%ebp),%eax
  104ba8:	0f b6 00             	movzbl (%eax),%eax
  104bab:	84 c0                	test   %al,%al
  104bad:	0f 95 c0             	setne  %al
  104bb0:	83 45 fc 01          	addl   $0x1,-0x4(%ebp)
  104bb4:	84 c0                	test   %al,%al
  104bb6:	75 ea                	jne    104ba2 <vsprintf+0x64>
  104bb8:	e9 8b 00 00 00       	jmp    104c48 <vsprintf+0x10a>
  104bbd:	8b 45 10             	mov    0x10(%ebp),%eax
  104bc0:	8d 50 04             	lea    0x4(%eax),%edx
  104bc3:	89 55 10             	mov    %edx,0x10(%ebp)
  104bc6:	8b 00                	mov    (%eax),%eax
  104bc8:	89 45 f8             	mov    %eax,-0x8(%ebp)
  104bcb:	eb 16                	jmp    104be3 <vsprintf+0xa5>
  104bcd:	8b 45 fc             	mov    -0x4(%ebp),%eax
  104bd0:	03 45 08             	add    0x8(%ebp),%eax
  104bd3:	8b 55 f8             	mov    -0x8(%ebp),%edx
  104bd6:	0f b6 12             	movzbl (%edx),%edx
  104bd9:	88 10                	mov    %dl,(%eax)
  104bdb:	83 45 fc 01          	addl   $0x1,-0x4(%ebp)
  104bdf:	83 45 f8 01          	addl   $0x1,-0x8(%ebp)
  104be3:	8b 45 f8             	mov    -0x8(%ebp),%eax
  104be6:	0f b6 00             	movzbl (%eax),%eax
  104be9:	84 c0                	test   %al,%al
  104beb:	75 e0                	jne    104bcd <vsprintf+0x8f>
  104bed:	eb 59                	jmp    104c48 <vsprintf+0x10a>
  104bef:	8b 45 10             	mov    0x10(%ebp),%eax
  104bf2:	8d 50 04             	lea    0x4(%eax),%edx
  104bf5:	89 55 10             	mov    %edx,0x10(%ebp)
  104bf8:	8b 00                	mov    (%eax),%eax
  104bfa:	89 45 f4             	mov    %eax,-0xc(%ebp)
  104bfd:	8b 55 f4             	mov    -0xc(%ebp),%edx
  104c00:	8b 45 fc             	mov    -0x4(%ebp),%eax
  104c03:	03 45 08             	add    0x8(%ebp),%eax
  104c06:	c7 44 24 08 20 00 00 	movl   $0x20,0x8(%esp)
  104c0d:	00 
  104c0e:	89 54 24 04          	mov    %edx,0x4(%esp)
  104c12:	89 04 24             	mov    %eax,(%esp)
  104c15:	e8 1a fe ff ff       	call   104a34 <itoah>
  104c1a:	eb 04                	jmp    104c20 <vsprintf+0xe2>
  104c1c:	83 45 fc 01          	addl   $0x1,-0x4(%ebp)
  104c20:	8b 45 fc             	mov    -0x4(%ebp),%eax
  104c23:	03 45 08             	add    0x8(%ebp),%eax
  104c26:	0f b6 00             	movzbl (%eax),%eax
  104c29:	84 c0                	test   %al,%al
  104c2b:	75 ef                	jne    104c1c <vsprintf+0xde>
  104c2d:	eb 19                	jmp    104c48 <vsprintf+0x10a>
  104c2f:	b8 ff ff ff ff       	mov    $0xffffffff,%eax
  104c34:	eb 2d                	jmp    104c63 <vsprintf+0x125>
  104c36:	8b 45 fc             	mov    -0x4(%ebp),%eax
  104c39:	03 45 08             	add    0x8(%ebp),%eax
  104c3c:	8b 55 0c             	mov    0xc(%ebp),%edx
  104c3f:	0f b6 12             	movzbl (%edx),%edx
  104c42:	88 10                	mov    %dl,(%eax)
  104c44:	83 45 fc 01          	addl   $0x1,-0x4(%ebp)
  104c48:	83 45 0c 01          	addl   $0x1,0xc(%ebp)
  104c4c:	8b 45 0c             	mov    0xc(%ebp),%eax
  104c4f:	0f b6 00             	movzbl (%eax),%eax
  104c52:	84 c0                	test   %al,%al
  104c54:	0f 85 f6 fe ff ff    	jne    104b50 <vsprintf+0x12>
  104c5a:	8b 45 fc             	mov    -0x4(%ebp),%eax
  104c5d:	03 45 08             	add    0x8(%ebp),%eax
  104c60:	c6 00 00             	movb   $0x0,(%eax)
  104c63:	c9                   	leave  
  104c64:	c3                   	ret    

00104c65 <sprintf>:
  104c65:	55                   	push   %ebp
  104c66:	89 e5                	mov    %esp,%ebp
  104c68:	83 ec 1c             	sub    $0x1c,%esp
  104c6b:	8d 45 10             	lea    0x10(%ebp),%eax
  104c6e:	89 45 fc             	mov    %eax,-0x4(%ebp)
  104c71:	8b 45 fc             	mov    -0x4(%ebp),%eax
  104c74:	89 44 24 08          	mov    %eax,0x8(%esp)
  104c78:	8b 45 0c             	mov    0xc(%ebp),%eax
  104c7b:	89 44 24 04          	mov    %eax,0x4(%esp)
  104c7f:	8b 45 08             	mov    0x8(%ebp),%eax
  104c82:	89 04 24             	mov    %eax,(%esp)
  104c85:	e8 b4 fe ff ff       	call   104b3e <vsprintf>
  104c8a:	c9                   	leave  
  104c8b:	c3                   	ret    

00104c8c <printf>:
  104c8c:	55                   	push   %ebp
  104c8d:	89 e5                	mov    %esp,%ebp
  104c8f:	57                   	push   %edi
  104c90:	53                   	push   %ebx
  104c91:	83 ec 7c             	sub    $0x7c,%esp
  104c94:	8d 5d 94             	lea    -0x6c(%ebp),%ebx
  104c97:	b8 00 00 00 00       	mov    $0x0,%eax
  104c9c:	ba 19 00 00 00       	mov    $0x19,%edx
  104ca1:	89 df                	mov    %ebx,%edi
  104ca3:	89 d1                	mov    %edx,%ecx
  104ca5:	f3 ab                	rep stos %eax,%es:(%edi)
  104ca7:	8d 45 0c             	lea    0xc(%ebp),%eax
  104caa:	89 45 90             	mov    %eax,-0x70(%ebp)
  104cad:	8b 45 90             	mov    -0x70(%ebp),%eax
  104cb0:	89 44 24 08          	mov    %eax,0x8(%esp)
  104cb4:	8b 45 08             	mov    0x8(%ebp),%eax
  104cb7:	89 44 24 04          	mov    %eax,0x4(%esp)
  104cbb:	8d 45 94             	lea    -0x6c(%ebp),%eax
  104cbe:	89 04 24             	mov    %eax,(%esp)
  104cc1:	e8 78 fe ff ff       	call   104b3e <vsprintf>
  104cc6:	b8 00 00 00 00       	mov    $0x0,%eax
  104ccb:	83 c4 7c             	add    $0x7c,%esp
  104cce:	5b                   	pop    %ebx
  104ccf:	5f                   	pop    %edi
  104cd0:	5d                   	pop    %ebp
  104cd1:	c3                   	ret    

00104cd2 <wait_time>:
  104cd2:	55                   	push   %ebp
  104cd3:	89 e5                	mov    %esp,%ebp
  104cd5:	53                   	push   %ebx
  104cd6:	83 ec 14             	sub    $0x14,%esp
  104cd9:	8b 45 08             	mov    0x8(%ebp),%eax
  104cdc:	6b c0 64             	imul   $0x64,%eax,%eax
  104cdf:	89 45 08             	mov    %eax,0x8(%ebp)
  104ce2:	a1 20 75 10 00       	mov    0x107520,%eax
  104ce7:	8b 15 24 75 10 00    	mov    0x107524,%edx
  104ced:	89 45 f0             	mov    %eax,-0x10(%ebp)
  104cf0:	89 55 f4             	mov    %edx,-0xc(%ebp)
  104cf3:	90                   	nop
  104cf4:	a1 20 75 10 00       	mov    0x107520,%eax
  104cf9:	8b 15 24 75 10 00    	mov    0x107524,%edx
  104cff:	89 c1                	mov    %eax,%ecx
  104d01:	89 d3                	mov    %edx,%ebx
  104d03:	2b 4d f0             	sub    -0x10(%ebp),%ecx
  104d06:	1b 5d f4             	sbb    -0xc(%ebp),%ebx
  104d09:	8b 45 08             	mov    0x8(%ebp),%eax
  104d0c:	89 c2                	mov    %eax,%edx
  104d0e:	c1 fa 1f             	sar    $0x1f,%edx
  104d11:	39 d3                	cmp    %edx,%ebx
  104d13:	72 df                	jb     104cf4 <wait_time+0x22>
  104d15:	39 d3                	cmp    %edx,%ebx
  104d17:	77 04                	ja     104d1d <wait_time+0x4b>
  104d19:	39 c1                	cmp    %eax,%ecx
  104d1b:	72 d7                	jb     104cf4 <wait_time+0x22>
  104d1d:	83 c4 14             	add    $0x14,%esp
  104d20:	5b                   	pop    %ebx
  104d21:	5d                   	pop    %ebp
  104d22:	c3                   	ret    

00104d23 <panic>:
  104d23:	55                   	push   %ebp
  104d24:	89 e5                	mov    %esp,%ebp
  104d26:	83 ec 10             	sub    $0x10,%esp
  104d29:	8b 45 08             	mov    0x8(%ebp),%eax
  104d2c:	89 45 fc             	mov    %eax,-0x4(%ebp)
  104d2f:	a1 a4 6e 10 00       	mov    0x106ea4,%eax
  104d34:	89 45 f8             	mov    %eax,-0x8(%ebp)
  104d37:	eb 25                	jmp    104d5e <panic+0x3b>
  104d39:	8b 45 fc             	mov    -0x4(%ebp),%eax
  104d3c:	0f b6 00             	movzbl (%eax),%eax
  104d3f:	66 98                	cbtw   
  104d41:	80 cc 0c             	or     $0xc,%ah
  104d44:	66 89 45 f6          	mov    %ax,-0xa(%ebp)
  104d48:	8b 45 f8             	mov    -0x8(%ebp),%eax
  104d4b:	8d 14 00             	lea    (%eax,%eax,1),%edx
  104d4e:	0f b7 45 f6          	movzwl -0xa(%ebp),%eax
  104d52:	65 66 89 02          	mov    %ax,%gs:(%edx)
  104d56:	83 45 fc 01          	addl   $0x1,-0x4(%ebp)
  104d5a:	83 45 f8 01          	addl   $0x1,-0x8(%ebp)
  104d5e:	8b 45 fc             	mov    -0x4(%ebp),%eax
  104d61:	0f b6 00             	movzbl (%eax),%eax
  104d64:	84 c0                	test   %al,%al
  104d66:	75 d1                	jne    104d39 <panic+0x16>
  104d68:	a1 a4 6e 10 00       	mov    0x106ea4,%eax
  104d6d:	83 c0 50             	add    $0x50,%eax
  104d70:	a3 a4 6e 10 00       	mov    %eax,0x106ea4
  104d75:	eb fe                	jmp    104d75 <panic+0x52>
  104d77:	90                   	nop

00104d78 <init_time>:
  104d78:	55                   	push   %ebp
  104d79:	89 e5                	mov    %esp,%ebp
  104d7b:	53                   	push   %ebx
  104d7c:	83 ec 44             	sub    $0x44,%esp
  104d7f:	ba 70 00 00 00       	mov    $0x70,%edx
  104d84:	b8 80 00 00 00       	mov    $0x80,%eax
  104d89:	ee                   	out    %al,(%dx)
  104d8a:	90                   	nop
  104d8b:	90                   	nop
  104d8c:	90                   	nop
  104d8d:	90                   	nop
  104d8e:	c7 45 d4 71 00 00 00 	movl   $0x71,-0x2c(%ebp)
  104d95:	8b 55 d4             	mov    -0x2c(%ebp),%edx
  104d98:	ec                   	in     (%dx),%al
  104d99:	90                   	nop
  104d9a:	90                   	nop
  104d9b:	90                   	nop
  104d9c:	90                   	nop
  104d9d:	89 c3                	mov    %eax,%ebx
  104d9f:	88 5d eb             	mov    %bl,-0x15(%ebp)
  104da2:	0f b6 45 eb          	movzbl -0x15(%ebp),%eax
  104da6:	0f b6 c0             	movzbl %al,%eax
  104da9:	a3 80 11 15 00       	mov    %eax,0x151180
  104dae:	ba 70 00 00 00       	mov    $0x70,%edx
  104db3:	b8 82 00 00 00       	mov    $0x82,%eax
  104db8:	ee                   	out    %al,(%dx)
  104db9:	90                   	nop
  104dba:	90                   	nop
  104dbb:	90                   	nop
  104dbc:	90                   	nop
  104dbd:	c7 45 d4 71 00 00 00 	movl   $0x71,-0x2c(%ebp)
  104dc4:	8b 55 d4             	mov    -0x2c(%ebp),%edx
  104dc7:	ec                   	in     (%dx),%al
  104dc8:	90                   	nop
  104dc9:	90                   	nop
  104dca:	90                   	nop
  104dcb:	90                   	nop
  104dcc:	89 c3                	mov    %eax,%ebx
  104dce:	88 5d ea             	mov    %bl,-0x16(%ebp)
  104dd1:	0f b6 45 ea          	movzbl -0x16(%ebp),%eax
  104dd5:	0f b6 c0             	movzbl %al,%eax
  104dd8:	a3 84 11 15 00       	mov    %eax,0x151184
  104ddd:	ba 70 00 00 00       	mov    $0x70,%edx
  104de2:	b8 84 00 00 00       	mov    $0x84,%eax
  104de7:	ee                   	out    %al,(%dx)
  104de8:	90                   	nop
  104de9:	90                   	nop
  104dea:	90                   	nop
  104deb:	90                   	nop
  104dec:	c7 45 d4 71 00 00 00 	movl   $0x71,-0x2c(%ebp)
  104df3:	8b 55 d4             	mov    -0x2c(%ebp),%edx
  104df6:	ec                   	in     (%dx),%al
  104df7:	90                   	nop
  104df8:	90                   	nop
  104df9:	90                   	nop
  104dfa:	90                   	nop
  104dfb:	89 c3                	mov    %eax,%ebx
  104dfd:	88 5d e9             	mov    %bl,-0x17(%ebp)
  104e00:	0f b6 45 e9          	movzbl -0x17(%ebp),%eax
  104e04:	0f b6 c0             	movzbl %al,%eax
  104e07:	a3 88 11 15 00       	mov    %eax,0x151188
  104e0c:	ba 70 00 00 00       	mov    $0x70,%edx
  104e11:	b8 87 00 00 00       	mov    $0x87,%eax
  104e16:	ee                   	out    %al,(%dx)
  104e17:	90                   	nop
  104e18:	90                   	nop
  104e19:	90                   	nop
  104e1a:	90                   	nop
  104e1b:	c7 45 d4 71 00 00 00 	movl   $0x71,-0x2c(%ebp)
  104e22:	8b 55 d4             	mov    -0x2c(%ebp),%edx
  104e25:	ec                   	in     (%dx),%al
  104e26:	90                   	nop
  104e27:	90                   	nop
  104e28:	90                   	nop
  104e29:	90                   	nop
  104e2a:	89 c3                	mov    %eax,%ebx
  104e2c:	88 5d e8             	mov    %bl,-0x18(%ebp)
  104e2f:	0f b6 45 e8          	movzbl -0x18(%ebp),%eax
  104e33:	0f b6 c0             	movzbl %al,%eax
  104e36:	a3 8c 11 15 00       	mov    %eax,0x15118c
  104e3b:	ba 70 00 00 00       	mov    $0x70,%edx
  104e40:	b8 88 00 00 00       	mov    $0x88,%eax
  104e45:	ee                   	out    %al,(%dx)
  104e46:	90                   	nop
  104e47:	90                   	nop
  104e48:	90                   	nop
  104e49:	90                   	nop
  104e4a:	c7 45 d4 71 00 00 00 	movl   $0x71,-0x2c(%ebp)
  104e51:	8b 55 d4             	mov    -0x2c(%ebp),%edx
  104e54:	ec                   	in     (%dx),%al
  104e55:	90                   	nop
  104e56:	90                   	nop
  104e57:	90                   	nop
  104e58:	90                   	nop
  104e59:	89 c3                	mov    %eax,%ebx
  104e5b:	88 5d e7             	mov    %bl,-0x19(%ebp)
  104e5e:	0f b6 45 e7          	movzbl -0x19(%ebp),%eax
  104e62:	0f b6 c0             	movzbl %al,%eax
  104e65:	a3 90 11 15 00       	mov    %eax,0x151190
  104e6a:	ba 70 00 00 00       	mov    $0x70,%edx
  104e6f:	b8 89 00 00 00       	mov    $0x89,%eax
  104e74:	ee                   	out    %al,(%dx)
  104e75:	90                   	nop
  104e76:	90                   	nop
  104e77:	90                   	nop
  104e78:	90                   	nop
  104e79:	c7 45 d4 71 00 00 00 	movl   $0x71,-0x2c(%ebp)
  104e80:	8b 55 d4             	mov    -0x2c(%ebp),%edx
  104e83:	ec                   	in     (%dx),%al
  104e84:	90                   	nop
  104e85:	90                   	nop
  104e86:	90                   	nop
  104e87:	90                   	nop
  104e88:	89 c3                	mov    %eax,%ebx
  104e8a:	88 5d e6             	mov    %bl,-0x1a(%ebp)
  104e8d:	0f b6 45 e6          	movzbl -0x1a(%ebp),%eax
  104e91:	0f b6 c0             	movzbl %al,%eax
  104e94:	a3 94 11 15 00       	mov    %eax,0x151194
  104e99:	a1 80 11 15 00       	mov    0x151180,%eax
  104e9e:	89 c1                	mov    %eax,%ecx
  104ea0:	83 e1 0f             	and    $0xf,%ecx
  104ea3:	a1 80 11 15 00       	mov    0x151180,%eax
  104ea8:	89 c2                	mov    %eax,%edx
  104eaa:	c1 fa 04             	sar    $0x4,%edx
  104ead:	89 d0                	mov    %edx,%eax
  104eaf:	c1 e0 02             	shl    $0x2,%eax
  104eb2:	01 d0                	add    %edx,%eax
  104eb4:	01 c0                	add    %eax,%eax
  104eb6:	8d 04 01             	lea    (%ecx,%eax,1),%eax
  104eb9:	a3 80 11 15 00       	mov    %eax,0x151180
  104ebe:	a1 84 11 15 00       	mov    0x151184,%eax
  104ec3:	89 c1                	mov    %eax,%ecx
  104ec5:	83 e1 0f             	and    $0xf,%ecx
  104ec8:	a1 84 11 15 00       	mov    0x151184,%eax
  104ecd:	89 c2                	mov    %eax,%edx
  104ecf:	c1 fa 04             	sar    $0x4,%edx
  104ed2:	89 d0                	mov    %edx,%eax
  104ed4:	c1 e0 02             	shl    $0x2,%eax
  104ed7:	01 d0                	add    %edx,%eax
  104ed9:	01 c0                	add    %eax,%eax
  104edb:	8d 04 01             	lea    (%ecx,%eax,1),%eax
  104ede:	a3 84 11 15 00       	mov    %eax,0x151184
  104ee3:	a1 88 11 15 00       	mov    0x151188,%eax
  104ee8:	89 c1                	mov    %eax,%ecx
  104eea:	83 e1 0f             	and    $0xf,%ecx
  104eed:	a1 88 11 15 00       	mov    0x151188,%eax
  104ef2:	89 c2                	mov    %eax,%edx
  104ef4:	c1 fa 04             	sar    $0x4,%edx
  104ef7:	89 d0                	mov    %edx,%eax
  104ef9:	c1 e0 02             	shl    $0x2,%eax
  104efc:	01 d0                	add    %edx,%eax
  104efe:	01 c0                	add    %eax,%eax
  104f00:	8d 04 01             	lea    (%ecx,%eax,1),%eax
  104f03:	a3 88 11 15 00       	mov    %eax,0x151188
  104f08:	a1 8c 11 15 00       	mov    0x15118c,%eax
  104f0d:	89 c1                	mov    %eax,%ecx
  104f0f:	83 e1 0f             	and    $0xf,%ecx
  104f12:	a1 8c 11 15 00       	mov    0x15118c,%eax
  104f17:	89 c2                	mov    %eax,%edx
  104f19:	c1 fa 04             	sar    $0x4,%edx
  104f1c:	89 d0                	mov    %edx,%eax
  104f1e:	c1 e0 02             	shl    $0x2,%eax
  104f21:	01 d0                	add    %edx,%eax
  104f23:	01 c0                	add    %eax,%eax
  104f25:	8d 04 01             	lea    (%ecx,%eax,1),%eax
  104f28:	a3 8c 11 15 00       	mov    %eax,0x15118c
  104f2d:	a1 90 11 15 00       	mov    0x151190,%eax
  104f32:	89 c1                	mov    %eax,%ecx
  104f34:	83 e1 0f             	and    $0xf,%ecx
  104f37:	a1 90 11 15 00       	mov    0x151190,%eax
  104f3c:	89 c2                	mov    %eax,%edx
  104f3e:	c1 fa 04             	sar    $0x4,%edx
  104f41:	89 d0                	mov    %edx,%eax
  104f43:	c1 e0 02             	shl    $0x2,%eax
  104f46:	01 d0                	add    %edx,%eax
  104f48:	01 c0                	add    %eax,%eax
  104f4a:	8d 04 01             	lea    (%ecx,%eax,1),%eax
  104f4d:	a3 90 11 15 00       	mov    %eax,0x151190
  104f52:	a1 94 11 15 00       	mov    0x151194,%eax
  104f57:	89 c1                	mov    %eax,%ecx
  104f59:	83 e1 0f             	and    $0xf,%ecx
  104f5c:	a1 94 11 15 00       	mov    0x151194,%eax
  104f61:	89 c2                	mov    %eax,%edx
  104f63:	c1 fa 04             	sar    $0x4,%edx
  104f66:	89 d0                	mov    %edx,%eax
  104f68:	c1 e0 02             	shl    $0x2,%eax
  104f6b:	01 d0                	add    %edx,%eax
  104f6d:	01 c0                	add    %eax,%eax
  104f6f:	8d 04 01             	lea    (%ecx,%eax,1),%eax
  104f72:	a3 94 11 15 00       	mov    %eax,0x151194
  104f77:	c7 45 f4 94 11 15 00 	movl   $0x151194,-0xc(%ebp)
  104f7e:	c7 45 f0 e0 15 15 00 	movl   $0x1515e0,-0x10(%ebp)
  104f85:	c7 45 ec 00 00 00 00 	movl   $0x0,-0x14(%ebp)
  104f8c:	eb 6d                	jmp    104ffb <init_time+0x283>
  104f8e:	8b 45 f4             	mov    -0xc(%ebp),%eax
  104f91:	8b 08                	mov    (%eax),%ecx
  104f93:	ba 67 66 66 66       	mov    $0x66666667,%edx
  104f98:	89 c8                	mov    %ecx,%eax
  104f9a:	f7 ea                	imul   %edx
  104f9c:	c1 fa 02             	sar    $0x2,%edx
  104f9f:	89 c8                	mov    %ecx,%eax
  104fa1:	c1 f8 1f             	sar    $0x1f,%eax
  104fa4:	89 d1                	mov    %edx,%ecx
  104fa6:	29 c1                	sub    %eax,%ecx
  104fa8:	89 c8                	mov    %ecx,%eax
  104faa:	83 c0 30             	add    $0x30,%eax
  104fad:	89 c2                	mov    %eax,%edx
  104faf:	8b 45 f0             	mov    -0x10(%ebp),%eax
  104fb2:	88 10                	mov    %dl,(%eax)
  104fb4:	8b 45 f0             	mov    -0x10(%ebp),%eax
  104fb7:	8d 58 01             	lea    0x1(%eax),%ebx
  104fba:	8b 45 f4             	mov    -0xc(%ebp),%eax
  104fbd:	8b 08                	mov    (%eax),%ecx
  104fbf:	ba 67 66 66 66       	mov    $0x66666667,%edx
  104fc4:	89 c8                	mov    %ecx,%eax
  104fc6:	f7 ea                	imul   %edx
  104fc8:	c1 fa 02             	sar    $0x2,%edx
  104fcb:	89 c8                	mov    %ecx,%eax
  104fcd:	c1 f8 1f             	sar    $0x1f,%eax
  104fd0:	29 c2                	sub    %eax,%edx
  104fd2:	89 d0                	mov    %edx,%eax
  104fd4:	c1 e0 02             	shl    $0x2,%eax
  104fd7:	01 d0                	add    %edx,%eax
  104fd9:	01 c0                	add    %eax,%eax
  104fdb:	89 ca                	mov    %ecx,%edx
  104fdd:	29 c2                	sub    %eax,%edx
  104fdf:	89 d0                	mov    %edx,%eax
  104fe1:	83 c0 30             	add    $0x30,%eax
  104fe4:	88 03                	mov    %al,(%ebx)
  104fe6:	8b 45 f0             	mov    -0x10(%ebp),%eax
  104fe9:	83 c0 02             	add    $0x2,%eax
  104fec:	c6 00 2d             	movb   $0x2d,(%eax)
  104fef:	83 45 ec 01          	addl   $0x1,-0x14(%ebp)
  104ff3:	83 45 f0 03          	addl   $0x3,-0x10(%ebp)
  104ff7:	83 6d f4 04          	subl   $0x4,-0xc(%ebp)
  104ffb:	83 7d ec 05          	cmpl   $0x5,-0x14(%ebp)
  104fff:	7e 8d                	jle    104f8e <init_time+0x216>
  105001:	c7 44 24 08 00 00 00 	movl   $0x0,0x8(%esp)
  105008:	00 
  105009:	c7 44 24 04 11 00 00 	movl   $0x11,0x4(%esp)
  105010:	00 
  105011:	c7 04 24 e0 15 15 00 	movl   $0x1515e0,(%esp)
  105018:	e8 66 e8 ff ff       	call   103883 <print_str>
  10501d:	a1 90 11 15 00       	mov    0x151190,%eax
  105022:	83 e8 01             	sub    $0x1,%eax
  105025:	a3 90 11 15 00       	mov    %eax,0x151190
  10502a:	c7 04 24 80 11 15 00 	movl   $0x151180,(%esp)
  105031:	e8 37 00 00 00       	call   10506d <mk_time>
  105036:	a1 c0 15 15 00       	mov    0x1515c0,%eax
  10503b:	89 44 24 04          	mov    %eax,0x4(%esp)
  10503f:	c7 04 24 e0 15 15 00 	movl   $0x1515e0,(%esp)
  105046:	e8 09 f9 ff ff       	call   104954 <itoa>
  10504b:	c7 44 24 08 50 00 00 	movl   $0x50,0x8(%esp)
  105052:	00 
  105053:	c7 44 24 04 0f 00 00 	movl   $0xf,0x4(%esp)
  10505a:	00 
  10505b:	c7 04 24 e0 15 15 00 	movl   $0x1515e0,(%esp)
  105062:	e8 1c e8 ff ff       	call   103883 <print_str>
  105067:	83 c4 44             	add    $0x44,%esp
  10506a:	5b                   	pop    %ebx
  10506b:	5d                   	pop    %ebp
  10506c:	c3                   	ret    

0010506d <mk_time>:
  10506d:	55                   	push   %ebp
  10506e:	89 e5                	mov    %esp,%ebp
  105070:	56                   	push   %esi
  105071:	53                   	push   %ebx
  105072:	83 ec 10             	sub    $0x10,%esp
  105075:	8b 45 08             	mov    0x8(%ebp),%eax
  105078:	8b 40 14             	mov    0x14(%eax),%eax
  10507b:	83 c0 1e             	add    $0x1e,%eax
  10507e:	89 45 f4             	mov    %eax,-0xc(%ebp)
  105081:	8b 45 f4             	mov    -0xc(%ebp),%eax
  105084:	69 d8 80 33 e1 01    	imul   $0x1e13380,%eax,%ebx
  10508a:	8b 45 08             	mov    0x8(%ebp),%eax
  10508d:	8b 40 14             	mov    0x14(%eax),%eax
  105090:	05 cf 07 00 00       	add    $0x7cf,%eax
  105095:	8d 50 03             	lea    0x3(%eax),%edx
  105098:	85 c0                	test   %eax,%eax
  10509a:	0f 48 c2             	cmovs  %edx,%eax
  10509d:	c1 f8 02             	sar    $0x2,%eax
  1050a0:	89 c6                	mov    %eax,%esi
  1050a2:	8b 45 08             	mov    0x8(%ebp),%eax
  1050a5:	8b 40 14             	mov    0x14(%eax),%eax
  1050a8:	8d 88 cf 07 00 00    	lea    0x7cf(%eax),%ecx
  1050ae:	ba 1f 85 eb 51       	mov    $0x51eb851f,%edx
  1050b3:	89 c8                	mov    %ecx,%eax
  1050b5:	f7 ea                	imul   %edx
  1050b7:	c1 fa 05             	sar    $0x5,%edx
  1050ba:	89 c8                	mov    %ecx,%eax
  1050bc:	c1 f8 1f             	sar    $0x1f,%eax
  1050bf:	89 d1                	mov    %edx,%ecx
  1050c1:	29 c1                	sub    %eax,%ecx
  1050c3:	89 c8                	mov    %ecx,%eax
  1050c5:	29 c6                	sub    %eax,%esi
  1050c7:	8b 45 08             	mov    0x8(%ebp),%eax
  1050ca:	8b 40 14             	mov    0x14(%eax),%eax
  1050cd:	8d 88 cf 07 00 00    	lea    0x7cf(%eax),%ecx
  1050d3:	ba 1f 85 eb 51       	mov    $0x51eb851f,%edx
  1050d8:	89 c8                	mov    %ecx,%eax
  1050da:	f7 ea                	imul   %edx
  1050dc:	c1 fa 07             	sar    $0x7,%edx
  1050df:	89 c8                	mov    %ecx,%eax
  1050e1:	c1 f8 1f             	sar    $0x1f,%eax
  1050e4:	89 d1                	mov    %edx,%ecx
  1050e6:	29 c1                	sub    %eax,%ecx
  1050e8:	89 c8                	mov    %ecx,%eax
  1050ea:	8d 04 06             	lea    (%esi,%eax,1),%eax
  1050ed:	8d 04 03             	lea    (%ebx,%eax,1),%eax
  1050f0:	2d dd 01 00 00       	sub    $0x1dd,%eax
  1050f5:	a3 c0 15 15 00       	mov    %eax,0x1515c0
  1050fa:	8b 45 08             	mov    0x8(%ebp),%eax
  1050fd:	8b 40 14             	mov    0x14(%eax),%eax
  105100:	05 d3 07 00 00       	add    $0x7d3,%eax
  105105:	83 f8 06             	cmp    $0x6,%eax
  105108:	77 12                	ja     10511c <mk_time+0xaf>
  10510a:	8b 45 08             	mov    0x8(%ebp),%eax
  10510d:	8b 40 14             	mov    0x14(%eax),%eax
  105110:	05 33 08 00 00       	add    $0x833,%eax
  105115:	3d c6 00 00 00       	cmp    $0xc6,%eax
  10511a:	77 33                	ja     10514f <mk_time+0xe2>
  10511c:	8b 45 08             	mov    0x8(%ebp),%eax
  10511f:	8b 40 14             	mov    0x14(%eax),%eax
  105122:	8d 88 d0 07 00 00    	lea    0x7d0(%eax),%ecx
  105128:	ba 1f 85 eb 51       	mov    $0x51eb851f,%edx
  10512d:	89 c8                	mov    %ecx,%eax
  10512f:	f7 ea                	imul   %edx
  105131:	c1 fa 07             	sar    $0x7,%edx
  105134:	89 c8                	mov    %ecx,%eax
  105136:	c1 f8 1f             	sar    $0x1f,%eax
  105139:	89 d3                	mov    %edx,%ebx
  10513b:	29 c3                	sub    %eax,%ebx
  10513d:	89 d8                	mov    %ebx,%eax
  10513f:	69 c0 90 01 00 00    	imul   $0x190,%eax,%eax
  105145:	89 ca                	mov    %ecx,%edx
  105147:	29 c2                	sub    %eax,%edx
  105149:	89 d0                	mov    %edx,%eax
  10514b:	85 c0                	test   %eax,%eax
  10514d:	75 0f                	jne    10515e <mk_time+0xf1>
  10514f:	a1 c0 15 15 00       	mov    0x1515c0,%eax
  105154:	05 80 51 01 00       	add    $0x15180,%eax
  105159:	a3 c0 15 15 00       	mov    %eax,0x1515c0
  10515e:	8b 45 08             	mov    0x8(%ebp),%eax
  105161:	8b 40 10             	mov    0x10(%eax),%eax
  105164:	8b 04 85 c0 6e 10 00 	mov    0x106ec0(,%eax,4),%eax
  10516b:	89 c2                	mov    %eax,%edx
  10516d:	a1 c0 15 15 00       	mov    0x1515c0,%eax
  105172:	8d 04 02             	lea    (%edx,%eax,1),%eax
  105175:	a3 c0 15 15 00       	mov    %eax,0x1515c0
  10517a:	8b 45 08             	mov    0x8(%ebp),%eax
  10517d:	8b 40 0c             	mov    0xc(%eax),%eax
  105180:	69 c0 80 51 01 00    	imul   $0x15180,%eax,%eax
  105186:	89 c2                	mov    %eax,%edx
  105188:	a1 c0 15 15 00       	mov    0x1515c0,%eax
  10518d:	8d 04 02             	lea    (%edx,%eax,1),%eax
  105190:	a3 c0 15 15 00       	mov    %eax,0x1515c0
  105195:	8b 45 08             	mov    0x8(%ebp),%eax
  105198:	8b 40 08             	mov    0x8(%eax),%eax
  10519b:	69 c0 10 0e 00 00    	imul   $0xe10,%eax,%eax
  1051a1:	89 c2                	mov    %eax,%edx
  1051a3:	a1 c0 15 15 00       	mov    0x1515c0,%eax
  1051a8:	8d 04 02             	lea    (%edx,%eax,1),%eax
  1051ab:	a3 c0 15 15 00       	mov    %eax,0x1515c0
  1051b0:	8b 45 08             	mov    0x8(%ebp),%eax
  1051b3:	8b 40 04             	mov    0x4(%eax),%eax
  1051b6:	c1 e0 02             	shl    $0x2,%eax
  1051b9:	89 c2                	mov    %eax,%edx
  1051bb:	c1 e2 04             	shl    $0x4,%edx
  1051be:	89 d1                	mov    %edx,%ecx
  1051c0:	29 c1                	sub    %eax,%ecx
  1051c2:	89 c8                	mov    %ecx,%eax
  1051c4:	89 c2                	mov    %eax,%edx
  1051c6:	a1 c0 15 15 00       	mov    0x1515c0,%eax
  1051cb:	8d 04 02             	lea    (%edx,%eax,1),%eax
  1051ce:	a3 c0 15 15 00       	mov    %eax,0x1515c0
  1051d3:	8b 45 08             	mov    0x8(%ebp),%eax
  1051d6:	8b 00                	mov    (%eax),%eax
  1051d8:	89 c2                	mov    %eax,%edx
  1051da:	a1 c0 15 15 00       	mov    0x1515c0,%eax
  1051df:	8d 04 02             	lea    (%edx,%eax,1),%eax
  1051e2:	a3 c0 15 15 00       	mov    %eax,0x1515c0
  1051e7:	83 c4 10             	add    $0x10,%esp
  1051ea:	5b                   	pop    %ebx
  1051eb:	5e                   	pop    %esi
  1051ec:	5d                   	pop    %ebp
  1051ed:	c3                   	ret    
  1051ee:	90                   	nop
  1051ef:	90                   	nop

001051f0 <schedule>:
  1051f0:	55                   	push   %ebp
  1051f1:	89 e5                	mov    %esp,%ebp
  1051f3:	83 ec 28             	sub    $0x28,%esp
  1051f6:	a1 00 38 10 00       	mov    0x103800,%eax
  1051fb:	89 45 f4             	mov    %eax,-0xc(%ebp)
  1051fe:	f0 83 05 00 38 10 00 	lock addl $0x1,0x103800
  105205:	01 
  105206:	8b 0d 00 38 10 00    	mov    0x103800,%ecx
  10520c:	ba ab aa aa aa       	mov    $0xaaaaaaab,%edx
  105211:	89 c8                	mov    %ecx,%eax
  105213:	f7 e2                	mul    %edx
  105215:	d1 ea                	shr    %edx
  105217:	89 d0                	mov    %edx,%eax
  105219:	01 c0                	add    %eax,%eax
  10521b:	01 d0                	add    %edx,%eax
  10521d:	89 ca                	mov    %ecx,%edx
  10521f:	29 c2                	sub    %eax,%edx
  105221:	89 15 00 38 10 00    	mov    %edx,0x103800
  105227:	a1 00 38 10 00       	mov    0x103800,%eax
  10522c:	c1 e0 04             	shl    $0x4,%eax
  10522f:	83 c0 28             	add    $0x28,%eax
  105232:	89 c2                	mov    %eax,%edx
  105234:	66 89 55 f0          	mov    %dx,-0x10(%ebp)
  105238:	ff 6d ec             	ljmp   *-0x14(%ebp)
  10523b:	c7 04 24 53 5a 10 00 	movl   $0x105a53,(%esp)
  105242:	e8 dc fa ff ff       	call   104d23 <panic>
  105247:	c9                   	leave  
  105248:	c3                   	ret    
  105249:	90                   	nop
  10524a:	90                   	nop
  10524b:	90                   	nop

0010524c <init_hd>:
  10524c:	55                   	push   %ebp
  10524d:	89 e5                	mov    %esp,%ebp
  10524f:	53                   	push   %ebx
  105250:	83 ec 14             	sub    $0x14,%esp
  105253:	c7 45 e8 21 00 00 00 	movl   $0x21,-0x18(%ebp)
  10525a:	8b 55 e8             	mov    -0x18(%ebp),%edx
  10525d:	ec                   	in     (%dx),%al
  10525e:	90                   	nop
  10525f:	90                   	nop
  105260:	90                   	nop
  105261:	90                   	nop
  105262:	89 c3                	mov    %eax,%ebx
  105264:	88 5d fb             	mov    %bl,-0x5(%ebp)
  105267:	0f b6 45 fb          	movzbl -0x5(%ebp),%eax
  10526b:	88 45 fa             	mov    %al,-0x6(%ebp)
  10526e:	c7 45 e8 a1 00 00 00 	movl   $0xa1,-0x18(%ebp)
  105275:	8b 55 e8             	mov    -0x18(%ebp),%edx
  105278:	ec                   	in     (%dx),%al
  105279:	90                   	nop
  10527a:	90                   	nop
  10527b:	90                   	nop
  10527c:	90                   	nop
  10527d:	89 c3                	mov    %eax,%ebx
  10527f:	88 5d f9             	mov    %bl,-0x7(%ebp)
  105282:	0f b6 45 f9          	movzbl -0x7(%ebp),%eax
  105286:	88 45 f8             	mov    %al,-0x8(%ebp)
  105289:	0f b6 55 fa          	movzbl -0x6(%ebp),%edx
  10528d:	0f b6 45 f8          	movzbl -0x8(%ebp),%eax
  105291:	c1 e0 08             	shl    $0x8,%eax
  105294:	09 d0                	or     %edx,%eax
  105296:	66 89 45 f6          	mov    %ax,-0xa(%ebp)
  10529a:	66 83 65 f6 fb       	andw   $0xfffffffb,-0xa(%ebp)
  10529f:	0f b7 45 f6          	movzwl -0xa(%ebp),%eax
  1052a3:	88 45 fa             	mov    %al,-0x6(%ebp)
  1052a6:	0f b7 45 f6          	movzwl -0xa(%ebp),%eax
  1052aa:	66 c1 e8 08          	shr    $0x8,%ax
  1052ae:	88 45 f8             	mov    %al,-0x8(%ebp)
  1052b1:	ba 21 00 00 00       	mov    $0x21,%edx
  1052b6:	0f b6 45 fa          	movzbl -0x6(%ebp),%eax
  1052ba:	ee                   	out    %al,(%dx)
  1052bb:	90                   	nop
  1052bc:	90                   	nop
  1052bd:	90                   	nop
  1052be:	90                   	nop
  1052bf:	ba a1 00 00 00       	mov    $0xa1,%edx
  1052c4:	0f b6 45 f8          	movzbl -0x8(%ebp),%eax
  1052c8:	ee                   	out    %al,(%dx)
  1052c9:	90                   	nop
  1052ca:	90                   	nop
  1052cb:	90                   	nop
  1052cc:	90                   	nop
  1052cd:	c7 45 e8 21 00 00 00 	movl   $0x21,-0x18(%ebp)
  1052d4:	8b 55 e8             	mov    -0x18(%ebp),%edx
  1052d7:	ec                   	in     (%dx),%al
  1052d8:	90                   	nop
  1052d9:	90                   	nop
  1052da:	90                   	nop
  1052db:	90                   	nop
  1052dc:	89 c3                	mov    %eax,%ebx
  1052de:	88 5d f5             	mov    %bl,-0xb(%ebp)
  1052e1:	0f b6 45 f5          	movzbl -0xb(%ebp),%eax
  1052e5:	88 45 f4             	mov    %al,-0xc(%ebp)
  1052e8:	c7 45 e8 a1 00 00 00 	movl   $0xa1,-0x18(%ebp)
  1052ef:	8b 55 e8             	mov    -0x18(%ebp),%edx
  1052f2:	ec                   	in     (%dx),%al
  1052f3:	90                   	nop
  1052f4:	90                   	nop
  1052f5:	90                   	nop
  1052f6:	90                   	nop
  1052f7:	89 c3                	mov    %eax,%ebx
  1052f9:	88 5d f3             	mov    %bl,-0xd(%ebp)
  1052fc:	0f b6 45 f3          	movzbl -0xd(%ebp),%eax
  105300:	88 45 f2             	mov    %al,-0xe(%ebp)
  105303:	0f b6 55 f4          	movzbl -0xc(%ebp),%edx
  105307:	0f b6 45 f2          	movzbl -0xe(%ebp),%eax
  10530b:	c1 e0 08             	shl    $0x8,%eax
  10530e:	09 d0                	or     %edx,%eax
  105310:	66 89 45 f0          	mov    %ax,-0x10(%ebp)
  105314:	66 81 65 f0 ff bf    	andw   $0xbfff,-0x10(%ebp)
  10531a:	0f b7 45 f0          	movzwl -0x10(%ebp),%eax
  10531e:	88 45 f4             	mov    %al,-0xc(%ebp)
  105321:	0f b7 45 f0          	movzwl -0x10(%ebp),%eax
  105325:	66 c1 e8 08          	shr    $0x8,%ax
  105329:	88 45 f2             	mov    %al,-0xe(%ebp)
  10532c:	ba 21 00 00 00       	mov    $0x21,%edx
  105331:	0f b6 45 f4          	movzbl -0xc(%ebp),%eax
  105335:	ee                   	out    %al,(%dx)
  105336:	90                   	nop
  105337:	90                   	nop
  105338:	90                   	nop
  105339:	90                   	nop
  10533a:	ba a1 00 00 00       	mov    $0xa1,%edx
  10533f:	0f b6 45 f2          	movzbl -0xe(%ebp),%eax
  105343:	ee                   	out    %al,(%dx)
  105344:	90                   	nop
  105345:	90                   	nop
  105346:	90                   	nop
  105347:	90                   	nop
  105348:	83 c4 14             	add    $0x14,%esp
  10534b:	5b                   	pop    %ebx
  10534c:	5d                   	pop    %ebp
  10534d:	c3                   	ret    

0010534e <hd_out>:
  10534e:	55                   	push   %ebp
  10534f:	89 e5                	mov    %esp,%ebp
  105351:	53                   	push   %ebx
  105352:	83 ec 2c             	sub    $0x2c,%esp
  105355:	a1 20 75 10 00       	mov    0x107520,%eax
  10535a:	8b 15 24 75 10 00    	mov    0x107524,%edx
  105360:	89 45 e8             	mov    %eax,-0x18(%ebp)
  105363:	89 55 ec             	mov    %edx,-0x14(%ebp)
  105366:	c6 45 f7 00          	movb   $0x0,-0x9(%ebp)
  10536a:	eb 29                	jmp    105395 <hd_out+0x47>
  10536c:	c7 45 d4 f7 01 00 00 	movl   $0x1f7,-0x2c(%ebp)
  105373:	8b 55 d4             	mov    -0x2c(%ebp),%edx
  105376:	ec                   	in     (%dx),%al
  105377:	90                   	nop
  105378:	90                   	nop
  105379:	90                   	nop
  10537a:	90                   	nop
  10537b:	89 c3                	mov    %eax,%ebx
  10537d:	88 5d e7             	mov    %bl,-0x19(%ebp)
  105380:	0f b6 45 e7          	movzbl -0x19(%ebp),%eax
  105384:	88 45 f7             	mov    %al,-0x9(%ebp)
  105387:	0f b6 45 f7          	movzbl -0x9(%ebp),%eax
  10538b:	25 c0 00 00 00       	and    $0xc0,%eax
  105390:	83 f8 40             	cmp    $0x40,%eax
  105393:	74 22                	je     1053b7 <hd_out+0x69>
  105395:	a1 20 75 10 00       	mov    0x107520,%eax
  10539a:	8b 15 24 75 10 00    	mov    0x107524,%edx
  1053a0:	2b 45 e8             	sub    -0x18(%ebp),%eax
  1053a3:	1b 55 ec             	sbb    -0x14(%ebp),%edx
  1053a6:	83 fa 00             	cmp    $0x0,%edx
  1053a9:	72 c1                	jb     10536c <hd_out+0x1e>
  1053ab:	83 fa 00             	cmp    $0x0,%edx
  1053ae:	77 08                	ja     1053b8 <hd_out+0x6a>
  1053b0:	83 f8 63             	cmp    $0x63,%eax
  1053b3:	76 b7                	jbe    10536c <hd_out+0x1e>
  1053b5:	eb 01                	jmp    1053b8 <hd_out+0x6a>
  1053b7:	90                   	nop
  1053b8:	0f b6 45 f7          	movzbl -0x9(%ebp),%eax
  1053bc:	83 e0 01             	and    $0x1,%eax
  1053bf:	84 c0                	test   %al,%al
  1053c1:	74 0a                	je     1053cd <hd_out+0x7f>
  1053c3:	b8 ff ff ff ff       	mov    $0xffffffff,%eax
  1053c8:	e9 84 00 00 00       	jmp    105451 <hd_out+0x103>
  1053cd:	ba f6 03 00 00       	mov    $0x3f6,%edx
  1053d2:	b8 00 00 00 00       	mov    $0x0,%eax
  1053d7:	ee                   	out    %al,(%dx)
  1053d8:	90                   	nop
  1053d9:	90                   	nop
  1053da:	90                   	nop
  1053db:	90                   	nop
  1053dc:	ba f1 01 00 00       	mov    $0x1f1,%edx
  1053e1:	8b 45 08             	mov    0x8(%ebp),%eax
  1053e4:	ee                   	out    %al,(%dx)
  1053e5:	90                   	nop
  1053e6:	90                   	nop
  1053e7:	90                   	nop
  1053e8:	90                   	nop
  1053e9:	ba f2 01 00 00       	mov    $0x1f2,%edx
  1053ee:	8b 45 10             	mov    0x10(%ebp),%eax
  1053f1:	ee                   	out    %al,(%dx)
  1053f2:	90                   	nop
  1053f3:	90                   	nop
  1053f4:	90                   	nop
  1053f5:	90                   	nop
  1053f6:	8b 45 14             	mov    0x14(%ebp),%eax
  1053f9:	25 ff 00 00 00       	and    $0xff,%eax
  1053fe:	ba f3 01 00 00       	mov    $0x1f3,%edx
  105403:	ee                   	out    %al,(%dx)
  105404:	90                   	nop
  105405:	90                   	nop
  105406:	90                   	nop
  105407:	90                   	nop
  105408:	8b 45 14             	mov    0x14(%ebp),%eax
  10540b:	c1 e8 08             	shr    $0x8,%eax
  10540e:	25 ff 00 00 00       	and    $0xff,%eax
  105413:	ba f4 01 00 00       	mov    $0x1f4,%edx
  105418:	ee                   	out    %al,(%dx)
  105419:	90                   	nop
  10541a:	90                   	nop
  10541b:	90                   	nop
  10541c:	90                   	nop
  10541d:	8b 45 14             	mov    0x14(%ebp),%eax
  105420:	c1 e8 10             	shr    $0x10,%eax
  105423:	25 ff 00 00 00       	and    $0xff,%eax
  105428:	ba f5 01 00 00       	mov    $0x1f5,%edx
  10542d:	ee                   	out    %al,(%dx)
  10542e:	90                   	nop
  10542f:	90                   	nop
  105430:	90                   	nop
  105431:	90                   	nop
  105432:	ba f6 01 00 00       	mov    $0x1f6,%edx
  105437:	8b 45 0c             	mov    0xc(%ebp),%eax
  10543a:	ee                   	out    %al,(%dx)
  10543b:	90                   	nop
  10543c:	90                   	nop
  10543d:	90                   	nop
  10543e:	90                   	nop
  10543f:	ba f7 01 00 00       	mov    $0x1f7,%edx
  105444:	8b 45 18             	mov    0x18(%ebp),%eax
  105447:	ee                   	out    %al,(%dx)
  105448:	90                   	nop
  105449:	90                   	nop
  10544a:	90                   	nop
  10544b:	90                   	nop
  10544c:	b8 00 00 00 00       	mov    $0x0,%eax
  105451:	83 c4 2c             	add    $0x2c,%esp
  105454:	5b                   	pop    %ebx
  105455:	5d                   	pop    %ebp
  105456:	c3                   	ret    
  105457:	90                   	nop

00105458 <do_int_keyboard>:
  105458:	55                   	push   %ebp
  105459:	89 e5                	mov    %esp,%ebp
  10545b:	53                   	push   %ebx
  10545c:	83 ec 14             	sub    $0x14,%esp
  10545f:	c7 45 e8 60 00 00 00 	movl   $0x60,-0x18(%ebp)
  105466:	8b 55 e8             	mov    -0x18(%ebp),%edx
  105469:	ec                   	in     (%dx),%al
  10546a:	90                   	nop
  10546b:	90                   	nop
  10546c:	90                   	nop
  10546d:	90                   	nop
  10546e:	89 c3                	mov    %eax,%ebx
  105470:	88 5d fb             	mov    %bl,-0x5(%ebp)
  105473:	0f b6 45 fb          	movzbl -0x5(%ebp),%eax
  105477:	0f b6 c0             	movzbl %al,%eax
  10547a:	66 89 45 f8          	mov    %ax,-0x8(%ebp)
  10547e:	a1 68 b9 10 00       	mov    0x10b968,%eax
  105483:	3d ff 03 00 00       	cmp    $0x3ff,%eax
  105488:	7f 3a                	jg     1054c4 <do_int_keyboard+0x6c>
  10548a:	a1 64 b9 10 00       	mov    0x10b964,%eax
  10548f:	83 c0 01             	add    $0x1,%eax
  105492:	a3 64 b9 10 00       	mov    %eax,0x10b964
  105497:	a1 64 b9 10 00       	mov    0x10b964,%eax
  10549c:	89 c2                	mov    %eax,%edx
  10549e:	c1 fa 1f             	sar    $0x1f,%edx
  1054a1:	c1 ea 16             	shr    $0x16,%edx
  1054a4:	01 d0                	add    %edx,%eax
  1054a6:	25 ff 03 00 00       	and    $0x3ff,%eax
  1054ab:	29 d0                	sub    %edx,%eax
  1054ad:	0f b7 55 f8          	movzwl -0x8(%ebp),%edx
  1054b1:	88 90 60 b5 10 00    	mov    %dl,0x10b560(%eax)
  1054b7:	a1 68 b9 10 00       	mov    0x10b968,%eax
  1054bc:	83 c0 01             	add    $0x1,%eax
  1054bf:	a3 68 b9 10 00       	mov    %eax,0x10b968
  1054c4:	ba 20 00 00 00       	mov    $0x20,%edx
  1054c9:	b8 20 00 00 00       	mov    $0x20,%eax
  1054ce:	ee                   	out    %al,(%dx)
  1054cf:	90                   	nop
  1054d0:	90                   	nop
  1054d1:	90                   	nop
  1054d2:	90                   	nop
  1054d3:	83 c4 14             	add    $0x14,%esp
  1054d6:	5b                   	pop    %ebx
  1054d7:	5d                   	pop    %ebp
  1054d8:	c3                   	ret    
  1054d9:	90                   	nop
  1054da:	90                   	nop
  1054db:	90                   	nop

001054dc <task_shell>:
  1054dc:	55                   	push   %ebp
  1054dd:	89 e5                	mov    %esp,%ebp
  1054df:	53                   	push   %ebx
  1054e0:	83 ec 34             	sub    $0x34,%esp
  1054e3:	eb 04                	jmp    1054e9 <task_shell+0xd>
  1054e5:	90                   	nop
  1054e6:	eb 01                	jmp    1054e9 <task_shell+0xd>
  1054e8:	90                   	nop
  1054e9:	a1 08 75 10 00       	mov    0x107508,%eax
  1054ee:	83 e0 10             	and    $0x10,%eax
  1054f1:	85 c0                	test   %eax,%eax
  1054f3:	0f 84 b4 00 00 00    	je     1055ad <task_shell+0xd1>
  1054f9:	a1 6c b9 10 00       	mov    0x10b96c,%eax
  1054fe:	89 45 e4             	mov    %eax,-0x1c(%ebp)
  105501:	ba cd cc cc cc       	mov    $0xcccccccd,%edx
  105506:	8b 45 e4             	mov    -0x1c(%ebp),%eax
  105509:	f7 e2                	mul    %edx
  10550b:	89 d0                	mov    %edx,%eax
  10550d:	c1 e8 06             	shr    $0x6,%eax
  105510:	8d 50 01             	lea    0x1(%eax),%edx
  105513:	89 d0                	mov    %edx,%eax
  105515:	c1 e0 02             	shl    $0x2,%eax
  105518:	01 d0                	add    %edx,%eax
  10551a:	c1 e0 04             	shl    $0x4,%eax
  10551d:	a3 6c b9 10 00       	mov    %eax,0x10b96c
  105522:	c7 45 f4 00 75 10 00 	movl   $0x107500,-0xc(%ebp)
  105529:	a1 6c b9 10 00       	mov    0x10b96c,%eax
  10552e:	89 45 f0             	mov    %eax,-0x10(%ebp)
  105531:	eb 25                	jmp    105558 <task_shell+0x7c>
  105533:	8b 45 f4             	mov    -0xc(%ebp),%eax
  105536:	0f b6 00             	movzbl (%eax),%eax
  105539:	66 98                	cbtw   
  10553b:	80 cc 0c             	or     $0xc,%ah
  10553e:	66 89 45 ee          	mov    %ax,-0x12(%ebp)
  105542:	8b 45 f0             	mov    -0x10(%ebp),%eax
  105545:	8d 14 00             	lea    (%eax,%eax,1),%edx
  105548:	0f b7 45 ee          	movzwl -0x12(%ebp),%eax
  10554c:	65 66 89 02          	mov    %ax,%gs:(%edx)
  105550:	83 45 f4 01          	addl   $0x1,-0xc(%ebp)
  105554:	83 45 f0 01          	addl   $0x1,-0x10(%ebp)
  105558:	8b 45 f4             	mov    -0xc(%ebp),%eax
  10555b:	0f b6 00             	movzbl (%eax),%eax
  10555e:	84 c0                	test   %al,%al
  105560:	75 d1                	jne    105533 <task_shell+0x57>
  105562:	a1 6c b9 10 00       	mov    0x10b96c,%eax
  105567:	83 c0 08             	add    $0x8,%eax
  10556a:	a3 6c b9 10 00       	mov    %eax,0x10b96c
  10556f:	a1 6c b9 10 00       	mov    0x10b96c,%eax
  105574:	3d cf 07 00 00       	cmp    $0x7cf,%eax
  105579:	76 16                	jbe    105591 <task_shell+0xb5>
  10557b:	c7 04 24 18 00 00 00 	movl   $0x18,(%esp)
  105582:	e8 af 02 00 00       	call   105836 <move_to_top>
  105587:	c7 05 6c b9 10 00 08 	movl   $0x8,0x10b96c
  10558e:	00 00 00 
  105591:	8b 15 6c b9 10 00    	mov    0x10b96c,%edx
  105597:	b8 01 00 00 00       	mov    $0x1,%eax
  10559c:	89 d3                	mov    %edx,%ebx
  10559e:	cd ab                	int    $0xab
  1055a0:	a1 08 75 10 00       	mov    0x107508,%eax
  1055a5:	83 e0 ef             	and    $0xffffffef,%eax
  1055a8:	a3 08 75 10 00       	mov    %eax,0x107508
  1055ad:	a1 68 b9 10 00       	mov    0x10b968,%eax
  1055b2:	85 c0                	test   %eax,%eax
  1055b4:	0f 8e 2b ff ff ff    	jle    1054e5 <task_shell+0x9>
  1055ba:	a1 60 b9 10 00       	mov    0x10b960,%eax
  1055bf:	0f b6 80 60 b5 10 00 	movzbl 0x10b560(%eax),%eax
  1055c6:	88 45 ed             	mov    %al,-0x13(%ebp)
  1055c9:	a1 60 b9 10 00       	mov    0x10b960,%eax
  1055ce:	8d 50 01             	lea    0x1(%eax),%edx
  1055d1:	89 d0                	mov    %edx,%eax
  1055d3:	c1 f8 1f             	sar    $0x1f,%eax
  1055d6:	c1 e8 16             	shr    $0x16,%eax
  1055d9:	01 c2                	add    %eax,%edx
  1055db:	81 e2 ff 03 00 00    	and    $0x3ff,%edx
  1055e1:	89 d1                	mov    %edx,%ecx
  1055e3:	29 c1                	sub    %eax,%ecx
  1055e5:	89 c8                	mov    %ecx,%eax
  1055e7:	a3 60 b9 10 00       	mov    %eax,0x10b960
  1055ec:	a1 68 b9 10 00       	mov    0x10b968,%eax
  1055f1:	83 e8 01             	sub    $0x1,%eax
  1055f4:	a3 68 b9 10 00       	mov    %eax,0x10b968
  1055f9:	0f be 55 ed          	movsbl -0x13(%ebp),%edx
  1055fd:	89 d0                	mov    %edx,%eax
  1055ff:	01 c0                	add    %eax,%eax
  105601:	01 d0                	add    %edx,%eax
  105603:	8b 04 85 00 6f 10 00 	mov    0x106f00(,%eax,4),%eax
  10560a:	89 45 e8             	mov    %eax,-0x18(%ebp)
  10560d:	80 7d ed 00          	cmpb   $0x0,-0x13(%ebp)
  105611:	0f 88 ba 00 00 00    	js     1056d1 <task_shell+0x1f5>
  105617:	8b 45 e8             	mov    -0x18(%ebp),%eax
  10561a:	83 f8 7a             	cmp    $0x7a,%eax
  10561d:	77 0f                	ja     10562e <task_shell+0x152>
  10561f:	83 f8 61             	cmp    $0x61,%eax
  105622:	73 21                	jae    105645 <task_shell+0x169>
  105624:	83 f8 20             	cmp    $0x20,%eax
  105627:	74 1c                	je     105645 <task_shell+0x169>
  105629:	e9 bb fe ff ff       	jmp    1054e9 <task_shell+0xd>
  10562e:	3d 03 01 00 00       	cmp    $0x103,%eax
  105633:	0f 84 81 00 00 00    	je     1056ba <task_shell+0x1de>
  105639:	3d 04 01 00 00       	cmp    $0x104,%eax
  10563e:	74 3c                	je     10567c <task_shell+0x1a0>
  105640:	e9 a4 fe ff ff       	jmp    1054e9 <task_shell+0xd>
  105645:	0f b7 05 0c 75 10 00 	movzwl 0x10750c,%eax
  10564c:	0f b7 c0             	movzwl %ax,%eax
  10564f:	0b 45 e8             	or     -0x18(%ebp),%eax
  105652:	8b 15 6c b9 10 00    	mov    0x10b96c,%edx
  105658:	01 d2                	add    %edx,%edx
  10565a:	65 66 89 02          	mov    %ax,%gs:(%edx)
  10565e:	a1 6c b9 10 00       	mov    0x10b96c,%eax
  105663:	83 c0 01             	add    $0x1,%eax
  105666:	a3 6c b9 10 00       	mov    %eax,0x10b96c
  10566b:	8b 15 6c b9 10 00    	mov    0x10b96c,%edx
  105671:	b8 01 00 00 00       	mov    $0x1,%eax
  105676:	89 d3                	mov    %edx,%ebx
  105678:	cd ab                	int    $0xab
  10567a:	eb 50                	jmp    1056cc <task_shell+0x1f0>
  10567c:	c7 45 e8 20 00 00 00 	movl   $0x20,-0x18(%ebp)
  105683:	a1 6c b9 10 00       	mov    0x10b96c,%eax
  105688:	83 e8 01             	sub    $0x1,%eax
  10568b:	a3 6c b9 10 00       	mov    %eax,0x10b96c
  105690:	0f b7 05 0c 75 10 00 	movzwl 0x10750c,%eax
  105697:	0f b7 c0             	movzwl %ax,%eax
  10569a:	0b 45 e8             	or     -0x18(%ebp),%eax
  10569d:	8b 15 6c b9 10 00    	mov    0x10b96c,%edx
  1056a3:	01 d2                	add    %edx,%edx
  1056a5:	65 66 89 02          	mov    %ax,%gs:(%edx)
  1056a9:	8b 15 6c b9 10 00    	mov    0x10b96c,%edx
  1056af:	b8 01 00 00 00       	mov    $0x1,%eax
  1056b4:	89 d3                	mov    %edx,%ebx
  1056b6:	cd ab                	int    $0xab
  1056b8:	eb 12                	jmp    1056cc <task_shell+0x1f0>
  1056ba:	a1 08 75 10 00       	mov    0x107508,%eax
  1056bf:	83 c8 10             	or     $0x10,%eax
  1056c2:	a3 08 75 10 00       	mov    %eax,0x107508
  1056c7:	e9 1d fe ff ff       	jmp    1054e9 <task_shell+0xd>
  1056cc:	e9 18 fe ff ff       	jmp    1054e9 <task_shell+0xd>
  1056d1:	8b 45 e8             	mov    -0x18(%ebp),%eax
  1056d4:	2d 08 01 00 00       	sub    $0x108,%eax
  1056d9:	83 f8 06             	cmp    $0x6,%eax
  1056dc:	0f 87 06 fe ff ff    	ja     1054e8 <task_shell+0xc>
  1056e2:	8b 04 85 6c 5a 10 00 	mov    0x105a6c(,%eax,4),%eax
  1056e9:	ff e0                	jmp    *%eax
  1056eb:	a1 08 75 10 00       	mov    0x107508,%eax
  1056f0:	83 e0 fe             	and    $0xfffffffe,%eax
  1056f3:	a3 08 75 10 00       	mov    %eax,0x107508
  1056f8:	eb 30                	jmp    10572a <task_shell+0x24e>
  1056fa:	a1 08 75 10 00       	mov    0x107508,%eax
  1056ff:	83 e0 fd             	and    $0xfffffffd,%eax
  105702:	a3 08 75 10 00       	mov    %eax,0x107508
  105707:	eb 21                	jmp    10572a <task_shell+0x24e>
  105709:	a1 08 75 10 00       	mov    0x107508,%eax
  10570e:	83 e0 fb             	and    $0xfffffffb,%eax
  105711:	a3 08 75 10 00       	mov    %eax,0x107508
  105716:	eb 12                	jmp    10572a <task_shell+0x24e>
  105718:	a1 08 75 10 00       	mov    0x107508,%eax
  10571d:	83 e0 f7             	and    $0xfffffff7,%eax
  105720:	a3 08 75 10 00       	mov    %eax,0x107508
  105725:	e9 bf fd ff ff       	jmp    1054e9 <task_shell+0xd>
  10572a:	e9 ba fd ff ff       	jmp    1054e9 <task_shell+0xd>

0010572f <init_shell>:
  10572f:	55                   	push   %ebp
  105730:	89 e5                	mov    %esp,%ebp
  105732:	57                   	push   %edi
  105733:	56                   	push   %esi
  105734:	53                   	push   %ebx
  105735:	83 ec 10             	sub    $0x10,%esp
  105738:	a1 c8 c2 10 00       	mov    0x10c2c8,%eax
  10573d:	8b 15 cc c2 10 00    	mov    0x10c2cc,%edx
  105743:	a3 78 cb 10 00       	mov    %eax,0x10cb78
  105748:	89 15 7c cb 10 00    	mov    %edx,0x10cb7c
  10574e:	a1 d0 c2 10 00       	mov    0x10c2d0,%eax
  105753:	8b 15 d4 c2 10 00    	mov    0x10c2d4,%edx
  105759:	a3 80 cb 10 00       	mov    %eax,0x10cb80
  10575e:	89 15 84 cb 10 00    	mov    %edx,0x10cb84
  105764:	ba 00 cb 10 00       	mov    $0x10cb00,%edx
  105769:	bb 50 c2 10 00       	mov    $0x10c250,%ebx
  10576e:	b8 1a 00 00 00       	mov    $0x1a,%eax
  105773:	89 d7                	mov    %edx,%edi
  105775:	89 de                	mov    %ebx,%esi
  105777:	89 c1                	mov    %eax,%ecx
  105779:	f3 a5                	rep movsl %ds:(%esi),%es:(%edi)
  10577b:	b8 dc 54 10 00       	mov    $0x1054dc,%eax
  105780:	a3 20 cb 10 00       	mov    %eax,0x10cb20
  105785:	b8 90 cf 10 00       	mov    $0x10cf90,%eax
  10578a:	a3 04 cb 10 00       	mov    %eax,0x10cb04
  10578f:	b8 90 d3 10 00       	mov    $0x10d390,%eax
  105794:	a3 38 cb 10 00       	mov    %eax,0x10cb38
  105799:	bb 70 cb 10 00       	mov    $0x10cb70,%ebx
  10579e:	b8 00 09 10 00       	mov    $0x100900,%eax
  1057a3:	b9 ff ff 0f 00       	mov    $0xfffff,%ecx
  1057a8:	ba e2 cf 00 00       	mov    $0xcfe2,%edx
  1057ad:	fa                   	cli    
  1057ae:	66 89 08             	mov    %cx,(%eax)
  1057b1:	83 c0 02             	add    $0x2,%eax
  1057b4:	66 89 18             	mov    %bx,(%eax)
  1057b7:	83 c0 02             	add    $0x2,%eax
  1057ba:	c1 eb 10             	shr    $0x10,%ebx
  1057bd:	88 18                	mov    %bl,(%eax)
  1057bf:	83 c0 01             	add    $0x1,%eax
  1057c2:	66 89 10             	mov    %dx,(%eax)
  1057c5:	83 c0 02             	add    $0x2,%eax
  1057c8:	88 38                	mov    %bh,(%eax)
  1057ca:	fb                   	sti    
  1057cb:	bb 00 cb 10 00       	mov    $0x10cb00,%ebx
  1057d0:	b8 08 09 10 00       	mov    $0x100908,%eax
  1057d5:	b9 68 00 00 00       	mov    $0x68,%ecx
  1057da:	ba e9 00 00 00       	mov    $0xe9,%edx
  1057df:	fa                   	cli    
  1057e0:	66 89 08             	mov    %cx,(%eax)
  1057e3:	83 c0 02             	add    $0x2,%eax
  1057e6:	66 89 18             	mov    %bx,(%eax)
  1057e9:	83 c0 02             	add    $0x2,%eax
  1057ec:	c1 eb 10             	shr    $0x10,%ebx
  1057ef:	88 18                	mov    %bl,(%eax)
  1057f1:	83 c0 01             	add    $0x1,%eax
  1057f4:	66 89 10             	mov    %dx,(%eax)
  1057f7:	83 c0 02             	add    $0x2,%eax
  1057fa:	88 38                	mov    %bh,(%eax)
  1057fc:	fb                   	sti    
  1057fd:	c7 05 e0 ca 10 00 02 	movl   $0x2,0x10cae0
  105804:	00 00 00 
  105807:	c7 05 e8 ca 10 00 00 	movl   $0x0,0x10cae8
  10580e:	00 00 00 
  105811:	a1 24 cb 10 00       	mov    0x10cb24,%eax
  105816:	80 cc 30             	or     $0x30,%ah
  105819:	a3 24 cb 10 00       	mov    %eax,0x10cb24
  10581e:	9c                   	pushf  
  10581f:	81 0c 24 00 30 00 00 	orl    $0x3000,(%esp)
  105826:	9d                   	popf   
  105827:	c7 45 f0 00 00 00 00 	movl   $0x0,-0x10(%ebp)
  10582e:	83 c4 10             	add    $0x10,%esp
  105831:	5b                   	pop    %ebx
  105832:	5e                   	pop    %esi
  105833:	5f                   	pop    %edi
  105834:	5d                   	pop    %ebp
  105835:	c3                   	ret    

00105836 <move_to_top>:
  105836:	55                   	push   %ebp
  105837:	89 e5                	mov    %esp,%ebp
  105839:	57                   	push   %edi
  10583a:	56                   	push   %esi
  10583b:	53                   	push   %ebx
  10583c:	83 ec 10             	sub    $0x10,%esp
  10583f:	8b 55 08             	mov    0x8(%ebp),%edx
  105842:	89 d0                	mov    %edx,%eax
  105844:	c1 e0 02             	shl    $0x2,%eax
  105847:	01 d0                	add    %edx,%eax
  105849:	c1 e0 05             	shl    $0x5,%eax
  10584c:	89 45 f0             	mov    %eax,-0x10(%ebp)
  10584f:	c7 45 ec 00 00 00 00 	movl   $0x0,-0x14(%ebp)
  105856:	c7 45 e8 a0 0f 00 00 	movl   $0xfa0,-0x18(%ebp)
  10585d:	8b 55 e8             	mov    -0x18(%ebp),%edx
  105860:	8b 45 f0             	mov    -0x10(%ebp),%eax
  105863:	89 d1                	mov    %edx,%ecx
  105865:	29 c1                	sub    %eax,%ecx
  105867:	8b 45 f0             	mov    -0x10(%ebp),%eax
  10586a:	8b 55 ec             	mov    -0x14(%ebp),%edx
  10586d:	89 c6                	mov    %eax,%esi
  10586f:	89 d7                	mov    %edx,%edi
  105871:	fc                   	cld    
  105872:	f3 66 a5             	rep movsw %ds:(%esi),%es:(%edi)
  105875:	8b 55 e8             	mov    -0x18(%ebp),%edx
  105878:	8b 45 f0             	mov    -0x10(%ebp),%eax
  10587b:	89 d3                	mov    %edx,%ebx
  10587d:	29 c3                	sub    %eax,%ebx
  10587f:	0f b7 05 0c 75 10 00 	movzwl 0x10750c,%eax
  105886:	83 c8 20             	or     $0x20,%eax
  105889:	0f b7 c0             	movzwl %ax,%eax
  10588c:	8b 55 f0             	mov    -0x10(%ebp),%edx
  10588f:	89 df                	mov    %ebx,%edi
  105891:	89 d1                	mov    %edx,%ecx

00105893 <loop1>:
  105893:	65 66 89 07          	mov    %ax,%gs:(%edi)
  105897:	83 c7 02             	add    $0x2,%edi
  10589a:	e2 f7                	loop   105893 <loop1>
  10589c:	83 c4 10             	add    $0x10,%esp
  10589f:	5b                   	pop    %ebx
  1058a0:	5e                   	pop    %esi
  1058a1:	5f                   	pop    %edi
  1058a2:	5d                   	pop    %ebp
  1058a3:	c3                   	ret    
